 PhysX3CHECKED_x86

 Timestamp is 5aec1f3c (Fri May  4 09:52:12 2018)

 Preferred load address is 10000000

 Start         Length     Name                   Class
 0001:00000000 0001ef50H .text$di                CODE
 0001:0001ef50 00235a15H .text$mn                CODE
 0002:00000000 00000104H .CRT$XCA                DATA
 0002:00000104 00001230H .CRT$XCU                DATA
 0002:00001334 00000104H .CRT$XCZ                DATA
 0002:00001438 00000104H .CRT$XIA                DATA
 0002:0000153c 00000110H .CRT$XIC                DATA
 0002:0000164c 00000104H .CRT$XIZ                DATA
 0002:00001750 00000104H .CRT$XPA                DATA
 0002:00001854 0000010cH .CRT$XPX                DATA
 0002:00001960 00000104H .CRT$XPXA               DATA
 0002:00001a64 00000104H .CRT$XPZ                DATA
 0002:00001b68 00000104H .CRT$XTA                DATA
 0002:00001c6c 00000114H .CRT$XTZ                DATA
 0002:00001d80 0003d5ccH .rdata                  DATA
 0002:0003f34c 00000394H .rdata$r                DATA
 0002:0003f6e0 00000110H .rdata$sxdata           DATA
 0002:0003f7f0 000001d8H .rdata$zzzdbg           DATA
 0002:0003f9c8 00000104H .rtc$IAA                DATA
 0002:0003facc 00000104H .rtc$IZZ                DATA
 0002:0003fbd0 00000104H .rtc$TAA                DATA
 0002:0003fcd4 00000104H .rtc$TZZ                DATA
 0002:0003fdd8 00000918H .xdata$x                DATA
 0002:000406f0 00003300H .edata                  DATA
 0003:00000000 00004830H .data                   DATA
 0003:00004830 00001150H .data$r                 DATA
 0003:00005980 00006edcH .bss                    DATA
 0004:00000000 000001e8H .idata$5                DATA
 0004:000001e8 00000014H .idata$2                DATA
 0004:000001fc 00000014H .idata$3                DATA
 0004:00000210 000001e8H .idata$4                DATA
 0004:000003f8 000008a1H .idata$6                DATA
 0005:00000000 00000060H .didat$2                DATA
 0005:00000060 00000020H .didat$3                DATA
 0005:00000080 00000484H .didat$4                DATA
 0005:00000504 00000484H .didat$5                DATA
 0005:00000988 000053c0H .didat$6                DATA
 0005:00005d48 000004bfH .didat$7                DATA
 0006:00000000 000002c3H .gfids$y                DATA
 0007:00000000 00000104H .00cfg                  DATA
 0008:00000000 000001c0H .rsrc$01                DATA
 0008:000001c0 00000679H .rsrc$02                DATA

  Address         Publics by Value              Rva+Base       Lib:Object

 0000:00000000       ___dynamic_value_reloc_table 00000000     <absolute>
 0000:00000000       ___guard_iat_table         00000000     <absolute>
 0000:00000000       ___guard_fids_count        00000000     <absolute>
 0000:00000000       ___guard_iat_count         00000000     <absolute>
 0000:00000000       ___guard_longjmp_count     00000000     <absolute>
 0000:00000000       __except_list              00000000     <absolute>
 0000:00000000       ___guard_longjmp_table     00000000     <absolute>
 0000:00000000       ___guard_fids_table        00000000     <absolute>
 0000:00000003       ___safe_se_handler_count   00000003     <absolute>
 0000:00000100       ___guard_flags             00000100     <absolute>
 0000:00000000       ___ImageBase               10000000     <linker-defined>
 0001:0001ef50       _PxSetPhysXDelayLoadHook   1001ff50 f   NpWindowsDelayLoadHook.obj
 0001:0001ef60       ?delayHook@@YGP6GHXZIPAUDelayLoadInfo@@@Z 1001ff60 f   NpWindowsDelayLoadHook.obj
 0001:0001efc0       ?foundationDliNotePreLoadLibrary@shdfnd@physx@@YGP6GHXZPBDPBVPxFoundationDelayLoadHook@2@@Z 1001ffc0 f i NpWindowsDelayLoadHook.obj
 0001:0001f0b0       ?physXCommonDliNotePreLoadLibrary@Cm@physx@@YGP6GHXZPBDPBVPxDelayLoadHook@2@@Z 100200b0 f i NpWindowsDelayLoadHook.obj
 0001:0001f290       ?createTriangleMeshMirror@NpPhysicsGpu@physx@@QAE_NABVPxTriangleMesh@2@AAVPxCudaContextManager@2@@Z 10020290 f   NpPhysicsGpu.obj
 0001:0001f350       ?releaseTriangleMeshMirror@NpPhysicsGpu@physx@@QAEXABVPxTriangleMesh@2@PAVPxCudaContextManager@2@@Z 10020350 f   NpPhysicsGpu.obj
 0001:0001f370       ?createHeightFieldMirror@NpPhysicsGpu@physx@@QAE_NABVPxHeightField@2@AAVPxCudaContextManager@2@@Z 10020370 f   NpPhysicsGpu.obj
 0001:0001f430       ?releaseHeightFieldMirror@NpPhysicsGpu@physx@@QAEXABVPxHeightField@2@PAVPxCudaContextManager@2@@Z 10020430 f   NpPhysicsGpu.obj
 0001:0001f450       ?createConvexMeshMirror@NpPhysicsGpu@physx@@QAE_NABVPxConvexMesh@2@AAVPxCudaContextManager@2@@Z 10020450 f   NpPhysicsGpu.obj
 0001:0001f510       ?releaseConvexMeshMirror@NpPhysicsGpu@physx@@QAEXABVPxConvexMesh@2@PAVPxCudaContextManager@2@@Z 10020510 f   NpPhysicsGpu.obj
 0001:0001f530       ?setExplicitCudaFlushCountHint@NpPhysicsGpu@physx@@QAEXABVPxScene@2@I@Z 10020530 f   NpPhysicsGpu.obj
 0001:0001f590       ?setTriangleMeshCacheSizeHint@NpPhysicsGpu@physx@@QAE_NABVPxScene@2@I@Z 10020590 f   NpPhysicsGpu.obj
 0001:0001f5f0       ?getTriangleMeshCacheStatistics@NpPhysicsGpu@physx@@QAE?AUPxTriangleMeshCacheStatistics@2@ABVPxScene@2@@Z 100205f0 f   NpPhysicsGpu.obj
 0001:0001f680       ??0NpPhysicsGpu@physx@@QAE@AAVNpPhysics@1@@Z 10020680 f   NpPhysicsGpu.obj
 0001:0001f6e0       ??1NpPhysicsGpu@physx@@UAE@XZ 100206e0 f   NpPhysicsGpu.obj
 0001:0001f710       ?findMeshMirror@NpPhysicsGpu@physx@@AAEPAUMeshMirror@12@PBX@Z 10020710 f   NpPhysicsGpu.obj
 0001:0001f750       ?findMeshMirror@NpPhysicsGpu@physx@@AAEPAUMeshMirror@12@PBXAAVPxCudaContextManager@2@@Z 10020750 f   NpPhysicsGpu.obj
 0001:0001f790       ?getPhysXGpu@NpPhysicsGpu@physx@@AAEPAVPxPhysXGpu@2@_NPBD0@Z 10020790 f   NpPhysicsGpu.obj
 0001:0001f7e0       ?checkNewMirror@NpPhysicsGpu@physx@@AAE_NPBXAAVPxCudaContextManager@2@PBD@Z 100207e0 f   NpPhysicsGpu.obj
 0001:0001f860       ?checkMirrorExists@NpPhysicsGpu@physx@@AAE_NPAUMeshMirror@12@PBD@Z 10020860 f   NpPhysicsGpu.obj
 0001:0001f8b0       ?checkMirrorHandle@NpPhysicsGpu@physx@@AAE_NIPBD@Z 100208b0 f   NpPhysicsGpu.obj
 0001:0001f8f0       ?addMeshMirror@NpPhysicsGpu@physx@@AAEXPBXIAAVPxCudaContextManager@2@@Z 100208f0 f   NpPhysicsGpu.obj
 0001:0001f940       ?releaseMeshMirror@NpPhysicsGpu@physx@@AAEXPBXPBDPAVPxCudaContextManager@2@@Z 10020940 f   NpPhysicsGpu.obj
 0001:0001fce0       ??_ENpPhysicsGpu@physx@@UAEPAXI@Z 10020ce0 f i NpPhysicsGpu.obj
 0001:0001fce0       ??_GNpPhysicsGpu@physx@@UAEPAXI@Z 10020ce0 f i NpPhysicsGpu.obj
 0001:0001fd40       ??_H@YGXPAXIIP6EPAX0@Z@Z   10020d40 f i NpPhysicsGpu.obj
 0001:0001fd70       ??_I@YGXPAXIIP6EX0@Z@Z     10020d70 f i NpPhysicsGpu.obj
 0001:0001fdb0       ?__empty_global_delete@@YAXPAX@Z 10020db0 f i NpPhysicsGpu.obj
 0001:0001fdc0       ?__global_delete@@YAXPAXI@Z 10020dc0 f i NpPhysicsGpu.obj
 0001:0001fdc0       ?__empty_global_delete@@YAXPAXI@Z 10020dc0 f i NpPhysicsGpu.obj
 0001:0001fdc0       ?__global_array_delete@@YAXPAXI@Z 10020dc0 f i NpPhysicsGpu.obj
 0001:0001fdd0       ?recreate@?$Array@UMeshMirror@NpPhysicsGpu@physx@@VNamedAllocator@shdfnd@3@@shdfnd@physx@@IAEXI@Z 10020dd0 f i NpPhysicsGpu.obj
 0001:0001fea0       _PxGetSuggestedCudaDeviceOrdinal 10020ea0 f   PxGpu.obj
 0001:0001fed0       _PxCreateCudaContextManager 10020ed0 f   PxGpu.obj
 0001:0001ff20       ?enable@PxParticleDeviceExclusive@physx@@SAXAAVPxParticleBase@2@@Z 10020f20 f   PxParticleDeviceExclusive.obj
 0001:0001ff50       ?isEnabled@PxParticleDeviceExclusive@physx@@SA_NAAVPxParticleBase@2@@Z 10020f50 f   PxParticleDeviceExclusive.obj
 0001:0001ffa0       ?getReadWriteCudaBuffers@PxParticleDeviceExclusive@physx@@SAXAAVPxParticleBase@2@AAUPxCudaReadWriteParticleBuffers@2@@Z 10020fa0 f   PxParticleDeviceExclusive.obj
 0001:00020030       ?setValidParticleRange@PxParticleDeviceExclusive@physx@@SAXAAVPxParticleBase@2@I@Z 10021030 f   PxParticleDeviceExclusive.obj
 0001:000200c0       ?setFlags@PxParticleDeviceExclusive@physx@@SAXAAVPxParticleBase@2@V?$PxFlags@W4Enum@PxParticleDeviceExclusiveFlag@physx@@I@2@@Z 100210c0 f   PxParticleDeviceExclusive.obj
 0001:00020150       ?getLaunchTask@PxParticleDeviceExclusive@physx@@SAPAVPxBaseTask@2@AAVPxParticleBase@2@@Z 10021150 f   PxParticleDeviceExclusive.obj
 0001:000201a0       ?addLaunchTaskDependent@PxParticleDeviceExclusive@physx@@SAXAAVPxParticleBase@2@AAVPxBaseTask@2@@Z 100211a0 f   PxParticleDeviceExclusive.obj
 0001:00020230       ?getCudaStream@PxParticleDeviceExclusive@physx@@SAPAUCUstream_st@@AAVPxParticleBase@2@@Z 10021230 f   PxParticleDeviceExclusive.obj
 0001:00020350       ?addLaunchTaskDependentGpu@?$NpParticleBaseTemplate@VPxParticleFluid@physx@@VNpParticleFluid@2@@physx@@QAEXAAVPxBaseTask@2@@Z 10021350 f i PxParticleDeviceExclusive.obj
 0001:000203b0       ?addLaunchTaskDependentGpu@?$NpParticleBaseTemplate@VPxParticleSystem@physx@@VNpParticleSystem@2@@physx@@QAEXAAVPxBaseTask@2@@Z 100213b0 f i PxParticleDeviceExclusive.obj
 0001:00020410       ?enableDeviceExclusiveModeGpu@?$NpParticleBaseTemplate@VPxParticleFluid@physx@@VNpParticleFluid@2@@physx@@QAEXXZ 10021410 f i PxParticleDeviceExclusive.obj
 0001:000204f0       ?enableDeviceExclusiveModeGpu@?$NpParticleBaseTemplate@VPxParticleSystem@physx@@VNpParticleSystem@2@@physx@@QAEXXZ 100214f0 f i PxParticleDeviceExclusive.obj
 0001:000205d0       ?getCudaStreamGpu@?$NpParticleBaseTemplate@VPxParticleFluid@physx@@VNpParticleFluid@2@@physx@@QBEIXZ 100215d0 f i PxParticleDeviceExclusive.obj
 0001:00020640       ?getCudaStreamGpu@?$NpParticleBaseTemplate@VPxParticleSystem@physx@@VNpParticleSystem@2@@physx@@QBEIXZ 10021640 f i PxParticleDeviceExclusive.obj
 0001:000206b0       ?getDeviceExclusiveAccessGpu@?$NpParticleBaseTemplate@VPxParticleFluid@physx@@VNpParticleFluid@2@@physx@@QBEPAVPxParticleDeviceExclusiveAccess@2@PBD@Z 100216b0 f i PxParticleDeviceExclusive.obj
 0001:00020770       ?getDeviceExclusiveAccessGpu@?$NpParticleBaseTemplate@VPxParticleSystem@physx@@VNpParticleSystem@2@@physx@@QBEPAVPxParticleDeviceExclusiveAccess@2@PBD@Z 10021770 f i PxParticleDeviceExclusive.obj
 0001:00020830       ?getLaunchTaskGpu@?$NpParticleBaseTemplate@VPxParticleFluid@physx@@VNpParticleFluid@2@@physx@@QBEPAVPxBaseTask@2@XZ 10021830 f i PxParticleDeviceExclusive.obj
 0001:000208a0       ?getLaunchTaskGpu@?$NpParticleBaseTemplate@VPxParticleSystem@physx@@VNpParticleSystem@2@@physx@@QBEPAVPxBaseTask@2@XZ 100218a0 f i PxParticleDeviceExclusive.obj
 0001:00020910       ?getReadWriteCudaBuffersGpu@?$NpParticleBaseTemplate@VPxParticleFluid@physx@@VNpParticleFluid@2@@physx@@QBEXAAUPxCudaReadWriteParticleBuffers@2@@Z 10021910 f i PxParticleDeviceExclusive.obj
 0001:00020970       ?getReadWriteCudaBuffersGpu@?$NpParticleBaseTemplate@VPxParticleSystem@physx@@VNpParticleSystem@2@@physx@@QBEXAAUPxCudaReadWriteParticleBuffers@2@@Z 10021970 f i PxParticleDeviceExclusive.obj
 0001:000209d0       ?isDeviceExclusiveModeEnabledGpu@?$NpParticleBaseTemplate@VPxParticleFluid@physx@@VNpParticleFluid@2@@physx@@QBE_NXZ 100219d0 f i PxParticleDeviceExclusive.obj
 0001:00020ab0       ?isDeviceExclusiveModeEnabledGpu@?$NpParticleBaseTemplate@VPxParticleSystem@physx@@VNpParticleSystem@2@@physx@@QBE_NXZ 10021ab0 f i PxParticleDeviceExclusive.obj
 0001:00020b90       ?setDeviceExclusiveModeFlagsGpu@?$NpParticleBaseTemplate@VPxParticleFluid@physx@@VNpParticleFluid@2@@physx@@QAEXI@Z 10021b90 f i PxParticleDeviceExclusive.obj
 0001:00020bf0       ?setDeviceExclusiveModeFlagsGpu@?$NpParticleBaseTemplate@VPxParticleSystem@physx@@VNpParticleSystem@2@@physx@@QAEXI@Z 10021bf0 f i PxParticleDeviceExclusive.obj
 0001:00020c50       ?setValidParticleRangeGpu@?$NpParticleBaseTemplate@VPxParticleFluid@physx@@VNpParticleFluid@2@@physx@@QAEXI@Z 10021c50 f i PxParticleDeviceExclusive.obj
 0001:00020cb0       ?setValidParticleRangeGpu@?$NpParticleBaseTemplate@VPxParticleSystem@physx@@VNpParticleSystem@2@@physx@@QAEXI@Z 10021cb0 f i PxParticleDeviceExclusive.obj
 0001:00020d10       ?createTriangleMeshMirror@PxParticleGpu@physx@@SA_NABVPxTriangleMesh@2@AAVPxCudaContextManager@2@@Z 10021d10 f   PxParticleGpu.obj
 0001:00020d30       ?releaseTriangleMeshMirror@PxParticleGpu@physx@@SAXABVPxTriangleMesh@2@PAVPxCudaContextManager@2@@Z 10021d30 f   PxParticleGpu.obj
 0001:00020d50       ?createHeightFieldMirror@PxParticleGpu@physx@@SA_NABVPxHeightField@2@AAVPxCudaContextManager@2@@Z 10021d50 f   PxParticleGpu.obj
 0001:00020d70       ?releaseHeightFieldMirror@PxParticleGpu@physx@@SAXABVPxHeightField@2@PAVPxCudaContextManager@2@@Z 10021d70 f   PxParticleGpu.obj
 0001:00020d90       ?createConvexMeshMirror@PxParticleGpu@physx@@SA_NABVPxConvexMesh@2@AAVPxCudaContextManager@2@@Z 10021d90 f   PxParticleGpu.obj
 0001:00020db0       ?releaseConvexMeshMirror@PxParticleGpu@physx@@SAXABVPxConvexMesh@2@PAVPxCudaContextManager@2@@Z 10021db0 f   PxParticleGpu.obj
 0001:00020dd0       ?setExplicitCudaFlushCountHint@PxParticleGpu@physx@@SAXABVPxScene@2@I@Z 10021dd0 f   PxParticleGpu.obj
 0001:00020df0       ?setTriangleMeshCacheSizeHint@PxParticleGpu@physx@@SA_NABVPxScene@2@I@Z 10021df0 f   PxParticleGpu.obj
 0001:00020e10       ?getTriangleMeshCacheStatistics@PxParticleGpu@physx@@SA?AUPxTriangleMeshCacheStatistics@2@ABVPxScene@2@@Z 10021e10 f   PxParticleGpu.obj
 0001:00020e80       _PxSetPhysXGpuLoadHook     10021e80 f   PxPhysXGpuModuleLoader.obj
 0001:00020f00       ?PxLoadPhysxGPUModule@physx@@YAXPBD@Z 10021f00 f   PxPhysXGpuModuleLoader.obj
 0001:00021070       ?registerPhysXIndicatorGpuClient@PxPhysXIndicatorDeviceExclusive@physx@@SAXAAVPxPhysics@2@@Z 10022070 f   PxPhysXIndicatorDeviceExclusive.obj
 0001:00021080       ?unregisterPhysXIndicatorGpuClient@PxPhysXIndicatorDeviceExclusive@physx@@SAXAAVPxPhysics@2@@Z 10022080 f   PxPhysXIndicatorDeviceExclusive.obj
 0001:000210a0       ??0PhysXIndicator@physx@@QAE@_N@Z 100220a0 f   PhysXIndicatorWindows.obj
 0001:000211a0       ??1PhysXIndicator@physx@@QAE@XZ 100221a0 f   PhysXIndicatorWindows.obj
 0001:000211e0       ?setIsGpu@PhysXIndicator@physx@@QAEX_N@Z 100221e0 f   PhysXIndicatorWindows.obj
 0001:00021280       ??$__vcrt_va_start_verify_argument_type@QBD@@YAXXZ 10022280 f i PhysXIndicatorWindows.obj
 0001:00021290       ?IsWindowsVersionOrGreater@@YA_NGGG@Z 10022290 f i PhysXIndicatorWindows.obj
 0001:00021370       ___local_stdio_printf_options 10022370 f i PhysXIndicatorWindows.obj
 0001:00021380       _sprintf                   10022380 f i PhysXIndicatorWindows.obj
 0001:000213c0       ?createObject@NpParticleFluid@physx@@SAPAV12@AAPAEAAVPxDeserializationContext@2@@Z 100223c0 f   NpParticleFluid.obj
 0001:00021410       ??0NpParticleFluid@physx@@QAE@I_N@Z 10022410 f   NpParticleFluid.obj
 0001:00021470       ??1NpParticleFluid@physx@@UAE@XZ 10022470 f   NpParticleFluid.obj
 0001:000214a0       ?is@NpParticleFluid@physx@@UAEPAXW4Enum@PxActorType@2@@Z 100224a0 f   NpParticleFluid.obj
 0001:000214b0       ?is@NpParticleFluid@physx@@UBEPBXW4Enum@PxActorType@2@@Z 100224b0 f   NpParticleFluid.obj
 0001:000214c0       ?lockParticleFluidReadData@NpParticleFluid@physx@@UAEPAVPxParticleFluidReadData@2@V?$PxFlags@W4Enum@PxDataAccessFlag@physx@@E@2@@Z 100224c0 f   NpParticleFluid.obj
 0001:000214e0       ?lockParticleFluidReadData@NpParticleFluid@physx@@UAEPAVPxParticleFluidReadData@2@XZ 100224e0 f   NpParticleFluid.obj
 0001:000214f0       ?getStiffness@NpParticleFluid@physx@@UBEMXZ 100224f0 f   NpParticleFluid.obj
 0001:00021560       ?setStiffness@NpParticleFluid@physx@@UAEXM@Z 10022560 f   NpParticleFluid.obj
 0001:000215e0       ?getViscosity@NpParticleFluid@physx@@UBEMXZ 100225e0 f   NpParticleFluid.obj
 0001:00021650       ?setViscosity@NpParticleFluid@physx@@UAEXM@Z 10022650 f   NpParticleFluid.obj
 0001:000216d0       ?getRestParticleDistance@NpParticleFluid@physx@@UBEMXZ 100226d0 f   NpParticleFluid.obj
 0001:00021710       ?setRestParticleDistance@NpParticleFluid@physx@@UAEXM@Z 10022710 f   NpParticleFluid.obj
 0001:000218e0       ??$pointerOffset@PAVActor@Scb@physx@@@shdfnd@physx@@YAPAVActor@Scb@1@PAXH@Z 100228e0 f i NpParticleFluid.obj
 0001:000218f0       ??$pointerOffset@PBVActor@Scb@physx@@@shdfnd@physx@@YAPBVActor@Scb@1@PBXH@Z 100228f0 f i NpParticleFluid.obj
 0001:00021900       ??0?$NpActorTemplate@VPxParticleFluid@physx@@@physx@@QAE@GV?$PxFlags@W4Enum@PxBaseFlag@physx@@G@1@PBDPAX@Z 10022900 f i NpParticleFluid.obj
 0001:00021960       ??0?$NpParticleBaseTemplate@VPxParticleFluid@physx@@VNpParticleFluid@2@@physx@@QAE@GV?$PxFlags@W4Enum@PxBaseFlag@physx@@G@1@ABW4Enum@PxActorType@1@I_N@Z 10022960 f i NpParticleFluid.obj
 0001:000219d0       ??0?$NpParticleBaseTemplate@VPxParticleFluid@physx@@VNpParticleFluid@2@@physx@@QAE@V?$PxFlags@W4Enum@PxBaseFlag@physx@@G@1@@Z 100229d0 f i NpParticleFluid.obj
 0001:00021a70       ??0NpParticleFluidReadData@physx@@QAE@XZ 10022a70 f i NpParticleFluid.obj
 0001:00021ab0       ??0PxParticleFluidReadData@physx@@QAE@XZ 10022ab0 f i NpParticleFluid.obj
 0001:00021b40       ??0PxVec3@physx@@QAE@XZ    10022b40 f i NpParticleFluid.obj
 0001:00021b50       ??1?$NpActorTemplate@VPxParticleFluid@physx@@@physx@@UAE@XZ 10022b50 f i NpParticleFluid.obj
 0001:00021b80       ??1?$NpParticleBaseTemplate@VPxParticleFluid@physx@@VNpParticleFluid@2@@physx@@UAE@XZ 10022b80 f i NpParticleFluid.obj
 0001:00021bc0       ??1NpParticleFluidReadData@physx@@UAE@XZ 10022bc0 f i NpParticleFluid.obj
 0001:00021bd0       ??1PxActor@physx@@MAE@XZ   10022bd0 f i NpParticleFluid.obj
 0001:00021be0       ??1PxBase@physx@@MAE@XZ    10022be0 f i NpParticleFluid.obj
 0001:00021bf0       ??1PxLockedData@physx@@UAE@XZ 10022bf0 f i NpParticleFluid.obj
 0001:00021c00       ??1PxParticleBase@physx@@MAE@XZ 10022c00 f i NpParticleFluid.obj
 0001:00021c10       ??1PxParticleFluid@physx@@MAE@XZ 10022c10 f i NpParticleFluid.obj
 0001:00021c20       ??1PxParticleFluidReadData@physx@@UAE@XZ 10022c20 f i NpParticleFluid.obj
 0001:00021c30       ??1PxParticleReadData@physx@@UAE@XZ 10022c30 f i NpParticleFluid.obj
 0001:00021c40       ??_G?$NpActorTemplate@VPxParticleFluid@physx@@@physx@@UAEPAXI@Z 10022c40 f i NpParticleFluid.obj
 0001:00021c40       ??_E?$NpActorTemplate@VPxParticleFluid@physx@@@physx@@UAEPAXI@Z 10022c40 f i NpParticleFluid.obj
 0001:00021cb0       ??_E?$NpParticleBaseTemplate@VPxParticleFluid@physx@@VNpParticleFluid@2@@physx@@UAEPAXI@Z 10022cb0 f i NpParticleFluid.obj
 0001:00021cb0       ??_G?$NpParticleBaseTemplate@VPxParticleFluid@physx@@VNpParticleFluid@2@@physx@@UAEPAXI@Z 10022cb0 f i NpParticleFluid.obj
 0001:00021d30       ??_GNpParticleFluid@physx@@UAEPAXI@Z 10022d30 f i NpParticleFluid.obj
 0001:00021d30       ??_ENpParticleFluid@physx@@UAEPAXI@Z 10022d30 f i NpParticleFluid.obj
 0001:00021db0       ??_GNpParticleFluidReadData@physx@@UAEPAXI@Z 10022db0 f i NpParticleFluid.obj
 0001:00021db0       ??_ENpParticleFluidReadData@physx@@UAEPAXI@Z 10022db0 f i NpParticleFluid.obj
 0001:00021e10       ??_GPxActor@physx@@MAEPAXI@Z 10022e10 f i NpParticleFluid.obj
 0001:00021e10       ??_EPxActor@physx@@MAEPAXI@Z 10022e10 f i NpParticleFluid.obj
 0001:00021e40       ??_GPxBase@physx@@MAEPAXI@Z 10022e40 f i NpParticleFluid.obj
 0001:00021e40       ??_EPxBase@physx@@MAEPAXI@Z 10022e40 f i NpParticleFluid.obj
 0001:00021e70       ??_GPxLockedData@physx@@UAEPAXI@Z 10022e70 f i NpParticleFluid.obj
 0001:00021e70       ??_EPxLockedData@physx@@UAEPAXI@Z 10022e70 f i NpParticleFluid.obj
 0001:00021ea0       ??_GPxParticleBase@physx@@MAEPAXI@Z 10022ea0 f i NpParticleFluid.obj
 0001:00021ea0       ??_EPxParticleBase@physx@@MAEPAXI@Z 10022ea0 f i NpParticleFluid.obj
 0001:00021ed0       ??_GPxParticleFluid@physx@@MAEPAXI@Z 10022ed0 f i NpParticleFluid.obj
 0001:00021ed0       ??_EPxParticleFluid@physx@@MAEPAXI@Z 10022ed0 f i NpParticleFluid.obj
 0001:00021f00       ??_GPxParticleFluidReadData@physx@@UAEPAXI@Z 10022f00 f i NpParticleFluid.obj
 0001:00021f00       ??_EPxParticleFluidReadData@physx@@UAEPAXI@Z 10022f00 f i NpParticleFluid.obj
 0001:00021f30       ??_EPxParticleReadData@physx@@UAEPAXI@Z 10022f30 f i NpParticleFluid.obj
 0001:00021f30       ??_GPxParticleReadData@physx@@UAEPAXI@Z 10022f30 f i NpParticleFluid.obj
 0001:00021f60       ?addForces@?$NpParticleBaseTemplate@VPxParticleFluid@physx@@VNpParticleFluid@2@@physx@@UAEXIABV?$PxStrideIterator@$$CBI@2@ABV?$PxStrideIterator@$$CBVPxVec3@physx@@@2@W4Enum@PxForceMode@2@@Z 10022f60 f i NpParticleFluid.obj
 0001:000220f0       ?checkAllocatedIndices@?$NpParticleBaseTemplate@VPxParticleFluid@physx@@VNpParticleFluid@2@@physx@@AAE_NIABV?$PxStrideIterator@$$CBI@2@@Z 100230f0 f i NpParticleFluid.obj
 0001:00022230       ?checkFreeIndices@?$NpParticleBaseTemplate@VPxParticleFluid@physx@@VNpParticleFluid@2@@physx@@AAE_NIABV?$PxStrideIterator@$$CBI@2@@Z 10023230 f i NpParticleFluid.obj
 0001:000225f0       ?createParticles@?$NpParticleBaseTemplate@VPxParticleFluid@physx@@VNpParticleFluid@2@@physx@@UAE_NABVPxParticleCreationData@2@@Z 100235f0 f i NpParticleFluid.obj
 0001:00022a20       ?erase@?$HashBase@PAVPxParticleBase@physx@@PAV12@U?$Hash@PAVPxParticleBase@physx@@@shdfnd@2@UGetKey@?$HashSetBase@PAVPxParticleBase@physx@@U?$Hash@PAVPxParticleBase@physx@@@shdfnd@2@VNonTrackingAllocator@42@$00@internal@42@VNonTrackingAllocator@42@$00@internal@shdfnd@physx@@QAE_NABQAVPxParticleBase@4@@Z 10023a20 f i NpParticleFluid.obj
 0001:00022b00       ?exportExtraData@?$NpActorTemplate@VPxParticleFluid@physx@@@physx@@UAEXAAVPxSerializationContext@2@@Z 10023b00 f i NpParticleFluid.obj
 0001:00022b10       ?exportExtraData@NpParticleFluid@physx@@UAEXAAVPxSerializationContext@2@@Z 10023b10 f i NpParticleFluid.obj
 0001:00022b20       ?extend@?$BitMapBase@VNonTrackingAllocator@shdfnd@physx@@@Cm@physx@@IAEXI@Z 10023b20 f i NpParticleFluid.obj
 0001:00022c00       ?getActorFlags@?$NpActorTemplate@VPxParticleFluid@physx@@@physx@@UBE?AV?$PxFlags@W4Enum@PxActorFlag@physx@@E@2@XZ 10023c00 f i NpParticleFluid.obj
 0001:00022c80       ?getAggregate@?$NpActorTemplate@VPxParticleFluid@physx@@@physx@@UBEPAVPxAggregate@2@XZ 10023c80 f i NpParticleFluid.obj
 0001:00022c90       ?getClientBehaviorFlags@?$NpActorTemplate@VPxParticleFluid@physx@@@physx@@UBE?AV?$PxFlags@W4Enum@PxActorClientBehaviorFlag@physx@@E@2@XZ 10023c90 f i NpParticleFluid.obj
 0001:00022d10       ?getConcreteTypeName@PxParticleFluid@physx@@UBEPBDXZ 10023d10 f i NpParticleFluid.obj
 0001:00022d20       ?getContactOffset@?$NpParticleBaseTemplate@VPxParticleFluid@physx@@VNpParticleFluid@2@@physx@@UBEMXZ 10023d20 f i NpParticleFluid.obj
 0001:00022d70       ?getDamping@?$NpParticleBaseTemplate@VPxParticleFluid@physx@@VNpParticleFluid@2@@physx@@UBEMXZ 10023d70 f i NpParticleFluid.obj
 0001:00022df0       ?getDataAccessFlags@NpParticleFluidReadData@physx@@UAE?AV?$PxFlags@W4Enum@PxDataAccessFlag@physx@@E@2@XZ 10023df0 f i NpParticleFluid.obj
 0001:00022e10       ?getDominanceGroup@?$NpActorTemplate@VPxParticleFluid@physx@@@physx@@UBEEXZ 10023e10 f i NpParticleFluid.obj
 0001:00022ea0       ?getDynamicFriction@?$NpParticleBaseTemplate@VPxParticleFluid@physx@@VNpParticleFluid@2@@physx@@UBEMXZ 10023ea0 f i NpParticleFluid.obj
 0001:00022f20       ?getExternalAcceleration@?$NpParticleBaseTemplate@VPxParticleFluid@physx@@VNpParticleFluid@2@@physx@@UBE?AVPxVec3@2@XZ 10023f20 f i NpParticleFluid.obj
 0001:00022fa0       ?getFlags@ParticleSystem@Scb@physx@@QBE?AV?$PxFlags@W4Enum@PxParticleBaseFlag@physx@@G@3@XZ 10023fa0 f i NpParticleFluid.obj
 0001:00022ff0       ?getGridSize@?$NpParticleBaseTemplate@VPxParticleFluid@physx@@VNpParticleFluid@2@@physx@@UBEMXZ 10023ff0 f i NpParticleFluid.obj
 0001:00023040       ?getMaxMotionDistance@?$NpParticleBaseTemplate@VPxParticleFluid@physx@@VNpParticleFluid@2@@physx@@UBEMXZ 10024040 f i NpParticleFluid.obj
 0001:00023090       ?getMaxParticles@?$NpParticleBaseTemplate@VPxParticleFluid@physx@@VNpParticleFluid@2@@physx@@UBEIXZ 10024090 f i NpParticleFluid.obj
 0001:000230e0       ?getName@?$NpActorTemplate@VPxParticleFluid@physx@@@physx@@UBEPBDXZ 100240e0 f i NpParticleFluid.obj
 0001:00023120       ?getOwnerClient@?$NpActorTemplate@VPxParticleFluid@physx@@@physx@@UBEEXZ 10024120 f i NpParticleFluid.obj
 0001:00023150       ?getParticleBaseFlags@?$NpParticleBaseTemplate@VPxParticleFluid@physx@@VNpParticleFluid@2@@physx@@UBE?AV?$PxFlags@W4Enum@PxParticleBaseFlag@physx@@G@2@XZ 10024150 f i NpParticleFluid.obj
 0001:000231c0       ?getParticleMass@?$NpParticleBaseTemplate@VPxParticleFluid@physx@@VNpParticleFluid@2@@physx@@UBEMXZ 100241c0 f i NpParticleFluid.obj
 0001:00023240       ?getParticleReadDataFlags@?$NpParticleBaseTemplate@VPxParticleFluid@physx@@VNpParticleFluid@2@@physx@@UBE?AV?$PxFlags@W4Enum@PxParticleReadDataFlag@physx@@G@2@XZ 10024240 f i NpParticleFluid.obj
 0001:00023290       ?getProjectionPlane@?$NpParticleBaseTemplate@VPxParticleFluid@physx@@VNpParticleFluid@2@@physx@@UBEXAAVPxVec3@2@AAM@Z 10024290 f i NpParticleFluid.obj
 0001:00023320       ?getRestOffset@?$NpParticleBaseTemplate@VPxParticleFluid@physx@@VNpParticleFluid@2@@physx@@UBEMXZ 10024320 f i NpParticleFluid.obj
 0001:00023370       ?getRestitution@?$NpParticleBaseTemplate@VPxParticleFluid@physx@@VNpParticleFluid@2@@physx@@UBEMXZ 10024370 f i NpParticleFluid.obj
 0001:000233f0       ?getScene@?$NpActorTemplate@VPxParticleFluid@physx@@@physx@@UBEPAVPxScene@2@XZ 100243f0 f i NpParticleFluid.obj
 0001:00023400       ?getSimulationFilterData@?$NpParticleBaseTemplate@VPxParticleFluid@physx@@VNpParticleFluid@2@@physx@@UBE?AUPxFilterData@2@XZ 10024400 f i NpParticleFluid.obj
 0001:00023470       ?getStaticFriction@?$NpParticleBaseTemplate@VPxParticleFluid@physx@@VNpParticleFluid@2@@physx@@UBEMXZ 10024470 f i NpParticleFluid.obj
 0001:000234f0       ?getType@?$NpParticleBaseTemplate@VPxParticleFluid@physx@@VNpParticleFluid@2@@physx@@UBE?AW4Enum@PxActorType@2@XZ 100244f0 f i NpParticleFluid.obj
 0001:00023500       ?getType@NpParticleFluid@physx@@UBE?AW4Enum@PxActorType@2@XZ 10024500 f i NpParticleFluid.obj
 0001:00023510       ?getWorldBounds@?$NpParticleBaseTemplate@VPxParticleFluid@physx@@VNpParticleFluid@2@@physx@@UBE?AVPxBounds3@2@M@Z 10024510 f i NpParticleFluid.obj
 0001:000236c0       ?isKindOf@PxActor@physx@@MBE_NPBD@Z 100246c0 f i NpParticleFluid.obj
 0001:00023760       ?isKindOf@PxBase@physx@@MBE_NPBD@Z 10024760 f i NpParticleFluid.obj
 0001:000237c0       ?isKindOf@PxParticleBase@physx@@MBE_NPBD@Z 100247c0 f i NpParticleFluid.obj
 0001:00023830       ?isKindOf@PxParticleFluid@physx@@MBE_NPBD@Z 10024830 f i NpParticleFluid.obj
 0001:000238e0       ?isReleasable@PxBase@physx@@UBE_NXZ 100248e0 f i NpParticleFluid.obj
 0001:000238f0       ?lockParticleReadData@?$NpParticleBaseTemplate@VPxParticleFluid@physx@@VNpParticleFluid@2@@physx@@UAEPAVPxParticleReadData@2@V?$PxFlags@W4Enum@PxDataAccessFlag@physx@@E@2@@Z 100248f0 f i NpParticleFluid.obj
 0001:00023950       ?lockParticleReadData@?$NpParticleBaseTemplate@VPxParticleFluid@physx@@VNpParticleFluid@2@@physx@@UAEPAVPxParticleReadData@2@XZ 10024950 f i NpParticleFluid.obj
 0001:000239a0       ?lockParticleReadData@ParticleSystem@Scb@physx@@QAEPAVPxParticleReadData@3@V?$PxFlags@W4Enum@PxDataAccessFlag@physx@@E@3@@Z 100249a0 f i NpParticleFluid.obj
 0001:00023b30       ?release@?$NpActorTemplate@VPxParticleFluid@physx@@@physx@@UAEXXZ 10024b30 f i NpParticleFluid.obj
 0001:00023b40       ?release@?$NpParticleBaseTemplate@VPxParticleFluid@physx@@VNpParticleFluid@2@@physx@@UAEXXZ 10024b40 f i NpParticleFluid.obj
 0001:00023bf0       ?releaseParticles@?$NpParticleBaseTemplate@VPxParticleFluid@physx@@VNpParticleFluid@2@@physx@@UAEXIABV?$PxStrideIterator@$$CBI@2@@Z 10024bf0 f i NpParticleFluid.obj
 0001:00023d00       ?releaseParticles@?$NpParticleBaseTemplate@VPxParticleFluid@physx@@VNpParticleFluid@2@@physx@@UAEXXZ 10024d00 f i NpParticleFluid.obj
 0001:00023d50       ?replaceWithLast@?$HashBase@PAVPxParticleBase@physx@@PAV12@U?$Hash@PAVPxParticleBase@physx@@@shdfnd@2@UGetKey@?$HashSetBase@PAVPxParticleBase@physx@@U?$Hash@PAVPxParticleBase@physx@@@shdfnd@2@VNonTrackingAllocator@42@$00@internal@42@VNonTrackingAllocator@42@$00@internal@shdfnd@physx@@AAEXI@Z 10024d50 f i NpParticleFluid.obj
 0001:00023e00       ?requires@NpParticleFluid@physx@@UAEXAAVPxProcessPxBaseCallback@2@@Z 10024e00 f i NpParticleFluid.obj
 0001:00023e10       ?resetFiltering@?$NpParticleBaseTemplate@VPxParticleFluid@physx@@VNpParticleFluid@2@@physx@@UAEXXZ 10024e10 f i NpParticleFluid.obj
 0001:00023e60       ?resolveReferences@?$NpActorTemplate@VPxParticleFluid@physx@@@physx@@UAEXAAVPxDeserializationContext@2@@Z 10024e60 f i NpParticleFluid.obj
 0001:00023e70       ?setActorFlag@?$NpActorTemplate@VPxParticleFluid@physx@@@physx@@UAEXW4Enum@PxActorFlag@2@_N@Z 10024e70 f i NpParticleFluid.obj
 0001:00023f40       ?setActorFlags@?$NpActorTemplate@VPxParticleFluid@physx@@@physx@@UAEXV?$PxFlags@W4Enum@PxActorFlag@physx@@E@2@@Z 10024f40 f i NpParticleFluid.obj
 0001:00023fa0       ?setActorFlags@Actor@Scb@physx@@QAEXV?$PxFlags@W4Enum@PxActorFlag@physx@@E@3@@Z 10024fa0 f i NpParticleFluid.obj
 0001:000240f0       ?setClientBehaviorFlags@?$NpActorTemplate@VPxParticleFluid@physx@@@physx@@UAEXV?$PxFlags@W4Enum@PxActorClientBehaviorFlag@physx@@E@2@@Z 100250f0 f i NpParticleFluid.obj
 0001:00024150       ?setClientBehaviorFlags@Actor@Scb@physx@@QAEXV?$PxFlags@W4Enum@PxActorClientBehaviorFlag@physx@@E@3@@Z 10025150 f i NpParticleFluid.obj
 0001:00024210       ?setContactOffset@?$NpParticleBaseTemplate@VPxParticleFluid@physx@@VNpParticleFluid@2@@physx@@UAEXM@Z 10025210 f i NpParticleFluid.obj
 0001:00024310       ?setContactOffset@ParticleSystem@Scb@physx@@QAEXM@Z 10025310 f i NpParticleFluid.obj
 0001:00024390       ?setDamping@?$NpParticleBaseTemplate@VPxParticleFluid@physx@@VNpParticleFluid@2@@physx@@UAEXM@Z 10025390 f i NpParticleFluid.obj
 0001:00024430       ?setDamping@ParticleSystem@Scb@physx@@QAEXM@Z 10025430 f i NpParticleFluid.obj
 0001:000244f0       ?setDataAccessFlags@NpParticleFluidReadData@physx@@UAEXV?$PxFlags@W4Enum@PxDataAccessFlag@physx@@E@2@@Z 100254f0 f i NpParticleFluid.obj
 0001:00024510       ?setDominanceGroup@?$NpActorTemplate@VPxParticleFluid@physx@@@physx@@UAEXE@Z 10025510 f i NpParticleFluid.obj
 0001:00024570       ?setDominanceGroup@Actor@Scb@physx@@QAEXE@Z 10025570 f i NpParticleFluid.obj
 0001:00024620       ?setDynamicFriction@?$NpParticleBaseTemplate@VPxParticleFluid@physx@@VNpParticleFluid@2@@physx@@UAEXM@Z 10025620 f i NpParticleFluid.obj
 0001:000246d0       ?setDynamicFriction@ParticleSystem@Scb@physx@@QAEXM@Z 100256d0 f i NpParticleFluid.obj
 0001:00024790       ?setExternalAcceleration@?$NpParticleBaseTemplate@VPxParticleFluid@physx@@VNpParticleFluid@2@@physx@@UAEXABVPxVec3@2@@Z 10025790 f i NpParticleFluid.obj
 0001:000247e0       ?setExternalAcceleration@ParticleSystem@Scb@physx@@QAEXABVPxVec3@3@@Z 100257e0 f i NpParticleFluid.obj
 0001:000248a0       ?setFlags@ParticleSystem@Scb@physx@@QAEXV?$PxFlags@W4Enum@PxParticleBaseFlag@physx@@G@3@@Z 100258a0 f i NpParticleFluid.obj
 0001:00024960       ?setGridSize@?$NpParticleBaseTemplate@VPxParticleFluid@physx@@VNpParticleFluid@2@@physx@@UAEXM@Z 10025960 f i NpParticleFluid.obj
 0001:00024a60       ?setGridSize@ParticleSystem@Scb@physx@@QAEXM@Z 10025a60 f i NpParticleFluid.obj
 0001:00024ae0       ?setMaxMotionDistance@?$NpParticleBaseTemplate@VPxParticleFluid@physx@@VNpParticleFluid@2@@physx@@UAEXM@Z 10025ae0 f i NpParticleFluid.obj
 0001:00024be0       ?setMaxMotionDistance@ParticleSystem@Scb@physx@@QAEXM@Z 10025be0 f i NpParticleFluid.obj
 0001:00024c60       ?setName@?$NpActorTemplate@VPxParticleFluid@physx@@@physx@@UAEXPBD@Z 10025c60 f i NpParticleFluid.obj
 0001:00024ce0       ?setOwnerClient@?$NpActorTemplate@VPxParticleFluid@physx@@@physx@@UAEXE@Z 10025ce0 f i NpParticleFluid.obj
 0001:00024d50       ?setOwnerClient@Actor@Scb@physx@@QAEXE@Z 10025d50 f i NpParticleFluid.obj
 0001:00024e10       ?setParticleBaseFlag@?$NpParticleBaseTemplate@VPxParticleFluid@physx@@VNpParticleFluid@2@@physx@@UAEXW4Enum@PxParticleBaseFlag@2@_N@Z 10025e10 f i NpParticleFluid.obj
 0001:00024f20       ?setParticleMass@?$NpParticleBaseTemplate@VPxParticleFluid@physx@@VNpParticleFluid@2@@physx@@UAEXM@Z 10025f20 f i NpParticleFluid.obj
 0001:00024fc0       ?setParticleMass@ParticleSystem@Scb@physx@@QAEXM@Z 10025fc0 f i NpParticleFluid.obj
 0001:00025080       ?setParticleReadDataFlag@?$NpParticleBaseTemplate@VPxParticleFluid@physx@@VNpParticleFluid@2@@physx@@UAEXW4Enum@PxParticleReadDataFlag@2@_N@Z 10026080 f i NpParticleFluid.obj
 0001:000251f0       ?setParticleReadDataFlags@ParticleSystem@Scb@physx@@QAEXV?$PxFlags@W4Enum@PxParticleReadDataFlag@physx@@G@3@@Z 100261f0 f i NpParticleFluid.obj
 0001:00025270       ?setPositions@?$NpParticleBaseTemplate@VPxParticleFluid@physx@@VNpParticleFluid@2@@physx@@UAEXIABV?$PxStrideIterator@$$CBI@2@ABV?$PxStrideIterator@$$CBVPxVec3@physx@@@2@@Z 10026270 f i NpParticleFluid.obj
 0001:000253b0       ?setProjectionPlane@?$NpParticleBaseTemplate@VPxParticleFluid@physx@@VNpParticleFluid@2@@physx@@UAEXABVPxVec3@2@M@Z 100263b0 f i NpParticleFluid.obj
 0001:000254a0       ?setProjectionPlane@ParticleSystem@Scb@physx@@QAEXABVPxPlane@3@@Z 100264a0 f i NpParticleFluid.obj
 0001:00025560       ?setRestOffset@?$NpParticleBaseTemplate@VPxParticleFluid@physx@@VNpParticleFluid@2@@physx@@UAEXM@Z 10026560 f i NpParticleFluid.obj
 0001:00025700       ?setRestOffset@ParticleSystem@Scb@physx@@QAEXM@Z 10026700 f i NpParticleFluid.obj
 0001:00025780       ?setRestOffsets@?$NpParticleBaseTemplate@VPxParticleFluid@physx@@VNpParticleFluid@2@@physx@@UAEXIABV?$PxStrideIterator@$$CBI@2@ABV?$PxStrideIterator@$$CBM@2@@Z 10026780 f i NpParticleFluid.obj
 0001:00025950       ?setRestParticleDistance@ParticleSystem@Scb@physx@@QAEXM@Z 10026950 f i NpParticleFluid.obj
 0001:000259d0       ?setRestitution@?$NpParticleBaseTemplate@VPxParticleFluid@physx@@VNpParticleFluid@2@@physx@@UAEXM@Z 100269d0 f i NpParticleFluid.obj
 0001:00025a80       ?setRestitution@ParticleSystem@Scb@physx@@QAEXM@Z 10026a80 f i NpParticleFluid.obj
 0001:00025b40       ?setSimulationFilterData@?$NpParticleBaseTemplate@VPxParticleFluid@physx@@VNpParticleFluid@2@@physx@@UAEXABUPxFilterData@2@@Z 10026b40 f i NpParticleFluid.obj
 0001:00025b90       ?setSimulationFilterData@ParticleSystem@Scb@physx@@QAEXABUPxFilterData@3@@Z 10026b90 f i NpParticleFluid.obj
 0001:00025c40       ?setStaticFriction@?$NpParticleBaseTemplate@VPxParticleFluid@physx@@VNpParticleFluid@2@@physx@@UAEXM@Z 10026c40 f i NpParticleFluid.obj
 0001:00025ce0       ?setStaticFriction@ParticleSystem@Scb@physx@@QAEXM@Z 10026ce0 f i NpParticleFluid.obj
 0001:00025da0       ?setStiffness@ParticleSystem@Scb@physx@@QAEXM@Z 10026da0 f i NpParticleFluid.obj
 0001:00025e50       ?setVelocities@?$NpParticleBaseTemplate@VPxParticleFluid@physx@@VNpParticleFluid@2@@physx@@UAEXIABV?$PxStrideIterator@$$CBI@2@ABV?$PxStrideIterator@$$CBVPxVec3@physx@@@2@@Z 10026e50 f i NpParticleFluid.obj
 0001:00025f90       ?setViscosity@ParticleSystem@Scb@physx@@QAEXM@Z 10026f90 f i NpParticleFluid.obj
 0001:00026040       ?unlock@NpParticleFluidReadData@physx@@UAEXXZ 10027040 f i NpParticleFluid.obj
 0001:00026050       ?createObject@NpParticleSystem@physx@@SAPAV12@AAPAEAAVPxDeserializationContext@2@@Z 10027050 f   NpParticleSystem.obj
 0001:000260a0       ??0NpParticleSystem@physx@@QAE@I_N@Z 100270a0 f   NpParticleSystem.obj
 0001:00026100       ??1NpParticleSystem@physx@@UAE@XZ 10027100 f   NpParticleSystem.obj
 0001:00026130       ?setParticleReadDataFlag@NpParticleSystem@physx@@UAEXW4Enum@PxParticleReadDataFlag@2@_N@Z 10027130 f   NpParticleSystem.obj
 0001:00026200       ??0?$NpActorTemplate@VPxParticleSystem@physx@@@physx@@QAE@GV?$PxFlags@W4Enum@PxBaseFlag@physx@@G@1@PBDPAX@Z 10027200 f i NpParticleSystem.obj
 0001:00026260       ??0?$NpParticleBaseTemplate@VPxParticleSystem@physx@@VNpParticleSystem@2@@physx@@QAE@GV?$PxFlags@W4Enum@PxBaseFlag@physx@@G@1@ABW4Enum@PxActorType@1@I_N@Z 10027260 f i NpParticleSystem.obj
 0001:000262d0       ??0?$NpParticleBaseTemplate@VPxParticleSystem@physx@@VNpParticleSystem@2@@physx@@QAE@V?$PxFlags@W4Enum@PxBaseFlag@physx@@G@1@@Z 100272d0 f i NpParticleSystem.obj
 0001:00026370       ??1?$NpActorTemplate@VPxParticleSystem@physx@@@physx@@UAE@XZ 10027370 f i NpParticleSystem.obj
 0001:000263a0       ??1?$NpParticleBaseTemplate@VPxParticleSystem@physx@@VNpParticleSystem@2@@physx@@UAE@XZ 100273a0 f i NpParticleSystem.obj
 0001:000263e0       ??1PxParticleSystem@physx@@MAE@XZ 100273e0 f i NpParticleSystem.obj
 0001:000263f0       ??_E?$NpActorTemplate@VPxParticleSystem@physx@@@physx@@UAEPAXI@Z 100273f0 f i NpParticleSystem.obj
 0001:000263f0       ??_G?$NpActorTemplate@VPxParticleSystem@physx@@@physx@@UAEPAXI@Z 100273f0 f i NpParticleSystem.obj
 0001:00026460       ??_G?$NpParticleBaseTemplate@VPxParticleSystem@physx@@VNpParticleSystem@2@@physx@@UAEPAXI@Z 10027460 f i NpParticleSystem.obj
 0001:00026460       ??_E?$NpParticleBaseTemplate@VPxParticleSystem@physx@@VNpParticleSystem@2@@physx@@UAEPAXI@Z 10027460 f i NpParticleSystem.obj
 0001:000264e0       ??_ENpParticleSystem@physx@@UAEPAXI@Z 100274e0 f i NpParticleSystem.obj
 0001:000264e0       ??_GNpParticleSystem@physx@@UAEPAXI@Z 100274e0 f i NpParticleSystem.obj
 0001:00026560       ??_GPxParticleSystem@physx@@MAEPAXI@Z 10027560 f i NpParticleSystem.obj
 0001:00026560       ??_EPxParticleSystem@physx@@MAEPAXI@Z 10027560 f i NpParticleSystem.obj
 0001:00026590       ?addForces@?$NpParticleBaseTemplate@VPxParticleSystem@physx@@VNpParticleSystem@2@@physx@@UAEXIABV?$PxStrideIterator@$$CBI@2@ABV?$PxStrideIterator@$$CBVPxVec3@physx@@@2@W4Enum@PxForceMode@2@@Z 10027590 f i NpParticleSystem.obj
 0001:00026720       ?checkAllocatedIndices@?$NpParticleBaseTemplate@VPxParticleSystem@physx@@VNpParticleSystem@2@@physx@@AAE_NIABV?$PxStrideIterator@$$CBI@2@@Z 10027720 f i NpParticleSystem.obj
 0001:00026860       ?checkFreeIndices@?$NpParticleBaseTemplate@VPxParticleSystem@physx@@VNpParticleSystem@2@@physx@@AAE_NIABV?$PxStrideIterator@$$CBI@2@@Z 10027860 f i NpParticleSystem.obj
 0001:00026bd0       ?createParticles@?$NpParticleBaseTemplate@VPxParticleSystem@physx@@VNpParticleSystem@2@@physx@@UAE_NABVPxParticleCreationData@2@@Z 10027bd0 f i NpParticleSystem.obj
 0001:00027000       ?exportExtraData@?$NpActorTemplate@VPxParticleSystem@physx@@@physx@@UAEXAAVPxSerializationContext@2@@Z 10028000 f i NpParticleSystem.obj
 0001:00027010       ?exportExtraData@NpParticleSystem@physx@@UAEXAAVPxSerializationContext@2@@Z 10028010 f i NpParticleSystem.obj
 0001:00027020       ?getActorFlags@?$NpActorTemplate@VPxParticleSystem@physx@@@physx@@UBE?AV?$PxFlags@W4Enum@PxActorFlag@physx@@E@2@XZ 10028020 f i NpParticleSystem.obj
 0001:000270a0       ?getAggregate@?$NpActorTemplate@VPxParticleSystem@physx@@@physx@@UBEPAVPxAggregate@2@XZ 100280a0 f i NpParticleSystem.obj
 0001:000270b0       ?getClientBehaviorFlags@?$NpActorTemplate@VPxParticleSystem@physx@@@physx@@UBE?AV?$PxFlags@W4Enum@PxActorClientBehaviorFlag@physx@@E@2@XZ 100280b0 f i NpParticleSystem.obj
 0001:00027130       ?getConcreteTypeName@PxParticleSystem@physx@@UBEPBDXZ 10028130 f i NpParticleSystem.obj
 0001:00027140       ?getContactOffset@?$NpParticleBaseTemplate@VPxParticleSystem@physx@@VNpParticleSystem@2@@physx@@UBEMXZ 10028140 f i NpParticleSystem.obj
 0001:00027190       ?getDamping@?$NpParticleBaseTemplate@VPxParticleSystem@physx@@VNpParticleSystem@2@@physx@@UBEMXZ 10028190 f i NpParticleSystem.obj
 0001:00027210       ?getDominanceGroup@?$NpActorTemplate@VPxParticleSystem@physx@@@physx@@UBEEXZ 10028210 f i NpParticleSystem.obj
 0001:000272a0       ?getDynamicFriction@?$NpParticleBaseTemplate@VPxParticleSystem@physx@@VNpParticleSystem@2@@physx@@UBEMXZ 100282a0 f i NpParticleSystem.obj
 0001:00027320       ?getExternalAcceleration@?$NpParticleBaseTemplate@VPxParticleSystem@physx@@VNpParticleSystem@2@@physx@@UBE?AVPxVec3@2@XZ 10028320 f i NpParticleSystem.obj
 0001:000273a0       ?getGridSize@?$NpParticleBaseTemplate@VPxParticleSystem@physx@@VNpParticleSystem@2@@physx@@UBEMXZ 100283a0 f i NpParticleSystem.obj
 0001:000273f0       ?getMaxMotionDistance@?$NpParticleBaseTemplate@VPxParticleSystem@physx@@VNpParticleSystem@2@@physx@@UBEMXZ 100283f0 f i NpParticleSystem.obj
 0001:00027440       ?getMaxParticles@?$NpParticleBaseTemplate@VPxParticleSystem@physx@@VNpParticleSystem@2@@physx@@UBEIXZ 10028440 f i NpParticleSystem.obj
 0001:00027490       ?getName@?$NpActorTemplate@VPxParticleSystem@physx@@@physx@@UBEPBDXZ 10028490 f i NpParticleSystem.obj
 0001:000274d0       ?getOwnerClient@?$NpActorTemplate@VPxParticleSystem@physx@@@physx@@UBEEXZ 100284d0 f i NpParticleSystem.obj
 0001:00027500       ?getParticleBaseFlags@?$NpParticleBaseTemplate@VPxParticleSystem@physx@@VNpParticleSystem@2@@physx@@UBE?AV?$PxFlags@W4Enum@PxParticleBaseFlag@physx@@G@2@XZ 10028500 f i NpParticleSystem.obj
 0001:00027570       ?getParticleMass@?$NpParticleBaseTemplate@VPxParticleSystem@physx@@VNpParticleSystem@2@@physx@@UBEMXZ 10028570 f i NpParticleSystem.obj
 0001:000275f0       ?getParticleReadDataFlags@?$NpParticleBaseTemplate@VPxParticleSystem@physx@@VNpParticleSystem@2@@physx@@UBE?AV?$PxFlags@W4Enum@PxParticleReadDataFlag@physx@@G@2@XZ 100285f0 f i NpParticleSystem.obj
 0001:00027640       ?getProjectionPlane@?$NpParticleBaseTemplate@VPxParticleSystem@physx@@VNpParticleSystem@2@@physx@@UBEXAAVPxVec3@2@AAM@Z 10028640 f i NpParticleSystem.obj
 0001:000276d0       ?getRestOffset@?$NpParticleBaseTemplate@VPxParticleSystem@physx@@VNpParticleSystem@2@@physx@@UBEMXZ 100286d0 f i NpParticleSystem.obj
 0001:00027720       ?getRestitution@?$NpParticleBaseTemplate@VPxParticleSystem@physx@@VNpParticleSystem@2@@physx@@UBEMXZ 10028720 f i NpParticleSystem.obj
 0001:000277a0       ?getScene@?$NpActorTemplate@VPxParticleSystem@physx@@@physx@@UBEPAVPxScene@2@XZ 100287a0 f i NpParticleSystem.obj
 0001:000277b0       ?getSimulationFilterData@?$NpParticleBaseTemplate@VPxParticleSystem@physx@@VNpParticleSystem@2@@physx@@UBE?AUPxFilterData@2@XZ 100287b0 f i NpParticleSystem.obj
 0001:00027820       ?getStaticFriction@?$NpParticleBaseTemplate@VPxParticleSystem@physx@@VNpParticleSystem@2@@physx@@UBEMXZ 10028820 f i NpParticleSystem.obj
 0001:000278a0       ?getType@?$NpParticleBaseTemplate@VPxParticleSystem@physx@@VNpParticleSystem@2@@physx@@UBE?AW4Enum@PxActorType@2@XZ 100288a0 f i NpParticleSystem.obj
 0001:000278b0       ?getType@NpParticleSystem@physx@@UBE?AW4Enum@PxActorType@2@XZ 100288b0 f i NpParticleSystem.obj
 0001:000278c0       ?getWorldBounds@?$NpParticleBaseTemplate@VPxParticleSystem@physx@@VNpParticleSystem@2@@physx@@UBE?AVPxBounds3@2@M@Z 100288c0 f i NpParticleSystem.obj
 0001:00027a70       ?isKindOf@PxParticleSystem@physx@@MBE_NPBD@Z 10028a70 f i NpParticleSystem.obj
 0001:00027b20       ?lockParticleReadData@?$NpParticleBaseTemplate@VPxParticleSystem@physx@@VNpParticleSystem@2@@physx@@UAEPAVPxParticleReadData@2@V?$PxFlags@W4Enum@PxDataAccessFlag@physx@@E@2@@Z 10028b20 f i NpParticleSystem.obj
 0001:00027b80       ?lockParticleReadData@?$NpParticleBaseTemplate@VPxParticleSystem@physx@@VNpParticleSystem@2@@physx@@UAEPAVPxParticleReadData@2@XZ 10028b80 f i NpParticleSystem.obj
 0001:00027bd0       ?release@?$NpActorTemplate@VPxParticleSystem@physx@@@physx@@UAEXXZ 10028bd0 f i NpParticleSystem.obj
 0001:00027be0       ?release@?$NpParticleBaseTemplate@VPxParticleSystem@physx@@VNpParticleSystem@2@@physx@@UAEXXZ 10028be0 f i NpParticleSystem.obj
 0001:00027c90       ?releaseParticles@?$NpParticleBaseTemplate@VPxParticleSystem@physx@@VNpParticleSystem@2@@physx@@UAEXIABV?$PxStrideIterator@$$CBI@2@@Z 10028c90 f i NpParticleSystem.obj
 0001:00027da0       ?releaseParticles@?$NpParticleBaseTemplate@VPxParticleSystem@physx@@VNpParticleSystem@2@@physx@@UAEXXZ 10028da0 f i NpParticleSystem.obj
 0001:00027df0       ?requires@NpParticleSystem@physx@@UAEXAAVPxProcessPxBaseCallback@2@@Z 10028df0 f i NpParticleSystem.obj
 0001:00027e00       ?resetFiltering@?$NpParticleBaseTemplate@VPxParticleSystem@physx@@VNpParticleSystem@2@@physx@@UAEXXZ 10028e00 f i NpParticleSystem.obj
 0001:00027e50       ?resolveReferences@?$NpActorTemplate@VPxParticleSystem@physx@@@physx@@UAEXAAVPxDeserializationContext@2@@Z 10028e50 f i NpParticleSystem.obj
 0001:00027e60       ?setActorFlag@?$NpActorTemplate@VPxParticleSystem@physx@@@physx@@UAEXW4Enum@PxActorFlag@2@_N@Z 10028e60 f i NpParticleSystem.obj
 0001:00027f30       ?setActorFlags@?$NpActorTemplate@VPxParticleSystem@physx@@@physx@@UAEXV?$PxFlags@W4Enum@PxActorFlag@physx@@E@2@@Z 10028f30 f i NpParticleSystem.obj
 0001:00027f90       ?setClientBehaviorFlags@?$NpActorTemplate@VPxParticleSystem@physx@@@physx@@UAEXV?$PxFlags@W4Enum@PxActorClientBehaviorFlag@physx@@E@2@@Z 10028f90 f i NpParticleSystem.obj
 0001:00027ff0       ?setContactOffset@?$NpParticleBaseTemplate@VPxParticleSystem@physx@@VNpParticleSystem@2@@physx@@UAEXM@Z 10028ff0 f i NpParticleSystem.obj
 0001:000280f0       ?setDamping@?$NpParticleBaseTemplate@VPxParticleSystem@physx@@VNpParticleSystem@2@@physx@@UAEXM@Z 100290f0 f i NpParticleSystem.obj
 0001:00028190       ?setDominanceGroup@?$NpActorTemplate@VPxParticleSystem@physx@@@physx@@UAEXE@Z 10029190 f i NpParticleSystem.obj
 0001:000281f0       ?setDynamicFriction@?$NpParticleBaseTemplate@VPxParticleSystem@physx@@VNpParticleSystem@2@@physx@@UAEXM@Z 100291f0 f i NpParticleSystem.obj
 0001:000282a0       ?setExternalAcceleration@?$NpParticleBaseTemplate@VPxParticleSystem@physx@@VNpParticleSystem@2@@physx@@UAEXABVPxVec3@2@@Z 100292a0 f i NpParticleSystem.obj
 0001:000282f0       ?setGridSize@?$NpParticleBaseTemplate@VPxParticleSystem@physx@@VNpParticleSystem@2@@physx@@UAEXM@Z 100292f0 f i NpParticleSystem.obj
 0001:000283f0       ?setMaxMotionDistance@?$NpParticleBaseTemplate@VPxParticleSystem@physx@@VNpParticleSystem@2@@physx@@UAEXM@Z 100293f0 f i NpParticleSystem.obj
 0001:000284f0       ?setName@?$NpActorTemplate@VPxParticleSystem@physx@@@physx@@UAEXPBD@Z 100294f0 f i NpParticleSystem.obj
 0001:00028570       ?setOwnerClient@?$NpActorTemplate@VPxParticleSystem@physx@@@physx@@UAEXE@Z 10029570 f i NpParticleSystem.obj
 0001:000285e0       ?setParticleBaseFlag@?$NpParticleBaseTemplate@VPxParticleSystem@physx@@VNpParticleSystem@2@@physx@@UAEXW4Enum@PxParticleBaseFlag@2@_N@Z 100295e0 f i NpParticleSystem.obj
 0001:000286f0       ?setParticleMass@?$NpParticleBaseTemplate@VPxParticleSystem@physx@@VNpParticleSystem@2@@physx@@UAEXM@Z 100296f0 f i NpParticleSystem.obj
 0001:00028790       ?setParticleReadDataFlag@?$NpParticleBaseTemplate@VPxParticleSystem@physx@@VNpParticleSystem@2@@physx@@UAEXW4Enum@PxParticleReadDataFlag@2@_N@Z 10029790 f i NpParticleSystem.obj
 0001:00028900       ?setPositions@?$NpParticleBaseTemplate@VPxParticleSystem@physx@@VNpParticleSystem@2@@physx@@UAEXIABV?$PxStrideIterator@$$CBI@2@ABV?$PxStrideIterator@$$CBVPxVec3@physx@@@2@@Z 10029900 f i NpParticleSystem.obj
 0001:00028a40       ?setProjectionPlane@?$NpParticleBaseTemplate@VPxParticleSystem@physx@@VNpParticleSystem@2@@physx@@UAEXABVPxVec3@2@M@Z 10029a40 f i NpParticleSystem.obj
 0001:00028b30       ?setRestOffset@?$NpParticleBaseTemplate@VPxParticleSystem@physx@@VNpParticleSystem@2@@physx@@UAEXM@Z 10029b30 f i NpParticleSystem.obj
 0001:00028ce0       ?setRestOffsets@?$NpParticleBaseTemplate@VPxParticleSystem@physx@@VNpParticleSystem@2@@physx@@UAEXIABV?$PxStrideIterator@$$CBI@2@ABV?$PxStrideIterator@$$CBM@2@@Z 10029ce0 f i NpParticleSystem.obj
 0001:00028eb0       ?setRestitution@?$NpParticleBaseTemplate@VPxParticleSystem@physx@@VNpParticleSystem@2@@physx@@UAEXM@Z 10029eb0 f i NpParticleSystem.obj
 0001:00028f60       ?setSimulationFilterData@?$NpParticleBaseTemplate@VPxParticleSystem@physx@@VNpParticleSystem@2@@physx@@UAEXABUPxFilterData@2@@Z 10029f60 f i NpParticleSystem.obj
 0001:00028fb0       ?setStaticFriction@?$NpParticleBaseTemplate@VPxParticleSystem@physx@@VNpParticleSystem@2@@physx@@UAEXM@Z 10029fb0 f i NpParticleSystem.obj
 0001:00029050       ?setVelocities@?$NpParticleBaseTemplate@VPxParticleSystem@physx@@VNpParticleSystem@2@@physx@@UAEXIABV?$PxStrideIterator@$$CBI@2@ABV?$PxStrideIterator@$$CBVPxVec3@physx@@@2@@Z 1002a050 f i NpParticleSystem.obj
 0001:00029190       ??0Offsets@Actor@Scb@physx@@QAE@XZ 1002a190 f   ScbActor.obj
 0001:00029200       ?addActor@Aggregate@Scb@physx@@QAEXAAVActor@23@@Z 1002a200 f   ScbAggregate.obj
 0001:00029380       ?removeActor@Aggregate@Scb@physx@@QAEXAAVActor@23@_N@Z 1002a380 f   ScbAggregate.obj
 0001:00029630       ??$allocArrayBuffer@PAVActor@Scb@physx@@@Scene@Scb@physx@@AAEPAPAVActor@12@AAV?$Array@PAVActor@Scb@physx@@VNamedAllocator@shdfnd@3@@shdfnd@2@IAAI@Z 1002a630 f i ScbAggregate.obj
 0001:00029670       ?recreate@?$Array@PAVActor@Scb@physx@@VNamedAllocator@shdfnd@3@@shdfnd@physx@@IAEXI@Z 1002a670 f i ScbAggregate.obj
 0001:00029730       ?resize@?$Array@PAVActor@Scb@physx@@VNamedAllocator@shdfnd@3@@shdfnd@physx@@QAEXIABQAVActor@Scb@3@@Z 1002a730 f i ScbAggregate.obj
 0001:00029790       ?destroy@Base@Scb@physx@@QAEXXZ 1002a790 f   ScbBase.obj
 0001:000297d0       ??0Cloth@Scb@physx@@QAE@ABVPxTransform@2@AAVClothFabricCore@Sc@2@PBUPxClothParticle@2@V?$PxFlags@W4Enum@PxClothFlag@physx@@G@2@@Z 1002a7d0 f   ScbCloth.obj
 0001:00029820       ??1Cloth@Scb@physx@@QAE@XZ 1002a820 f   ScbCloth.obj
 0001:00029830       ?syncState@Cloth@Scb@physx@@QAEXXZ 1002a830 f   ScbCloth.obj
 0001:00029880       ?syncState@Actor@Scb@physx@@IAEXXZ 1002a880 f i ScbCloth.obj
 0001:00029900       ?getBinaryMetaData@Base@Scb@physx@@SAXAAVPxOutputStream@3@@Z 1002a900 f   ScbMetaData.obj
 0001:00029a70       ?getBinaryMetaData@Shape@Scb@physx@@SAXAAVPxOutputStream@3@@Z 1002aa70 f   ScbMetaData.obj
 0001:00029b50       ?getBinaryMetaData@Actor@Scb@physx@@SAXAAVPxOutputStream@3@@Z 1002ab50 f   ScbMetaData.obj
 0001:00029bf0       ?getBinaryMetaData@RigidObject@Scb@physx@@SAXAAVPxOutputStream@3@@Z 1002abf0 f   ScbMetaData.obj
 0001:00029c90       ?getBinaryMetaData@Body@Scb@physx@@SAXAAVPxOutputStream@3@@Z 1002ac90 f   ScbMetaData.obj
 0001:00029f10       ?getBinaryMetaData@RigidStatic@Scb@physx@@SAXAAVPxOutputStream@3@@Z 1002af10 f   ScbMetaData.obj
 0001:00029ff0       ?getBinaryMetaData@Constraint@Scb@physx@@SAXAAVPxOutputStream@3@@Z 1002aff0 f   ScbMetaData.obj
 0001:0002a1a0       ?getBinaryMetaData@Articulation@Scb@physx@@SAXAAVPxOutputStream@3@@Z 1002b1a0 f   ScbMetaData.obj
 0001:0002a310       ?getBinaryMetaData@ArticulationJoint@Scb@physx@@SAXAAVPxOutputStream@3@@Z 1002b310 f   ScbMetaData.obj
 0001:0002a3f0       ?getBinaryMetaData@Aggregate@Scb@physx@@SAXAAVPxOutputStream@3@@Z 1002b3f0 f   ScbMetaData.obj
 0001:0002a5a0       ?getBinaryMetaData@Cloth@Scb@physx@@SAXAAVPxOutputStream@3@@Z 1002b5a0 f   ScbMetaData.obj
 0001:0002a680       ?getBinaryMetaData@ParticleSystem@Scb@physx@@SAXAAVPxOutputStream@3@@Z 1002b680 f   ScbMetaData.obj
 0001:0002ad50       ?initialize@ForceUpdates@ParticleSystem@Scb@physx@@QAEXI@Z 1002bd50 f   ScbParticleSystem.obj
 0001:0002ae20       ?destroy@ForceUpdates@ParticleSystem@Scb@physx@@QAEXXZ 1002be20 f   ScbParticleSystem.obj
 0001:0002ae90       ??0ParticleSystem@Scb@physx@@QAE@ABW4Enum@PxActorType@2@I_N@Z 1002be90 f   ScbParticleSystem.obj
 0001:0002af20       ??1ParticleSystem@Scb@physx@@QAE@XZ 1002bf20 f   ScbParticleSystem.obj
 0001:0002af50       ?createParticles@ParticleSystem@Scb@physx@@QAE_NABVPxParticleCreationData@3@@Z 1002bf50 f   ScbParticleSystem.obj
 0001:0002b020       ?releaseParticles@ParticleSystem@Scb@physx@@QAEXIABV?$PxStrideIterator@$$CBI@3@@Z 1002c020 f   ScbParticleSystem.obj
 0001:0002b190       ?releaseParticles@ParticleSystem@Scb@physx@@QAEXXZ 1002c190 f   ScbParticleSystem.obj
 0001:0002b2b0       ?setPositions@ParticleSystem@Scb@physx@@QAEXIABV?$PxStrideIterator@$$CBI@3@ABV?$PxStrideIterator@$$CBVPxVec3@physx@@@3@@Z 1002c2b0 f   ScbParticleSystem.obj
 0001:0002b380       ?setVelocities@ParticleSystem@Scb@physx@@QAEXIABV?$PxStrideIterator@$$CBI@3@ABV?$PxStrideIterator@$$CBVPxVec3@physx@@@3@@Z 1002c380 f   ScbParticleSystem.obj
 0001:0002b450       ?setRestOffsets@ParticleSystem@Scb@physx@@QAEXIABV?$PxStrideIterator@$$CBI@3@ABV?$PxStrideIterator@$$CBM@3@@Z 1002c450 f   ScbParticleSystem.obj
 0001:0002b520       ?addForces@ParticleSystem@Scb@physx@@QAEXIABV?$PxStrideIterator@$$CBI@3@ABV?$PxStrideIterator@$$CBVPxVec3@physx@@@3@W4Enum@PxForceMode@3@@Z 1002c520 f   ScbParticleSystem.obj
 0001:0002b6a0       ?submitForceUpdates@ParticleSystem@Scb@physx@@QAEXM@Z 1002c6a0 f   ScbParticleSystem.obj
 0001:0002b7c0       ?syncState@ParticleSystem@Scb@physx@@QAEXXZ 1002c7c0 f   ScbParticleSystem.obj
 0001:0002bcb0       ?add@ForceUpdates@ParticleSystem@Scb@physx@@QAEXIABVPxVec3@4@@Z 1002ccb0 f i ScbParticleSystem.obj
 0001:0002bd90       ?extendUninitialized@?$BitMapBase@VNonTrackingAllocator@shdfnd@physx@@@Cm@physx@@IAEXI@Z 1002cd90 f i ScbParticleSystem.obj
 0001:0002be20       ?scheduleForInsert@ObjectTracker@Scb@physx@@QAEXAAVBase@23@@Z 1002ce20 f   ScbScene.obj
 0001:0002bea0       ?scheduleForRemove@ObjectTracker@Scb@physx@@QAEXAAVBase@23@@Z 1002cea0 f   ScbScene.obj
 0001:0002bf10       ?scheduleForUpdate@ObjectTracker@Scb@physx@@QAEXAAVBase@23@@Z 1002cf10 f   ScbScene.obj
 0001:0002bf60       ?clear@ObjectTracker@Scb@physx@@QAEXXZ 1002cf60 f   ScbScene.obj
 0001:0002bfd0       ?insert@ObjectTracker@Scb@physx@@QAEXAAVBase@23@@Z 1002cfd0 f   ScbScene.obj
 0001:0002c000       ?remove@ObjectTracker@Scb@physx@@QAEXAAVBase@23@@Z 1002d000 f   ScbScene.obj
 0001:0002c020       ??0Scene@Scb@physx@@QAE@ABVPxSceneDesc@2@_K@Z 1002d020 f   ScbScene.obj
 0001:0002c480       ?release@Scene@Scb@physx@@QAEXXZ 1002d480 f   ScbScene.obj
 0001:0002c4e0       ?getPxScene@Scene@Scb@physx@@QAEPAVPxScene@3@XZ 1002d4e0 f   ScbScene.obj
 0001:0002c4f0       ?addActor@Scene@Scb@physx@@QAEXAAVRigidStatic@23@_NPAVPxBounds3@3@@Z 1002d4f0 f   ScbScene.obj
 0001:0002c680       ?removeActor@Scene@Scb@physx@@QAEXAAVRigidStatic@23@_N1@Z 1002d680 f   ScbScene.obj
 0001:0002c810       ?addActor@Scene@Scb@physx@@QAEXAAVBody@23@_NPAVPxBounds3@3@@Z 1002d810 f   ScbScene.obj
 0001:0002cac0       ?removeActor@Scene@Scb@physx@@QAEXAAVBody@23@_N1@Z 1002dac0 f   ScbScene.obj
 0001:0002cd30       ?addConstraint@Scene@Scb@physx@@QAEXAAVConstraint@23@@Z 1002dd30 f   ScbScene.obj
 0001:0002cd50       ?removeConstraint@Scene@Scb@physx@@QAEXAAVConstraint@23@@Z 1002dd50 f   ScbScene.obj
 0001:0002ce50       ?addArticulation@Scene@Scb@physx@@QAEXAAVArticulation@23@@Z 1002de50 f   ScbScene.obj
 0001:0002ce90       ?removeArticulation@Scene@Scb@physx@@QAEXAAVArticulation@23@@Z 1002de90 f   ScbScene.obj
 0001:0002ceb0       ?addArticulationJoint@Scene@Scb@physx@@QAEXAAVArticulationJoint@23@@Z 1002deb0 f   ScbScene.obj
 0001:0002ced0       ?removeArticulationJoint@Scene@Scb@physx@@QAEXAAVArticulationJoint@23@@Z 1002ded0 f   ScbScene.obj
 0001:0002cef0       ?addAggregate@Scene@Scb@physx@@QAEXAAVAggregate@23@@Z 1002def0 f   ScbScene.obj
 0001:0002cf50       ?removeAggregate@Scene@Scb@physx@@QAEXAAVAggregate@23@@Z 1002df50 f   ScbScene.obj
 0001:0002cfa0       ?addParticleSystem@Scene@Scb@physx@@QAEXAAVParticleSystem@23@@Z 1002dfa0 f   ScbScene.obj
 0001:0002cfc0       ?removeParticleSystem@Scene@Scb@physx@@QAEXAAVParticleSystem@23@_N@Z 1002dfc0 f   ScbScene.obj
 0001:0002d0d0       ?addCloth@Scene@Scb@physx@@QAEXAAVCloth@23@@Z 1002e0d0 f   ScbScene.obj
 0001:0002d1f0       ?removeCloth@Scene@Scb@physx@@QAEXAAVCloth@23@@Z 1002e1f0 f   ScbScene.obj
 0001:0002d2e0       ?addMaterial@Scene@Scb@physx@@QAEXABVMaterialCore@Sc@3@@Z 1002e2e0 f   ScbScene.obj
 0001:0002d3f0       ?updateMaterial@Scene@Scb@physx@@QAEXABVMaterialCore@Sc@3@@Z 1002e3f0 f   ScbScene.obj
 0001:0002d500       ?removeMaterial@Scene@Scb@physx@@QAEXABVMaterialCore@Sc@3@@Z 1002e500 f   ScbScene.obj
 0001:0002d620       ?updateLowLevelMaterial@Scene@Scb@physx@@QAEXPAPAVNpMaterial@3@@Z 1002e620 f   ScbScene.obj
 0001:0002d780       ?getBroadPhaseType@Scene@Scb@physx@@QBE?AW4Enum@PxBroadPhaseType@3@XZ 1002e780 f   ScbScene.obj
 0001:0002d790       ?getBroadPhaseCaps@Scene@Scb@physx@@QBE_NAAUPxBroadPhaseCaps@3@@Z 1002e790 f   ScbScene.obj
 0001:0002d7a0       ?getNbBroadPhaseRegions@Scene@Scb@physx@@QBEIXZ 1002e7a0 f   ScbScene.obj
 0001:0002d7b0       ?getBroadPhaseRegions@Scene@Scb@physx@@QBEIPAUPxBroadPhaseRegionInfo@3@II@Z 1002e7b0 f   ScbScene.obj
 0001:0002d7c0       ?addBroadPhaseRegion@Scene@Scb@physx@@QAEIABUPxBroadPhaseRegion@3@_N@Z 1002e7c0 f   ScbScene.obj
 0001:0002d800       ?removeBroadPhaseRegion@Scene@Scb@physx@@QAE_NI@Z 1002e800 f   ScbScene.obj
 0001:0002d840       ?shiftOrigin@Scene@Scb@physx@@QAEXABVPxVec3@3@@Z 1002e840 f   ScbScene.obj
 0001:0002d910       ?syncWriteThroughProperties@Scene@Scb@physx@@QAEXXZ 1002e910 f   ScbScene.obj
 0001:0002dc30       ?syncEntireScene@Scene@Scb@physx@@QAEXXZ 1002ec30 f   ScbScene.obj
 0001:0002e2e0       ?processPendingRemove@Scene@Scb@physx@@QAEXXZ 1002f2e0 f   ScbScene.obj
 0001:0002e3f0       ?scheduleForUpdate@Scene@Scb@physx@@QAEXAAVBase@23@@Z 1002f3f0 f   ScbScene.obj
 0001:0002e4d0       ?getStream@Scene@Scb@physx@@QAEPAEW4Enum@ScbType@3@@Z 1002f4d0 f   ScbScene.obj
 0001:0002e640       ?syncState@Scene@Scb@physx@@AAEXXZ 1002f640 f   ScbScene.obj
 0001:0002e7f0       ?preSimulateUpdateAppThread@Scene@Scb@physx@@QAEXM@Z 1002f7f0 f   ScbScene.obj
 0001:0002e840       ?switchRigidToNoSim@Scene@Scb@physx@@QAEXAAVRigidObject@23@_N@Z 1002f840 f   ScbScene.obj
 0001:0002e930       ?switchRigidFromNoSim@Scene@Scb@physx@@QAEXAAVRigidObject@23@_N@Z 1002f930 f   ScbScene.obj
 0001:0002f4e0       ??$add@VArticulation@Scb@physx@@@Scene@Scb@physx@@AAEXAAVArticulation@12@AAVObjectTracker@12@PAVPxBounds3@2@@Z 100304e0 f i ScbScene.obj
 0001:0002f580       ??$add@VArticulationJoint@Scb@physx@@@Scene@Scb@physx@@AAEXAAVArticulationJoint@12@AAVObjectTracker@12@PAVPxBounds3@2@@Z 10030580 f i ScbScene.obj
 0001:0002f640       ??$add@VBody@Scb@physx@@@Scene@Scb@physx@@AAEXAAVBody@12@AAVObjectTracker@12@PAVPxBounds3@2@@Z 10030640 f i ScbScene.obj
 0001:0002f900       ??$add@VConstraint@Scb@physx@@@Scene@Scb@physx@@AAEXAAVConstraint@12@AAVObjectTracker@12@PAVPxBounds3@2@@Z 10030900 f i ScbScene.obj
 0001:0002f9f0       ??$add@VParticleSystem@Scb@physx@@@Scene@Scb@physx@@AAEXAAVParticleSystem@12@AAVObjectTracker@12@PAVPxBounds3@2@@Z 100309f0 f i ScbScene.obj
 0001:0002fa80       ??$add@VRigidStatic@Scb@physx@@@Scene@Scb@physx@@AAEXAAVRigidStatic@12@AAVObjectTracker@12@PAVPxBounds3@2@@Z 10030a80 f i ScbScene.obj
 0001:0002fd40       ??$addRigidNoSim@$00VBody@Scb@physx@@@Scene@Scb@physx@@AAEXAAVBody@12@AAVObjectTracker@12@@Z 10030d40 f i ScbScene.obj
 0001:0002ffe0       ??$addRigidNoSim@$0A@VRigidStatic@Scb@physx@@@Scene@Scb@physx@@AAEXAAVRigidStatic@12@AAVObjectTracker@12@@Z 10030fe0 f i ScbScene.obj
 0001:00030280       ??$partition@PAX$$CBU?$Less@PAX@shdfnd@physx@@@internal@shdfnd@physx@@YAHPAPAXHHABU?$Less@PAX@12@@Z 10031280 f i ScbScene.obj
 0001:00030330       ??$pointerOffset@PAVShape@Scb@physx@@@shdfnd@physx@@YAPAVShape@Scb@1@PAXH@Z 10031330 f i ScbScene.obj
 0001:00030340       ??$processRemoves@VArticulation@Scb@physx@@$00$0A@@Scene@Scb@physx@@AAEXAAVObjectTracker@12@@Z 10031340 f i ScbScene.obj
 0001:00030410       ??$processRemoves@VArticulationJoint@Scb@physx@@$0A@$0A@@Scene@Scb@physx@@AAEXAAVObjectTracker@12@@Z 10031410 f i ScbScene.obj
 0001:000304c0       ??$processRemoves@VBody@Scb@physx@@$00$00@Scene@Scb@physx@@AAEXAAVObjectTracker@12@@Z 100314c0 f i ScbScene.obj
 0001:000308c0       ??$processRemoves@VCloth@Scb@physx@@$0A@$0A@@Scene@Scb@physx@@AAEXAAVObjectTracker@12@@Z 100318c0 f i ScbScene.obj
 0001:00030970       ??$processRemoves@VConstraint@Scb@physx@@$00$0A@@Scene@Scb@physx@@AAEXAAVObjectTracker@12@@Z 10031970 f i ScbScene.obj
 0001:00030a30       ??$processRemoves@VParticleSystem@Scb@physx@@$0A@$0A@@Scene@Scb@physx@@AAEXAAVObjectTracker@12@@Z 10031a30 f i ScbScene.obj
 0001:00030af0       ??$processRemoves@VRigidStatic@Scb@physx@@$0A@$00@Scene@Scb@physx@@AAEXAAVObjectTracker@12@@Z 10031af0 f i ScbScene.obj
 0001:00030e60       ??$processShapeRemoves@VBody@Scb@physx@@@Scene@Scb@physx@@AAEXAAVObjectTracker@12@@Z 10031e60 f i ScbScene.obj
 0001:00031060       ??$processShapeRemoves@VRigidStatic@Scb@physx@@@Scene@Scb@physx@@AAEXAAVObjectTracker@12@@Z 10032060 f i ScbScene.obj
 0001:00031260       ??$processSimUpdates@VArticulation@Scb@physx@@VArticulationCore@Sc@3@@Scene@Scb@physx@@AAEXPBQAVArticulationCore@Sc@2@I@Z 10032260 f i ScbScene.obj
 0001:00031300       ??$processSimUpdates@VBody@Scb@physx@@VBodyCore@Sc@3@@Scene@Scb@physx@@AAEXPBQAVBodyCore@Sc@2@I@Z 10032300 f i ScbScene.obj
 0001:000313b0       ??$processSimUpdates@VConstraint@Scb@physx@@VConstraintCore@Sc@3@@Scene@Scb@physx@@AAEXPBQAVConstraintCore@Sc@2@I@Z 100323b0 f i ScbScene.obj
 0001:00031450       ??$processUserUpdates@VArticulation@Scb@physx@@@Scene@Scb@physx@@AAEXAAVObjectTracker@12@@Z 10032450 f i ScbScene.obj
 0001:00031540       ??$processUserUpdates@VArticulationJoint@Scb@physx@@@Scene@Scb@physx@@AAEXAAVObjectTracker@12@@Z 10032540 f i ScbScene.obj
 0001:00031650       ??$processUserUpdates@VBody@Scb@physx@@@Scene@Scb@physx@@AAEXAAVObjectTracker@12@@Z 10032650 f i ScbScene.obj
 0001:000319e0       ??$processUserUpdates@VConstraint@Scb@physx@@@Scene@Scb@physx@@AAEXAAVObjectTracker@12@@Z 100329e0 f i ScbScene.obj
 0001:00031b30       ??$processUserUpdates@VRigidStatic@Scb@physx@@@Scene@Scb@physx@@AAEXAAVObjectTracker@12@@Z 10032b30 f i ScbScene.obj
 0001:00031ec0       ??$remove@VArticulation@Scb@physx@@@Scene@Scb@physx@@AAEXAAVArticulation@12@AAVObjectTracker@12@_N@Z 10032ec0 f i ScbScene.obj
 0001:00031f50       ??$remove@VArticulationJoint@Scb@physx@@@Scene@Scb@physx@@AAEXAAVArticulationJoint@12@AAVObjectTracker@12@_N@Z 10032f50 f i ScbScene.obj
 0001:00031fe0       ??$remove@VBody@Scb@physx@@@Scene@Scb@physx@@AAEXAAVBody@12@AAVObjectTracker@12@_N@Z 10032fe0 f i ScbScene.obj
 0001:00032330       ??$remove@VRigidStatic@Scb@physx@@@Scene@Scb@physx@@AAEXAAVRigidStatic@12@AAVObjectTracker@12@_N@Z 10033330 f i ScbScene.obj
 0001:00032680       ??$removeRigidNoSim@$00VBody@Scb@physx@@@Scene@Scb@physx@@AAEXAAVBody@12@AAVObjectTracker@12@@Z 10033680 f i ScbScene.obj
 0001:00032960       ??$removeRigidNoSim@$0A@VRigidStatic@Scb@physx@@@Scene@Scb@physx@@AAEXAAVRigidStatic@12@AAVObjectTracker@12@@Z 10033960 f i ScbScene.obj
 0001:00032c40       ??$smallSort@PAX$$CBU?$Less@PAX@shdfnd@physx@@@internal@shdfnd@physx@@YAXPAPAXHHABU?$Less@PAX@12@@Z 10033c40 f i ScbScene.obj
 0001:00032ce0       ??$sort@PAXU?$Less@PAX@shdfnd@physx@@VNamedAllocator@23@@shdfnd@physx@@YAXPAPAXIABU?$Less@PAX@01@ABVNamedAllocator@01@I@Z 10033ce0 f i ScbScene.obj
 0001:00032f70       ??0?$InlineArray@PAVShape@Scb@physx@@$03VNamedAllocator@shdfnd@3@@shdfnd@physx@@QAE@ABVNamedAllocator@12@@Z 10033f70 f i ScbScene.obj
 0001:00033020       ??0?$InlineArray@PBVShapeCore@Sc@physx@@$0EA@VNamedAllocator@shdfnd@3@@shdfnd@physx@@QAE@ABVNamedAllocator@12@@Z 10034020 f i ScbScene.obj
 0001:00033110       ??0?$InlineArray@URemovedShape@Scb@physx@@$03VNamedAllocator@shdfnd@3@@shdfnd@physx@@QAE@ABVNamedAllocator@12@@Z 10034110 f i ScbScene.obj
 0001:000331d0       ??0?$MutexT@V?$ReflectionAllocator@VMutexImpl@shdfnd@physx@@@shdfnd@physx@@@shdfnd@physx@@QAE@ABV?$ReflectionAllocator@VMutexImpl@shdfnd@physx@@@12@@Z 100341d0 f i ScbScene.obj
 0001:00033260       ??0AggregateBuffer@Scb@physx@@QAE@XZ 10034260 f i ScbScene.obj
 0001:00033290       ??0BodyBuffer@Scb@physx@@QAE@XZ 10034290 f i ScbScene.obj
 0001:00033380       ??0FlushPool@Cm@physx@@QAE@I@Z 10034380 f i ScbScene.obj
 0001:00033490       ??0ParticleSystemBuffer@Scb@physx@@QAE@XZ 10034490 f i ScbScene.obj
 0001:000334d0       ??0PxTransform@physx@@QAE@XZ 100344d0 f i ScbScene.obj
 0001:000334e0       ??0RigidStaticBuffer@Scb@physx@@QAE@XZ 100344e0 f i ScbScene.obj
 0001:00033560       ??0SceneBuffer@Scb@physx@@QAE@XZ 10034560 f i ScbScene.obj
 0001:00033660       ??0ShapeBuffer@Scb@physx@@QAE@XZ 10034660 f i ScbScene.obj
 0001:000336b0       ??1?$Array@PAVInteraction@Sc@physx@@VNamedAllocator@shdfnd@3@@shdfnd@physx@@QAE@XZ 100346b0 f i ScbScene.obj
 0001:000336e0       ??1PxBaseTask@physx@@UAE@XZ 100346e0 f i ScbScene.obj
 0001:000336f0       ??1PxLightCpuTask@physx@@UAE@XZ 100346f0 f i ScbScene.obj
 0001:00033710       ??_GPxBaseTask@physx@@UAEPAXI@Z 10034710 f i ScbScene.obj
 0001:00033710       ??_EPxBaseTask@physx@@UAEPAXI@Z 10034710 f i ScbScene.obj
 0001:00033740       ?allocateNotThreadSafe@FlushPool@Cm@physx@@QAEPAXII@Z 10034740 f i ScbScene.obj
 0001:00033860       ?clear@?$HashBase@PAVBase@Scb@physx@@PAV123@U?$Hash@PAVBase@Scb@physx@@@shdfnd@3@UGetKey@?$HashSetBase@PAVBase@Scb@physx@@U?$Hash@PAVBase@Scb@physx@@@shdfnd@3@VNonTrackingAllocator@53@$00@internal@53@VNonTrackingAllocator@53@$00@internal@shdfnd@physx@@QAEXXZ 10034860 f i ScbScene.obj
 0001:000338e0       ?clearNotThreadSafe@FlushPool@Cm@physx@@QAEXI@Z 100348e0 f i ScbScene.obj
 0001:00033940       ?create@?$HashBase@PAVBase@Scb@physx@@PAV123@U?$Hash@PAVBase@Scb@physx@@@shdfnd@3@UGetKey@?$HashSetBase@PAVBase@Scb@physx@@U?$Hash@PAVBase@Scb@physx@@@shdfnd@3@VNonTrackingAllocator@53@$00@internal@53@VNonTrackingAllocator@53@$00@internal@shdfnd@physx@@QAEPAPAVBase@Scb@4@ABQAV564@AA_N@Z 10034940 f i ScbScene.obj
 0001:00033ac0       ?createInstance@?$PvdFns@VArticulation@Scb@physx@@@@SAXAAVScene@Scb@physx@@AAVScbScenePvdClient@Vd@4@PAVArticulation@34@@Z 10034ac0 f i ScbScene.obj
 0001:00033b60       ?createInstance@?$PvdFns@VArticulationJoint@Scb@physx@@@@SAXAAVScene@Scb@physx@@AAVScbScenePvdClient@Vd@4@PAVArticulationJoint@34@@Z 10034b60 f i ScbScene.obj
 0001:00033c00       ?createInstance@?$PvdFns@VBody@Scb@physx@@@@SAXAAVScene@Scb@physx@@AAVScbScenePvdClient@Vd@4@PAVBody@34@@Z 10034c00 f i ScbScene.obj
 0001:00033ca0       ?createInstance@?$PvdFns@VConstraint@Scb@physx@@@@SAXAAVScene@Scb@physx@@AAVScbScenePvdClient@Vd@4@PAVConstraint@34@@Z 10034ca0 f i ScbScene.obj
 0001:00033d40       ?createInstance@?$PvdFns@VParticleSystem@Scb@physx@@@@SAXAAVScene@Scb@physx@@AAVScbScenePvdClient@Vd@4@PAVParticleSystem@34@@Z 10034d40 f i ScbScene.obj
 0001:00033de0       ?createInstance@?$PvdFns@VRigidStatic@Scb@physx@@@@SAXAAVScene@Scb@physx@@AAVScbScenePvdClient@Vd@4@PAVRigidStatic@34@@Z 10034de0 f i ScbScene.obj
 0001:00033e80       ?erase@?$HashBase@PAVBase@Scb@physx@@PAV123@U?$Hash@PAVBase@Scb@physx@@@shdfnd@3@UGetKey@?$HashSetBase@PAVBase@Scb@physx@@U?$Hash@PAVBase@Scb@physx@@@shdfnd@3@VNonTrackingAllocator@53@$00@internal@53@VNonTrackingAllocator@53@$00@internal@shdfnd@physx@@QAE_NABQAVBase@Scb@4@@Z 10034e80 f i ScbScene.obj
 0001:00033f60       ?growAndPushBack@?$Array@PAEVNamedAllocator@shdfnd@physx@@@shdfnd@physx@@IAEAAPAEABQAE@Z 10034f60 f i ScbScene.obj
 0001:00034050       ?growAndPushBack@?$Array@PAXVNamedAllocator@shdfnd@physx@@@shdfnd@physx@@IAEAAPAXABQAX@Z 10035050 f i ScbScene.obj
 0001:00034140       ?growAndPushBack@?$Array@V?$PxFlags@W4Enum@PxClientBehaviorFlag@physx@@E@physx@@VNamedAllocator@shdfnd@2@@shdfnd@physx@@IAEAAV?$PxFlags@W4Enum@PxClientBehaviorFlag@physx@@E@3@ABV43@@Z 10035140 f i ScbScene.obj
 0001:00034220       ?growAndPushBack@?$Array@VMaterialEvent@Scb@physx@@VNamedAllocator@shdfnd@3@@shdfnd@physx@@IAEAAVMaterialEvent@Scb@3@ABV453@@Z 10035220 f i ScbScene.obj
 0001:00034320       ?putToSleepInternal@Body@Scb@physx@@QAEXXZ 10035320 f i ScbScene.obj
 0001:00034460       ?recreate@?$Array@PAVShape@Scb@physx@@V?$InlineAllocator@$0BA@VNamedAllocator@shdfnd@physx@@@shdfnd@3@@shdfnd@physx@@IAEXI@Z 10035460 f i ScbScene.obj
 0001:00034560       ?recreate@?$Array@URemovedShape@Scb@physx@@V?$InlineAllocator@$0CA@VNamedAllocator@shdfnd@physx@@@shdfnd@3@@shdfnd@physx@@IAEXI@Z 10035560 f i ScbScene.obj
 0001:00034670       ?recreate@?$Array@VMaterialEvent@Scb@physx@@VNamedAllocator@shdfnd@3@@shdfnd@physx@@IAEXI@Z 10035670 f i ScbScene.obj
 0001:00034730       ?releaseInstance@?$PvdFns@VArticulation@Scb@physx@@@@SAXAAVScene@Scb@physx@@AAVScbScenePvdClient@Vd@4@PAVArticulation@34@@Z 10035730 f i ScbScene.obj
 0001:000347d0       ?releaseInstance@?$PvdFns@VArticulationJoint@Scb@physx@@@@SAXAAVScene@Scb@physx@@AAVScbScenePvdClient@Vd@4@PAVArticulationJoint@34@@Z 100357d0 f i ScbScene.obj
 0001:00034870       ?releaseInstance@?$PvdFns@VBody@Scb@physx@@@@SAXAAVScene@Scb@physx@@AAVScbScenePvdClient@Vd@4@PAVBody@34@@Z 10035870 f i ScbScene.obj
 0001:00034910       ?releaseInstance@?$PvdFns@VCloth@Scb@physx@@@@SAXAAVScene@Scb@physx@@AAVScbScenePvdClient@Vd@4@PAVCloth@34@@Z 10035910 f i ScbScene.obj
 0001:000349b0       ?releaseInstance@?$PvdFns@VConstraint@Scb@physx@@@@SAXAAVScene@Scb@physx@@AAVScbScenePvdClient@Vd@4@PAVConstraint@34@@Z 100359b0 f i ScbScene.obj
 0001:00034a50       ?releaseInstance@?$PvdFns@VParticleSystem@Scb@physx@@@@SAXAAVScene@Scb@physx@@AAVScbScenePvdClient@Vd@4@PAVParticleSystem@34@@Z 10035a50 f i ScbScene.obj
 0001:00034af0       ?releaseInstance@?$PvdFns@VRigidStatic@Scb@physx@@@@SAXAAVScene@Scb@physx@@AAVScbScenePvdClient@Vd@4@PAVRigidStatic@34@@Z 10035af0 f i ScbScene.obj
 0001:00034b90       ?replaceWithLast@?$HashBase@PAVBase@Scb@physx@@PAV123@U?$Hash@PAVBase@Scb@physx@@@shdfnd@3@UGetKey@?$HashSetBase@PAVBase@Scb@physx@@U?$Hash@PAVBase@Scb@physx@@@shdfnd@3@VNonTrackingAllocator@53@$00@internal@53@VNonTrackingAllocator@53@$00@internal@shdfnd@physx@@AAEXI@Z 10035b90 f i ScbScene.obj
 0001:00034c40       ?reserveInternal@?$HashBase@PAVBase@Scb@physx@@PAV123@U?$Hash@PAVBase@Scb@physx@@@shdfnd@3@UGetKey@?$HashSetBase@PAVBase@Scb@physx@@U?$Hash@PAVBase@Scb@physx@@@shdfnd@3@VNonTrackingAllocator@53@$00@internal@53@VNonTrackingAllocator@53@$00@internal@shdfnd@physx@@AAEXI@Z 10035c40 f i ScbScene.obj
 0001:00034e30       ?resize@?$Array@PAVShape@Scb@physx@@V?$InlineAllocator@$0BA@VNamedAllocator@shdfnd@physx@@@shdfnd@3@@shdfnd@physx@@QAEXIABQAVShape@Scb@3@@Z 10035e30 f i ScbScene.obj
 0001:00034e90       ?resize@?$Array@URemovedShape@Scb@physx@@V?$InlineAllocator@$0CA@VNamedAllocator@shdfnd@physx@@@shdfnd@3@@shdfnd@physx@@QAEXIABURemovedShape@Scb@3@@Z 10035e90 f i ScbScene.obj
 0001:00034f00       ?resize@?$Array@VMaterialEvent@Scb@physx@@VNamedAllocator@shdfnd@3@@shdfnd@physx@@QAEXIABVMaterialEvent@Scb@3@@Z 10035f00 f i ScbScene.obj
 0001:00034f70       ?resize@PxsMaterialManager@physx@@QAEXI@Z 10035f70 f i ScbScene.obj
 0001:000350c0       ?setAngularVelocity@Body@Scb@physx@@QAEXABVPxVec3@3@@Z 100360c0 f i ScbScene.obj
 0001:00035170       ?setLinearVelocity@Body@Scb@physx@@QAEXABVPxVec3@3@@Z 10036170 f i ScbScene.obj
 0001:00035220       ?syncCollisionWriteThroughState@Body@Scb@physx@@QAEXXZ 10036220 f i ScbScene.obj
 0001:000355b0       ?syncDominancePairs@SceneBuffer@Scb@physx@@QAEXAAVScene@Sc@3@@Z 100365b0 f i ScbScene.obj
 0001:000356b0       ?syncState@Aggregate@Scb@physx@@QAEXAAVScene@23@@Z 100366b0 f i ScbScene.obj
 0001:000358d0       ?syncState@Articulation@Scb@physx@@QAEXXZ 100368d0 f i ScbScene.obj
 0001:00035a70       ?syncState@ArticulationJoint@Scb@physx@@QAEXXZ 10036a70 f i ScbScene.obj
 0001:00035ce0       ?syncState@Body@Scb@physx@@QAEXXZ 10036ce0 f i ScbScene.obj
 0001:00036650       ?syncState@Constraint@Scb@physx@@QAEXXZ 10037650 f i ScbScene.obj
 0001:00036770       ?syncState@RigidObject@Scb@physx@@QAEXXZ 10037770 f i ScbScene.obj
 0001:00036a40       ?syncState@RigidStatic@Scb@physx@@QAEXXZ 10037a40 f i ScbScene.obj
 0001:00036b10       ?updateInstance@?$PvdFns@VArticulation@Scb@physx@@@@SAXAAVScene@Scb@physx@@AAVScbScenePvdClient@Vd@4@PAVArticulation@34@@Z 10037b10 f i ScbScene.obj
 0001:00036be0       ?updateInstance@?$PvdFns@VArticulationJoint@Scb@physx@@@@SAXAAVScene@Scb@physx@@AAVScbScenePvdClient@Vd@4@PAVArticulationJoint@34@@Z 10037be0 f i ScbScene.obj
 0001:00036cb0       ?updateInstance@?$PvdFns@VBody@Scb@physx@@@@SAXAAVScene@Scb@physx@@AAVScbScenePvdClient@Vd@4@PAVBody@34@@Z 10037cb0 f i ScbScene.obj
 0001:00036d80       ?updateInstance@?$PvdFns@VConstraint@Scb@physx@@@@SAXAAVScene@Scb@physx@@AAVScbScenePvdClient@Vd@4@PAVConstraint@34@@Z 10037d80 f i ScbScene.obj
 0001:00036e50       ?updateInstance@?$PvdFns@VRigidStatic@Scb@physx@@@@SAXAAVScene@Scb@physx@@AAVScbScenePvdClient@Vd@4@PAVRigidStatic@34@@Z 10037e50 f i ScbScene.obj
 0001:00036f20       ??0ScbScenePvdClient@Vd@physx@@QAE@AAVScene@Scb@2@@Z 10037f20 f   ScbScenePvdClient.obj
 0001:00036f90       ??1ScbScenePvdClient@Vd@physx@@UAE@XZ 10037f90 f   ScbScenePvdClient.obj
 0001:00036fe0       ?setScenePvdFlag@ScbScenePvdClient@Vd@physx@@UAEXW4Enum@PxPvdSceneFlag@3@_N@Z 10037fe0 f   ScbScenePvdClient.obj
 0001:00037000       ?updateCamera@ScbScenePvdClient@Vd@physx@@UAEXPBDABVPxVec3@3@11@Z 10038000 f   ScbScenePvdClient.obj
 0001:00037020       ?drawPoints@ScbScenePvdClient@Vd@physx@@UAEXPBUPvdDebugPoint@pvdsdk@3@I@Z 10038020 f   ScbScenePvdClient.obj
 0001:00037040       ?drawLines@ScbScenePvdClient@Vd@physx@@UAEXPBUPvdDebugLine@pvdsdk@3@I@Z 10038040 f   ScbScenePvdClient.obj
 0001:00037060       ?drawTriangles@ScbScenePvdClient@Vd@physx@@UAEXPBUPvdDebugTriangle@pvdsdk@3@I@Z 10038060 f   ScbScenePvdClient.obj
 0001:00037080       ?drawText@ScbScenePvdClient@Vd@physx@@UAEXABUPvdDebugText@pvdsdk@3@@Z 10038080 f   ScbScenePvdClient.obj
 0001:000370a0       ?onPvdConnected@ScbScenePvdClient@Vd@physx@@UAEXXZ 100380a0 f   ScbScenePvdClient.obj
 0001:00037150       ?onPvdDisconnected@ScbScenePvdClient@Vd@physx@@UAEXXZ 10038150 f   ScbScenePvdClient.obj
 0001:000371a0       ?frameStart@ScbScenePvdClient@Vd@physx@@QAEXM@Z 100381a0 f   ScbScenePvdClient.obj
 0001:00037250       ?frameEnd@ScbScenePvdClient@Vd@physx@@QAEXXZ 10038250 f   ScbScenePvdClient.obj
 0001:00037540       ?updatePvdProperties@ScbScenePvdClient@Vd@physx@@QAEXXZ 10038540 f   ScbScenePvdClient.obj
 0001:00037560       ?releasePvdInstance@ScbScenePvdClient@Vd@physx@@QAEXXZ 10038560 f   ScbScenePvdClient.obj
 0001:000375a0       ?createPvdInstance@ScbScenePvdClient@Vd@physx@@QAEXPBVPxActor@3@@Z 100385a0 f   ScbScenePvdClient.obj
 0001:00037600       ?updatePvdProperties@ScbScenePvdClient@Vd@physx@@QAEXPBVPxActor@3@@Z 10038600 f   ScbScenePvdClient.obj
 0001:00037640       ?releasePvdInstance@ScbScenePvdClient@Vd@physx@@QAEXPBVPxActor@3@@Z 10038640 f   ScbScenePvdClient.obj
 0001:000376a0       ?createPvdInstance@ScbScenePvdClient@Vd@physx@@QAEXPBVActor@Scb@3@@Z 100386a0 f   ScbScenePvdClient.obj
 0001:00037750       ?updatePvdProperties@ScbScenePvdClient@Vd@physx@@QAEXPBVActor@Scb@3@@Z 10038750 f   ScbScenePvdClient.obj
 0001:000377e0       ?releasePvdInstance@ScbScenePvdClient@Vd@physx@@QAEXPBVActor@Scb@3@@Z 100387e0 f   ScbScenePvdClient.obj
 0001:00037890       ?createPvdInstance@ScbScenePvdClient@Vd@physx@@QAEXPBVBody@Scb@3@@Z 10038890 f   ScbScenePvdClient.obj
 0001:00037910       ?updatePvdProperties@ScbScenePvdClient@Vd@physx@@QAEXPBVBody@Scb@3@@Z 10038910 f   ScbScenePvdClient.obj
 0001:00037970       ?updateKinematicTarget@ScbScenePvdClient@Vd@physx@@QAEXPBVBody@Scb@3@ABVPxTransform@3@@Z 10038970 f   ScbScenePvdClient.obj
 0001:000379d0       ?createPvdInstance@ScbScenePvdClient@Vd@physx@@QAEXPBVRigidStatic@Scb@3@@Z 100389d0 f   ScbScenePvdClient.obj
 0001:00037a20       ?updatePvdProperties@ScbScenePvdClient@Vd@physx@@QAEXPBVRigidStatic@Scb@3@@Z 10038a20 f   ScbScenePvdClient.obj
 0001:00037a60       ?releasePvdInstance@ScbScenePvdClient@Vd@physx@@QAEXPBVRigidObject@Scb@3@@Z 10038a60 f   ScbScenePvdClient.obj
 0001:00037b10       ?createPvdInstance@ScbScenePvdClient@Vd@physx@@QAEXPBVConstraint@Scb@3@@Z 10038b10 f   ScbScenePvdClient.obj
 0001:00037b80       ?updatePvdProperties@ScbScenePvdClient@Vd@physx@@QAEXPBVConstraint@Scb@3@@Z 10038b80 f   ScbScenePvdClient.obj
 0001:00037bf0       ?releasePvdInstance@ScbScenePvdClient@Vd@physx@@QAEXPBVConstraint@Scb@3@@Z 10038bf0 f   ScbScenePvdClient.obj
 0001:00037c40       ?createPvdInstance@ScbScenePvdClient@Vd@physx@@QAEXPBVArticulation@Scb@3@@Z 10038c40 f   ScbScenePvdClient.obj
 0001:00037c90       ?updatePvdProperties@ScbScenePvdClient@Vd@physx@@QAEXPBVArticulation@Scb@3@@Z 10038c90 f   ScbScenePvdClient.obj
 0001:00037cd0       ?releasePvdInstance@ScbScenePvdClient@Vd@physx@@QAEXPBVArticulation@Scb@3@@Z 10038cd0 f   ScbScenePvdClient.obj
 0001:00037d10       ?createPvdInstance@ScbScenePvdClient@Vd@physx@@QAEXPBVArticulationJoint@Scb@3@@Z 10038d10 f   ScbScenePvdClient.obj
 0001:00037d20       ?updatePvdProperties@ScbScenePvdClient@Vd@physx@@QAEXPBVArticulationJoint@Scb@3@@Z 10038d20 f   ScbScenePvdClient.obj
 0001:00037d60       ?releasePvdInstance@ScbScenePvdClient@Vd@physx@@QAEXPBVArticulationJoint@Scb@3@@Z 10038d60 f   ScbScenePvdClient.obj
 0001:00037d70       ?createPvdInstance@ScbScenePvdClient@Vd@physx@@QAEXPBVMaterialCore@Sc@3@@Z 10038d70 f   ScbScenePvdClient.obj
 0001:00037dc0       ?updatePvdProperties@ScbScenePvdClient@Vd@physx@@QAEXPBVMaterialCore@Sc@3@@Z 10038dc0 f   ScbScenePvdClient.obj
 0001:00037e00       ?releasePvdInstance@ScbScenePvdClient@Vd@physx@@QAEXPBVMaterialCore@Sc@3@@Z 10038e00 f   ScbScenePvdClient.obj
 0001:00037e50       ?createPvdInstance@ScbScenePvdClient@Vd@physx@@QAEXPBVShape@Scb@3@AAVPxActor@3@@Z 10038e50 f   ScbScenePvdClient.obj
 0001:00037f10       ?updateMaterials@ScbScenePvdClient@Vd@physx@@QAEXPBVShape@Scb@3@@Z 10038f10 f   ScbScenePvdClient.obj
 0001:00037f50       ?updatePvdProperties@ScbScenePvdClient@Vd@physx@@QAEXPBVShape@Scb@3@@Z 10038f50 f   ScbScenePvdClient.obj
 0001:00037f90       ?releaseAndRecreateGeometry@ScbScenePvdClient@Vd@physx@@QAEXPBVShape@Scb@3@@Z 10038f90 f   ScbScenePvdClient.obj
 0001:00037fd0       ?releasePvdInstance@ScbScenePvdClient@Vd@physx@@QAEXPBVShape@Scb@3@AAVPxActor@3@@Z 10038fd0 f   ScbScenePvdClient.obj
 0001:00038150       ?addBodyAndShapesToPvd@ScbScenePvdClient@Vd@physx@@QAEXAAVBody@Scb@3@@Z 10039150 f   ScbScenePvdClient.obj
 0001:00038240       ?addStaticAndShapesToPvd@ScbScenePvdClient@Vd@physx@@QAEXAAVRigidStatic@Scb@3@@Z 10039240 f   ScbScenePvdClient.obj
 0001:00038360       ?createPvdInstance@ScbScenePvdClient@Vd@physx@@QAEXPBVAggregate@Scb@3@@Z 10039360 f   ScbScenePvdClient.obj
 0001:00038420       ?updatePvdProperties@ScbScenePvdClient@Vd@physx@@QAEXPBVAggregate@Scb@3@@Z 10039420 f   ScbScenePvdClient.obj
 0001:00038460       ?attachAggregateActor@ScbScenePvdClient@Vd@physx@@QAEXPBVAggregate@Scb@3@PAVActor@53@@Z 10039460 f   ScbScenePvdClient.obj
 0001:000384e0       ?detachAggregateActor@ScbScenePvdClient@Vd@physx@@QAEXPBVAggregate@Scb@3@PAVActor@53@@Z 100394e0 f   ScbScenePvdClient.obj
 0001:00038560       ?releasePvdInstance@ScbScenePvdClient@Vd@physx@@QAEXPBVAggregate@Scb@3@@Z 10039560 f   ScbScenePvdClient.obj
 0001:00038620       ?createPvdInstance@ScbScenePvdClient@Vd@physx@@QAEXPBVCloth@Scb@3@@Z 10039620 f   ScbScenePvdClient.obj
 0001:00038670       ?sendSimpleProperties@ScbScenePvdClient@Vd@physx@@QAEXPBVCloth@Scb@3@@Z 10039670 f   ScbScenePvdClient.obj
 0001:000386b0       ?sendMotionConstraints@ScbScenePvdClient@Vd@physx@@QAEXPBVCloth@Scb@3@@Z 100396b0 f   ScbScenePvdClient.obj
 0001:000386f0       ?sendCollisionSpheres@ScbScenePvdClient@Vd@physx@@QAEXPBVCloth@Scb@3@@Z 100396f0 f   ScbScenePvdClient.obj
 0001:00038730       ?sendCollisionCapsules@ScbScenePvdClient@Vd@physx@@QAEXPBVCloth@Scb@3@@Z 10039730 f   ScbScenePvdClient.obj
 0001:00038770       ?sendCollisionTriangles@ScbScenePvdClient@Vd@physx@@QAEXPBVCloth@Scb@3@@Z 10039770 f   ScbScenePvdClient.obj
 0001:000387b0       ?sendVirtualParticles@ScbScenePvdClient@Vd@physx@@QAEXPBVCloth@Scb@3@@Z 100397b0 f   ScbScenePvdClient.obj
 0001:000387f0       ?sendSeparationConstraints@ScbScenePvdClient@Vd@physx@@QAEXPBVCloth@Scb@3@@Z 100397f0 f   ScbScenePvdClient.obj
 0001:00038830       ?sendParticleAccelerations@ScbScenePvdClient@Vd@physx@@QAEXPBVCloth@Scb@3@@Z 10039830 f   ScbScenePvdClient.obj
 0001:00038870       ?sendSelfCollisionIndices@ScbScenePvdClient@Vd@physx@@QAEXPBVCloth@Scb@3@@Z 10039870 f   ScbScenePvdClient.obj
 0001:000388b0       ?sendRestPositions@ScbScenePvdClient@Vd@physx@@QAEXPBVCloth@Scb@3@@Z 100398b0 f   ScbScenePvdClient.obj
 0001:000388f0       ?releasePvdInstance@ScbScenePvdClient@Vd@physx@@QAEXPBVCloth@Scb@3@@Z 100398f0 f   ScbScenePvdClient.obj
 0001:00038930       ?originShift@ScbScenePvdClient@Vd@physx@@QAEXVPxVec3@3@@Z 10039930 f   ScbScenePvdClient.obj
 0001:00038980       ?updateJoints@ScbScenePvdClient@Vd@physx@@QAEXXZ 10039980 f   ScbScenePvdClient.obj
 0001:00038c80       ?updateContacts@ScbScenePvdClient@Vd@physx@@QAEXXZ 10039c80 f   ScbScenePvdClient.obj
 0001:00038eb0       ?updateSceneQueries@ScbScenePvdClient@Vd@physx@@QAEXXZ 10039eb0 f   ScbScenePvdClient.obj
 0001:00038ef0       ?visualize@ScbScenePvdClient@Vd@physx@@UAEXAAVPxArticulationLink@3@@Z 10039ef0 f   ScbScenePvdClient.obj
 0001:00038f40       ?visualize@ScbScenePvdClient@Vd@physx@@QAEXABVPxRenderBuffer@3@@Z 10039f40 f   ScbScenePvdClient.obj
 0001:00038fc0       ?sendStateDatas@ScbScenePvdClient@Vd@physx@@AAEXPAVParticleSystemCore@Sc@3@@Z 10039fc0 f   ScbScenePvdClient.obj
 0001:00039390       ?sendEntireScene@ScbScenePvdClient@Vd@physx@@AAEXXZ 1003a390 f   ScbScenePvdClient.obj
 0001:000398c0       ?updateConstraint@ScbScenePvdClient@Vd@physx@@AAEXABVConstraintCore@Sc@3@I@Z 1003a8c0 f   ScbScenePvdClient.obj
 0001:00039910       ?setCreateContactReports@ScbScenePvdClient@Vd@physx@@AAEX_N@Z 1003a910 f   ScbScenePvdClient.obj
 0001:0003a600       ??$sendArray@M@ScbScenePvdClient@Vd@physx@@AAEXPBXPBDPBV?$BitMapBase@VNonTrackingAllocator@shdfnd@physx@@@Cm@2@IAAV?$PxStrideIterator@$$CBM@2@@Z 1003b600 f i ScbScenePvdClient.obj
 0001:0003a7d0       ??$sendArray@VPxVec3@physx@@@ScbScenePvdClient@Vd@physx@@AAEXPBXPBDPBV?$BitMapBase@VNonTrackingAllocator@shdfnd@physx@@@Cm@2@IAAV?$PxStrideIterator@$$CBVPxVec3@physx@@@2@@Z 1003b7d0 f i ScbScenePvdClient.obj
 0001:0003a9c0       ??0Pair@ContactIterator@Sc@physx@@QAE@XZ 1003b9c0 f i ScbScenePvdClient.obj
 0001:0003aa80       ??0PxTransform@physx@@QAE@ABV01@@Z 1003ba80 f i ScbScenePvdClient.obj
 0001:0003ab30       ??1PvdClient@pvdsdk@physx@@MAE@XZ 1003bb30 f i ScbScenePvdClient.obj
 0001:0003ab40       ??1PvdVisualizer@Vd@physx@@MAE@XZ 1003bb40 f i ScbScenePvdClient.obj
 0001:0003ab50       ??1PxConstraintVisualizer@physx@@MAE@XZ 1003bb50 f i ScbScenePvdClient.obj
 0001:0003ab60       ??1PxPvdSceneClient@physx@@MAE@XZ 1003bb60 f i ScbScenePvdClient.obj
 0001:0003ab70       ??1RendererEventClient@pvdsdk@physx@@UAE@XZ 1003bb70 f i ScbScenePvdClient.obj
 0001:0003ab77       ??_EScbScenePvdClient@Vd@physx@@W3AEPAXI@Z 1003bb77 f i ScbScenePvdClient.obj
 0001:0003ab81       ??_EScbScenePvdClient@Vd@physx@@W7AEPAXI@Z 1003bb81 f i ScbScenePvdClient.obj
 0001:0003ab90       ??_GPvdClient@pvdsdk@physx@@MAEPAXI@Z 1003bb90 f i ScbScenePvdClient.obj
 0001:0003ab90       ??_EPvdClient@pvdsdk@physx@@MAEPAXI@Z 1003bb90 f i ScbScenePvdClient.obj
 0001:0003abc0       ??_EPvdConstraintVisualizer@?A0x32082e2c@1@UAEPAXI@Z 1003bbc0 f i ScbScenePvdClient.obj
 0001:0003abc0       ??_GPvdConstraintVisualizer@?A0x32082e2c@1@UAEPAXI@Z 1003bbc0 f i ScbScenePvdClient.obj
 0001:0003abf0       ??_GPvdVisualizer@Vd@physx@@MAEPAXI@Z 1003bbf0 f i ScbScenePvdClient.obj
 0001:0003abf0       ??_EPvdVisualizer@Vd@physx@@MAEPAXI@Z 1003bbf0 f i ScbScenePvdClient.obj
 0001:0003ac20       ??_GPxConstraintVisualizer@physx@@MAEPAXI@Z 1003bc20 f i ScbScenePvdClient.obj
 0001:0003ac20       ??_EPxConstraintVisualizer@physx@@MAEPAXI@Z 1003bc20 f i ScbScenePvdClient.obj
 0001:0003ac50       ??_EPxPvdSceneClient@physx@@MAEPAXI@Z 1003bc50 f i ScbScenePvdClient.obj
 0001:0003ac50       ??_GPxPvdSceneClient@physx@@MAEPAXI@Z 1003bc50 f i ScbScenePvdClient.obj
 0001:0003ac80       ??_ERendererEventClient@pvdsdk@physx@@UAEPAXI@Z 1003bc80 f i ScbScenePvdClient.obj
 0001:0003ac80       ??_GRendererEventClient@pvdsdk@physx@@UAEPAXI@Z 1003bc80 f i ScbScenePvdClient.obj
 0001:0003acb0       ??_EScbScenePvdClient@Vd@physx@@UAEPAXI@Z 1003bcb0 f i ScbScenePvdClient.obj
 0001:0003acb0       ??_GScbScenePvdClient@Vd@physx@@UAEPAXI@Z 1003bcb0 f i ScbScenePvdClient.obj
 0001:0003ad30       ??_GSceneRendererClient@?A0x32082e2c@@UAEPAXI@Z 1003bd30 f i ScbScenePvdClient.obj
 0001:0003ad30       ??_ESceneRendererClient@?A0x32082e2c@@UAEPAXI@Z 1003bd30 f i ScbScenePvdClient.obj
 0001:0003ae00       ?copy@?$Array@UContact@Sc@physx@@VNamedAllocator@shdfnd@3@@shdfnd@physx@@KAXPAUContact@Sc@3@0PBU453@@Z 1003be00 f i ScbScenePvdClient.obj
 0001:0003aeb0       ?flush@ScbScenePvdClient@Vd@physx@@UAEXXZ 1003beb0 f i ScbScenePvdClient.obj
 0001:0003aec0       ?getClientInternal@ScbScenePvdClient@Vd@physx@@UAEPAVPvdClient@pvdsdk@3@XZ 1003bec0 f i ScbScenePvdClient.obj
 0001:0003aed0       ?getDataStream@ScbScenePvdClient@Vd@physx@@UAEPAVPvdDataStream@pvdsdk@3@XZ 1003bed0 f i ScbScenePvdClient.obj
 0001:0003aee0       ?getMetaDataBinding@ScbScenePvdClient@Vd@physx@@UAEPAVPvdMetaDataBinding@23@XZ 1003bee0 f i ScbScenePvdClient.obj
 0001:0003aef0       ?getNext@Iterator@?$BitMapBase@VNonTrackingAllocator@shdfnd@physx@@@Cm@physx@@QAEIXZ 1003bef0 f i ScbScenePvdClient.obj
 0001:0003af60       ?getScenePvdFlags@ScbScenePvdClient@Vd@physx@@UBE?AV?$PxFlags@W4Enum@PxPvdSceneFlag@physx@@E@3@XZ 1003bf60 f i ScbScenePvdClient.obj
 0001:0003af80       ?getUserRender@ScbScenePvdClient@Vd@physx@@UAEPAVPvdUserRenderer@pvdsdk@3@XZ 1003bf80 f i ScbScenePvdClient.obj
 0001:0003af90       ?growAndPushBack@?$Array@UContact@Sc@physx@@VNamedAllocator@shdfnd@3@@shdfnd@physx@@IAEAAUContact@Sc@3@ABU453@@Z 1003bf90 f i ScbScenePvdClient.obj
 0001:0003b130       ?isConnected@ScbScenePvdClient@Vd@physx@@UBE_NXZ 1003c130 f i ScbScenePvdClient.obj
 0001:0003b140       ?recreate@?$Array@EVNamedAllocator@shdfnd@physx@@@shdfnd@physx@@IAEXI@Z 1003c140 f i ScbScenePvdClient.obj
 0001:0003b1e0       ?recreate@?$Array@PAVPxActor@physx@@VNamedAllocator@shdfnd@2@@shdfnd@physx@@IAEXI@Z 1003c1e0 f i ScbScenePvdClient.obj
 0001:0003b2a0       ?recreate@?$Array@PAVPxArticulation@physx@@VNamedAllocator@shdfnd@2@@shdfnd@physx@@IAEXI@Z 1003c2a0 f i ScbScenePvdClient.obj
 0001:0003b360       ?resize@?$Array@EVNamedAllocator@shdfnd@physx@@@shdfnd@physx@@QAEXIABE@Z 1003c360 f i ScbScenePvdClient.obj
 0001:0003b3c0       ?resize@?$Array@PAVPxActor@physx@@VNamedAllocator@shdfnd@2@@shdfnd@physx@@QAEXIABQAVPxActor@3@@Z 1003c3c0 f i ScbScenePvdClient.obj
 0001:0003b420       ?resize@?$Array@PAVPxArticulation@physx@@VNamedAllocator@shdfnd@2@@shdfnd@physx@@QAEXIABQAVPxArticulation@3@@Z 1003c420 f i ScbScenePvdClient.obj
 0001:0003b480       ?setScenePvdFlags@ScbScenePvdClient@Vd@physx@@UAEXV?$PxFlags@W4Enum@PxPvdSceneFlag@physx@@E@3@@Z 1003c480 f i ScbScenePvdClient.obj
 0001:0003b600       ?syncState@Shape@Scb@physx@@QAEXXZ 1003c600 f   ScbShape.obj
 0001:0003b790       ?setMaterialsHelper@Shape@Scb@physx@@AAE_NPBQAVPxMaterial@3@G@Z 1003c790 f   ScbShape.obj
 0001:0003b950       ??0NpCloth@physx@@QAE@V?$PxFlags@W4Enum@PxBaseFlag@physx@@G@1@@Z 1003c950 f   NpCloth.obj
 0001:0003b9e0       ?requires@NpCloth@physx@@UAEXAAVPxProcessPxBaseCallback@2@@Z 1003c9e0 f   NpCloth.obj
 0001:0003ba00       ?resolveReferences@NpCloth@physx@@UAEXAAVPxDeserializationContext@2@@Z 1003ca00 f   NpCloth.obj
 0001:0003ba50       ?createObject@NpCloth@physx@@SAPAV12@AAPAEAAVPxDeserializationContext@2@@Z 1003ca50 f   NpCloth.obj
 0001:0003baa0       ??0NpCloth@physx@@QAE@ABVPxTransform@1@AAVNpClothFabric@1@PBUPxClothParticle@1@V?$PxFlags@W4Enum@PxClothFlag@physx@@G@1@@Z 1003caa0 f   NpCloth.obj
 0001:0003bb30       ??1NpCloth@physx@@UAE@XZ   1003cb30 f   NpCloth.obj
 0001:0003bba0       ?release@NpCloth@physx@@UAEXXZ 1003cba0 f   NpCloth.obj
 0001:0003bc00       ?getType@NpCloth@physx@@UBE?AW4Enum@PxActorType@2@XZ 1003cc00 f   NpCloth.obj
 0001:0003bc10       ?getFabric@NpCloth@physx@@UBEPAVPxClothFabric@2@XZ 1003cc10 f   NpCloth.obj
 0001:0003bc50       ?setParticles@NpCloth@physx@@UAEXPBUPxClothParticle@2@0@Z 1003cc50 f   NpCloth.obj
 0001:0003bd80       ?getNbParticles@NpCloth@physx@@UBEIXZ 1003cd80 f   NpCloth.obj
 0001:0003bdc0       ?setMotionConstraints@NpCloth@physx@@UAEXPBUPxClothParticleMotionConstraint@2@@Z 1003cdc0 f   NpCloth.obj
 0001:0003bef0       ?getMotionConstraints@NpCloth@physx@@UBE_NPAUPxClothParticleMotionConstraint@2@@Z 1003cef0 f   NpCloth.obj
 0001:0003bfc0       ?getNbMotionConstraints@NpCloth@physx@@UBEIXZ 1003cfc0 f   NpCloth.obj
 0001:0003c000       ?setMotionConstraintConfig@NpCloth@physx@@UAEXABUPxClothMotionConstraintConfig@2@@Z 1003d000 f   NpCloth.obj
 0001:0003c100       ?getMotionConstraintConfig@NpCloth@physx@@UBE?AUPxClothMotionConstraintConfig@2@XZ 1003d100 f   NpCloth.obj
 0001:0003c140       ?setSeparationConstraints@NpCloth@physx@@UAEXPBUPxClothParticleSeparationConstraint@2@@Z 1003d140 f   NpCloth.obj
 0001:0003c270       ?getSeparationConstraints@NpCloth@physx@@UBE_NPAUPxClothParticleSeparationConstraint@2@@Z 1003d270 f   NpCloth.obj
 0001:0003c340       ?getNbSeparationConstraints@NpCloth@physx@@UBEIXZ 1003d340 f   NpCloth.obj
 0001:0003c350       ?clearInterpolation@NpCloth@physx@@UAEXXZ 1003d350 f   NpCloth.obj
 0001:0003c360       ?setParticleAccelerations@NpCloth@physx@@UAEXPBVPxVec4@2@@Z 1003d360 f   NpCloth.obj
 0001:0003c430       ?getParticleAccelerations@NpCloth@physx@@UBE_NPAVPxVec4@2@@Z 1003d430 f   NpCloth.obj
 0001:0003c4c0       ?getNbParticleAccelerations@NpCloth@physx@@UBEIXZ 1003d4c0 f   NpCloth.obj
 0001:0003c4d0       ?addCollisionSphere@NpCloth@physx@@UAEXABUPxClothCollisionSphere@2@@Z 1003d4d0 f   NpCloth.obj
 0001:0003c630       ?removeCollisionSphere@NpCloth@physx@@UAEXI@Z 1003d630 f   NpCloth.obj
 0001:0003c6c0       ?setCollisionSpheres@NpCloth@physx@@UAEXPBUPxClothCollisionSphere@2@I@Z 1003d6c0 f   NpCloth.obj
 0001:0003c790       ?getNbCollisionSpheres@NpCloth@physx@@UBEIXZ 1003d790 f   NpCloth.obj
 0001:0003c820       ?getCollisionData@NpCloth@physx@@UBEXPAUPxClothCollisionSphere@2@PAIPAUPxClothCollisionPlane@2@1PAUPxClothCollisionTriangle@2@@Z 1003d820 f   NpCloth.obj
 0001:0003c8c0       ?addCollisionCapsule@NpCloth@physx@@UAEXII@Z 1003d8c0 f   NpCloth.obj
 0001:0003ca50       ?removeCollisionCapsule@NpCloth@physx@@UAEXI@Z 1003da50 f   NpCloth.obj
 0001:0003cb10       ?getNbCollisionCapsules@NpCloth@physx@@UBEIXZ 1003db10 f   NpCloth.obj
 0001:0003cba0       ?addCollisionTriangle@NpCloth@physx@@UAEXABUPxClothCollisionTriangle@2@@Z 1003dba0 f   NpCloth.obj
 0001:0003cc60       ?removeCollisionTriangle@NpCloth@physx@@UAEXI@Z 1003dc60 f   NpCloth.obj
 0001:0003cd20       ?setCollisionTriangles@NpCloth@physx@@UAEXPBUPxClothCollisionTriangle@2@I@Z 1003dd20 f   NpCloth.obj
 0001:0003cdf0       ?getNbCollisionTriangles@NpCloth@physx@@UBEIXZ 1003ddf0 f   NpCloth.obj
 0001:0003ce80       ?addCollisionPlane@NpCloth@physx@@UAEXABUPxClothCollisionPlane@2@@Z 1003de80 f   NpCloth.obj
 0001:0003d010       ?removeCollisionPlane@NpCloth@physx@@UAEXI@Z 1003e010 f   NpCloth.obj
 0001:0003d0d0       ?setCollisionPlanes@NpCloth@physx@@UAEXPBUPxClothCollisionPlane@2@I@Z 1003e0d0 f   NpCloth.obj
 0001:0003d1d0       ?getNbCollisionPlanes@NpCloth@physx@@UBEIXZ 1003e1d0 f   NpCloth.obj
 0001:0003d260       ?addCollisionConvex@NpCloth@physx@@UAEXI@Z 1003e260 f   NpCloth.obj
 0001:0003d320       ?removeCollisionConvex@NpCloth@physx@@UAEXI@Z 1003e320 f   NpCloth.obj
 0001:0003d3e0       ?getNbCollisionConvexes@NpCloth@physx@@UBEIXZ 1003e3e0 f   NpCloth.obj
 0001:0003d470       ?setVirtualParticles@NpCloth@physx@@UAEXIPBIIPBVPxVec3@2@@Z 1003e470 f   NpCloth.obj
 0001:0003d600       ?getNbVirtualParticles@NpCloth@physx@@UBEIXZ 1003e600 f   NpCloth.obj
 0001:0003d690       ?getVirtualParticles@NpCloth@physx@@UBEXPAI@Z 1003e690 f   NpCloth.obj
 0001:0003d740       ?getNbVirtualParticleWeights@NpCloth@physx@@UBEIXZ 1003e740 f   NpCloth.obj
 0001:0003d7d0       ?getVirtualParticleWeights@NpCloth@physx@@UBEXPAVPxVec3@2@@Z 1003e7d0 f   NpCloth.obj
 0001:0003d880       ?setGlobalPose@NpCloth@physx@@UAEXABVPxTransform@2@@Z 1003e880 f   NpCloth.obj
 0001:0003da20       ?getGlobalPose@NpCloth@physx@@UBE?AVPxTransform@2@XZ 1003ea20 f   NpCloth.obj
 0001:0003da60       ?setTargetPose@NpCloth@physx@@UAEXABVPxTransform@2@@Z 1003ea60 f   NpCloth.obj
 0001:0003dc00       ?setExternalAcceleration@NpCloth@physx@@UAEXVPxVec3@2@@Z 1003ec00 f   NpCloth.obj
 0001:0003ddb0       ?getExternalAcceleration@NpCloth@physx@@UBE?AVPxVec3@2@XZ 1003edb0 f   NpCloth.obj
 0001:0003ddf0       ?setLinearInertiaScale@NpCloth@physx@@UAEXVPxVec3@2@@Z 1003edf0 f   NpCloth.obj
 0001:0003df20       ?getLinearInertiaScale@NpCloth@physx@@UBE?AVPxVec3@2@XZ 1003ef20 f   NpCloth.obj
 0001:0003df40       ?setAngularInertiaScale@NpCloth@physx@@UAEXVPxVec3@2@@Z 1003ef40 f   NpCloth.obj
 0001:0003e070       ?getAngularInertiaScale@NpCloth@physx@@UBE?AVPxVec3@2@XZ 1003f070 f   NpCloth.obj
 0001:0003e090       ?setCentrifugalInertiaScale@NpCloth@physx@@UAEXVPxVec3@2@@Z 1003f090 f   NpCloth.obj
 0001:0003e1c0       ?getCentrifugalInertiaScale@NpCloth@physx@@UBE?AVPxVec3@2@XZ 1003f1c0 f   NpCloth.obj
 0001:0003e1e0       ?setInertiaScale@NpCloth@physx@@UAEXM@Z 1003f1e0 f   NpCloth.obj
 0001:0003e2b0       ?setDampingCoefficient@NpCloth@physx@@UAEXVPxVec3@2@@Z 1003f2b0 f   NpCloth.obj
 0001:0003e3e0       ?getDampingCoefficient@NpCloth@physx@@UBE?AVPxVec3@2@XZ 1003f3e0 f   NpCloth.obj
 0001:0003e420       ?setFrictionCoefficient@NpCloth@physx@@UAEXM@Z 1003f420 f   NpCloth.obj
 0001:0003e540       ?getFrictionCoefficient@NpCloth@physx@@UBEMXZ 1003f540 f   NpCloth.obj
 0001:0003e5a0       ?setLinearDragCoefficient@NpCloth@physx@@UAEXVPxVec3@2@@Z 1003f5a0 f   NpCloth.obj
 0001:0003e6d0       ?getLinearDragCoefficient@NpCloth@physx@@UBE?AVPxVec3@2@XZ 1003f6d0 f   NpCloth.obj
 0001:0003e6f0       ?setAngularDragCoefficient@NpCloth@physx@@UAEXVPxVec3@2@@Z 1003f6f0 f   NpCloth.obj
 0001:0003e820       ?getAngularDragCoefficient@NpCloth@physx@@UBE?AVPxVec3@2@XZ 1003f820 f   NpCloth.obj
 0001:0003e840       ?setDragCoefficient@NpCloth@physx@@UAEXM@Z 1003f840 f   NpCloth.obj
 0001:0003e890       ?setCollisionMassScale@NpCloth@physx@@UAEXM@Z 1003f890 f   NpCloth.obj
 0001:0003e940       ?getCollisionMassScale@NpCloth@physx@@UBEMXZ 1003f940 f   NpCloth.obj
 0001:0003e9a0       ?setSelfCollisionDistance@NpCloth@physx@@UAEXM@Z 1003f9a0 f   NpCloth.obj
 0001:0003ea50       ?getSelfCollisionDistance@NpCloth@physx@@UBEMXZ 1003fa50 f   NpCloth.obj
 0001:0003eab0       ?setSelfCollisionStiffness@NpCloth@physx@@UAEXM@Z 1003fab0 f   NpCloth.obj
 0001:0003eb60       ?getSelfCollisionStiffness@NpCloth@physx@@UBEMXZ 1003fb60 f   NpCloth.obj
 0001:0003ebc0       ?setSelfCollisionIndices@NpCloth@physx@@UAEXPBII@Z 1003fbc0 f   NpCloth.obj
 0001:0003ec90       ?getSelfCollisionIndices@NpCloth@physx@@UBE_NPAI@Z 1003fc90 f   NpCloth.obj
 0001:0003ece0       ?getNbSelfCollisionIndices@NpCloth@physx@@UBEIXZ 1003fce0 f   NpCloth.obj
 0001:0003ecf0       ?setRestPositions@NpCloth@physx@@UAEXPBVPxVec4@2@@Z 1003fcf0 f   NpCloth.obj
 0001:0003edb0       ?getRestPositions@NpCloth@physx@@UBE_NPAVPxVec4@2@@Z 1003fdb0 f   NpCloth.obj
 0001:0003ee00       ?getNbRestPositions@NpCloth@physx@@UBEIXZ 1003fe00 f   NpCloth.obj
 0001:0003ee10       ?setSolverFrequency@NpCloth@physx@@UAEXM@Z 1003fe10 f   NpCloth.obj
 0001:0003ef10       ?getSolverFrequency@NpCloth@physx@@UBEMXZ 1003ff10 f   NpCloth.obj
 0001:0003efb0       ?setStiffnessFrequency@NpCloth@physx@@UAEXM@Z 1003ffb0 f   NpCloth.obj
 0001:0003f0b0       ?getStiffnessFrequency@NpCloth@physx@@UBEMXZ 100400b0 f   NpCloth.obj
 0001:0003f150       ?setStretchConfig@NpCloth@physx@@UAEXW4Enum@PxClothFabricPhaseType@2@ABUPxClothStretchConfig@2@@Z 10040150 f   NpCloth.obj
 0001:0003f2e0       ?getStretchConfig@NpCloth@physx@@UBE?AUPxClothStretchConfig@2@W4Enum@PxClothFabricPhaseType@2@@Z 100402e0 f   NpCloth.obj
 0001:0003f320       ?setTetherConfig@NpCloth@physx@@UAEXABUPxClothTetherConfig@2@@Z 10040320 f   NpCloth.obj
 0001:0003f410       ?getTetherConfig@NpCloth@physx@@UBE?AUPxClothTetherConfig@2@XZ 10040410 f   NpCloth.obj
 0001:0003f450       ?setClothFlags@NpCloth@physx@@UAEXV?$PxFlags@W4Enum@PxClothFlag@physx@@G@2@@Z 10040450 f   NpCloth.obj
 0001:0003f530       ?setClothFlag@NpCloth@physx@@UAEXW4Enum@PxClothFlag@2@_N@Z 10040530 f   NpCloth.obj
 0001:0003f5c0       ?getClothFlags@NpCloth@physx@@UBE?AV?$PxFlags@W4Enum@PxClothFlag@physx@@G@2@XZ 100405c0 f   NpCloth.obj
 0001:0003f660       ?getWindVelocity@NpCloth@physx@@UBE?AVPxVec3@2@XZ 10040660 f   NpCloth.obj
 0001:0003f6a0       ?setWindVelocity@NpCloth@physx@@UAEXVPxVec3@2@@Z 100406a0 f   NpCloth.obj
 0001:0003f780       ?getWindDrag@NpCloth@physx@@UBEMXZ 10040780 f   NpCloth.obj
 0001:0003f820       ?setWindDrag@NpCloth@physx@@UAEXM@Z 10040820 f   NpCloth.obj
 0001:0003f920       ?getWindLift@NpCloth@physx@@UBEMXZ 10040920 f   NpCloth.obj
 0001:0003f9c0       ?setWindLift@NpCloth@physx@@UAEXM@Z 100409c0 f   NpCloth.obj
 0001:0003fac0       ?isSleeping@NpCloth@physx@@UBE_NXZ 10040ac0 f   NpCloth.obj
 0001:0003fb90       ?getSleepLinearVelocity@NpCloth@physx@@UBEMXZ 10040b90 f   NpCloth.obj
 0001:0003fc30       ?setSleepLinearVelocity@NpCloth@physx@@UAEXM@Z 10040c30 f   NpCloth.obj
 0001:0003fd30       ?setWakeCounter@NpCloth@physx@@UAEXM@Z 10040d30 f   NpCloth.obj
 0001:0003fe20       ?getWakeCounter@NpCloth@physx@@UBEMXZ 10040e20 f   NpCloth.obj
 0001:0003fec0       ?wakeUp@NpCloth@physx@@UAEXXZ 10040ec0 f   NpCloth.obj
 0001:0003ff30       ?putToSleep@NpCloth@physx@@UAEXXZ 10040f30 f   NpCloth.obj
 0001:0003ffd0       ?lockParticleData@NpCloth@physx@@UAEPAVPxClothParticleData@2@V?$PxFlags@W4Enum@PxDataAccessFlag@physx@@E@2@@Z 10040fd0 f   NpCloth.obj
 0001:00040060       ?lockParticleData@NpCloth@physx@@UBEPAVPxClothParticleData@2@XZ 10041060 f   NpCloth.obj
 0001:00040070       ?getPreviousTimeStep@NpCloth@physx@@UBEMXZ 10041070 f   NpCloth.obj
 0001:00040110       ?getWorldBounds@NpCloth@physx@@UBE?AVPxBounds3@2@M@Z 10041110 f   NpCloth.obj
 0001:00040230       ?setSimulationFilterData@NpCloth@physx@@UAEXABUPxFilterData@2@@Z 10041230 f   NpCloth.obj
 0001:000402c0       ?getSimulationFilterData@NpCloth@physx@@UBE?AUPxFilterData@2@XZ 100412c0 f   NpCloth.obj
 0001:00040300       ?setContactOffset@NpCloth@physx@@UAEXM@Z 10041300 f   NpCloth.obj
 0001:00040390       ?getContactOffset@NpCloth@physx@@UBEMXZ 10041390 f   NpCloth.obj
 0001:00040430       ?setRestOffset@NpCloth@physx@@UAEXM@Z 10041430 f   NpCloth.obj
 0001:000404c0       ?getRestOffset@NpCloth@physx@@UBEMXZ 100414c0 f   NpCloth.obj
 0001:00040560       ?checkParticles@NpCloth@physx@@SA_NIPBUPxClothParticle@2@@Z 10041560 f   NpCloth.obj
 0001:00040620       ?checkMotionConstraints@NpCloth@physx@@SA_NIPBUPxClothParticleMotionConstraint@2@@Z 10041620 f   NpCloth.obj
 0001:000406e0       ?checkSeparationConstraints@NpCloth@physx@@SA_NIPBUPxClothParticleSeparationConstraint@2@@Z 100416e0 f   NpCloth.obj
 0001:000407a0       ?checkParticleAccelerations@NpCloth@physx@@SA_NIPBVPxVec4@2@@Z 100417a0 f   NpCloth.obj
 0001:00040860       ?checkCollisionSpheres@NpCloth@physx@@SA_NIPBUPxClothCollisionSphere@2@@Z 10041860 f   NpCloth.obj
 0001:00040920       ?checkCollisionSpherePairs@NpCloth@physx@@SA_NIIPBI@Z 10041920 f   NpCloth.obj
 0001:00040950       ?checkVirtualParticles@NpCloth@physx@@SA_NIIPBIIPBVPxVec3@2@@Z 10041950 f   NpCloth.obj
 0001:00040a30       ?visualize@NpCloth@physx@@UAEXAAVRenderOutput@Cm@2@PAVNpScene@2@@Z 10041a30 f   NpCloth.obj
 0001:00041520       ?unlockParticleData@NpCloth@physx@@QAEXXZ 10042520 f   NpCloth.obj
 0001:00041530       ?sendPvdSimpleProperties@NpCloth@physx@@AAEXXZ 10042530 f   NpCloth.obj
 0001:00041580       ?sendPvdMotionConstraints@NpCloth@physx@@AAEXXZ 10042580 f   NpCloth.obj
 0001:000415d0       ?sendPvdSeparationConstraints@NpCloth@physx@@AAEXXZ 100425d0 f   NpCloth.obj
 0001:00041620       ?sendPvdCollisionSpheres@NpCloth@physx@@AAEXXZ 10042620 f   NpCloth.obj
 0001:00041670       ?sendPvdCollisionCapsules@NpCloth@physx@@AAEXXZ 10042670 f   NpCloth.obj
 0001:000416c0       ?sendPvdCollisionTriangles@NpCloth@physx@@AAEXXZ 100426c0 f   NpCloth.obj
 0001:00041710       ?sendPvdVirtualParticles@NpCloth@physx@@AAEXXZ 10042710 f   NpCloth.obj
 0001:00041760       ?sendPvdSelfCollisionIndices@NpCloth@physx@@AAEXXZ 10042760 f   NpCloth.obj
 0001:000417b0       ?sendPvdRestPositions@NpCloth@physx@@AAEXXZ 100427b0 f   NpCloth.obj
 0001:00042fb0       ??0?$NpActorTemplate@VPxCloth@physx@@@physx@@QAE@GV?$PxFlags@W4Enum@PxBaseFlag@physx@@G@1@PBDPAX@Z 10043fb0 f i NpCloth.obj
 0001:00043010       ??1?$NpActorTemplate@VPxCloth@physx@@@physx@@UAE@XZ 10044010 f i NpCloth.obj
 0001:00043040       ??1NpClothParticleData@physx@@UAE@XZ 10044040 f i NpCloth.obj
 0001:00043050       ??1PxCloth@physx@@MAE@XZ   10044050 f i NpCloth.obj
 0001:00043060       ??_G?$NpActorTemplate@VPxCloth@physx@@@physx@@UAEPAXI@Z 10044060 f i NpCloth.obj
 0001:00043060       ??_E?$NpActorTemplate@VPxCloth@physx@@@physx@@UAEPAXI@Z 10044060 f i NpCloth.obj
 0001:000430d0       ??_ENpCloth@physx@@UAEPAXI@Z 100440d0 f i NpCloth.obj
 0001:000430d0       ??_GNpCloth@physx@@UAEPAXI@Z 100440d0 f i NpCloth.obj
 0001:00043130       ??_ENpClothParticleData@physx@@UAEPAXI@Z 10044130 f i NpCloth.obj
 0001:00043130       ??_GNpClothParticleData@physx@@UAEPAXI@Z 10044130 f i NpCloth.obj
 0001:00043180       ??_GPxCloth@physx@@MAEPAXI@Z 10044180 f i NpCloth.obj
 0001:00043180       ??_EPxCloth@physx@@MAEPAXI@Z 10044180 f i NpCloth.obj
 0001:000431b0       ??_GPxClothParticleData@physx@@UAEPAXI@Z 100441b0 f i NpCloth.obj
 0001:000431b0       ??_EPxClothParticleData@physx@@UAEPAXI@Z 100441b0 f i NpCloth.obj
 0001:000431e0       ?addCollisionSphere@Cloth@Scb@physx@@QAEXABUPxClothCollisionSphere@3@@Z 100441e0 f i NpCloth.obj
 0001:00043240       ?copy@?$Array@VPxVec3@physx@@VNamedAllocator@shdfnd@2@@shdfnd@physx@@KAXPAVPxVec3@3@0PBV43@@Z 10044240 f i NpCloth.obj
 0001:00043340       ?create@?$Array@VPxVec3@physx@@VNamedAllocator@shdfnd@2@@shdfnd@physx@@KAXPAVPxVec3@3@0ABV43@@Z 10044340 f i NpCloth.obj
 0001:00043420       ?exportExtraData@?$NpActorTemplate@VPxCloth@physx@@@physx@@UAEXAAVPxSerializationContext@2@@Z 10044420 f i NpCloth.obj
 0001:00043430       ?exportExtraData@NpCloth@physx@@UAEXAAVPxSerializationContext@2@@Z 10044430 f i NpCloth.obj
 0001:00043440       ?getActorFlags@?$NpActorTemplate@VPxCloth@physx@@@physx@@UBE?AV?$PxFlags@W4Enum@PxActorFlag@physx@@E@2@XZ 10044440 f i NpCloth.obj
 0001:000434c0       ?getAggregate@?$NpActorTemplate@VPxCloth@physx@@@physx@@UBEPAVPxAggregate@2@XZ 100444c0 f i NpCloth.obj
 0001:000434d0       ?getAngularDragCoefficient@Cloth@Scb@physx@@QBE?AVPxVec3@3@XZ 100444d0 f i NpCloth.obj
 0001:00043560       ?getAngularInertiaScale@Cloth@Scb@physx@@QBE?AVPxVec3@3@XZ 10044560 f i NpCloth.obj
 0001:000435f0       ?getCentrifugalInertiaScale@Cloth@Scb@physx@@QBE?AVPxVec3@3@XZ 100445f0 f i NpCloth.obj
 0001:00043680       ?getClientBehaviorFlags@?$NpActorTemplate@VPxCloth@physx@@@physx@@UBE?AV?$PxFlags@W4Enum@PxActorClientBehaviorFlag@physx@@E@2@XZ 10044680 f i NpCloth.obj
 0001:00043700       ?getConcreteTypeName@PxCloth@physx@@UBEPBDXZ 10044700 f i NpCloth.obj
 0001:00043710       ?getDampingCoefficient@Cloth@Scb@physx@@QBE?AVPxVec3@3@XZ 10044710 f i NpCloth.obj
 0001:000437a0       ?getDataAccessFlags@NpClothParticleData@physx@@UAE?AV?$PxFlags@W4Enum@PxDataAccessFlag@physx@@E@2@XZ 100447a0 f i NpCloth.obj
 0001:000437c0       ?getDominanceGroup@?$NpActorTemplate@VPxCloth@physx@@@physx@@UBEEXZ 100447c0 f i NpCloth.obj
 0001:00043850       ?getExternalAcceleration@Cloth@Scb@physx@@QBE?AVPxVec3@3@XZ 10044850 f i NpCloth.obj
 0001:000438e0       ?getGlobalPose@Cloth@Scb@physx@@QBE?AVPxTransform@3@XZ 100448e0 f i NpCloth.obj
 0001:00043990       ?getLinearDragCoefficient@Cloth@Scb@physx@@QBE?AVPxVec3@3@XZ 10044990 f i NpCloth.obj
 0001:00043a20       ?getLinearInertiaScale@Cloth@Scb@physx@@QBE?AVPxVec3@3@XZ 10044a20 f i NpCloth.obj
 0001:00043ab0       ?getMotionConstraintConfig@Cloth@Scb@physx@@QBE?AUPxClothMotionConstraintConfig@3@XZ 10044ab0 f i NpCloth.obj
 0001:00043b40       ?getName@?$NpActorTemplate@VPxCloth@physx@@@physx@@UBEPBDXZ 10044b40 f i NpCloth.obj
 0001:00043b80       ?getOwnerClient@?$NpActorTemplate@VPxCloth@physx@@@physx@@UBEEXZ 10044b80 f i NpCloth.obj
 0001:00043bb0       ?getParticleData@Cloth@Scb@physx@@QAEXAAVNpClothParticleData@3@@Z 10044bb0 f i NpCloth.obj
 0001:00043c30       ?getScene@?$NpActorTemplate@VPxCloth@physx@@@physx@@UBEPAVPxScene@2@XZ 10044c30 f i NpCloth.obj
 0001:00043c40       ?getSimulationFilterData@Cloth@Scb@physx@@QBE?AUPxFilterData@3@XZ 10044c40 f i NpCloth.obj
 0001:00043cd0       ?getStretchConfig@Cloth@Scb@physx@@QBE?AUPxClothStretchConfig@3@W4Enum@PxClothFabricPhaseType@3@@Z 10044cd0 f i NpCloth.obj
 0001:00043d70       ?getTetherConfig@Cloth@Scb@physx@@QBE?AUPxClothTetherConfig@3@XZ 10044d70 f i NpCloth.obj
 0001:00043df0       ?getWindVelocity@Cloth@Scb@physx@@QBE?AVPxVec3@3@XZ 10044df0 f i NpCloth.obj
 0001:00043e80       ?getWorldBounds@Cloth@Scb@physx@@QBE?AVPxBounds3@3@XZ 10044e80 f i NpCloth.obj
 0001:00043f30       ?isFinite@PxQuat@physx@@QBE_NXZ 10044f30 f i NpCloth.obj
 0001:00043fe0       ?isKindOf@PxCloth@physx@@MBE_NPBD@Z 10044fe0 f i NpCloth.obj
 0001:00044050       ?isSane@PxQuat@physx@@QBE_NXZ 10045050 f i NpCloth.obj
 0001:00044170       ?isSane@PxTransform@physx@@QBE_NXZ 10045170 f i NpCloth.obj
 0001:00044210       ?recreate@?$Array@IVNamedAllocator@shdfnd@physx@@@shdfnd@physx@@IAEXI@Z 10045210 f i NpCloth.obj
 0001:000442d0       ?recreate@?$Array@UPxClothFabricPhase@physx@@VNamedAllocator@shdfnd@2@@shdfnd@physx@@IAEXI@Z 100452d0 f i NpCloth.obj
 0001:00044390       ?recreate@?$Array@VPxVec3@physx@@VNamedAllocator@shdfnd@2@@shdfnd@physx@@IAEXI@Z 10045390 f i NpCloth.obj
 0001:00044440       ?release@?$NpActorTemplate@VPxCloth@physx@@@physx@@UAEXXZ 10045440 f i NpCloth.obj
 0001:00044450       ?resize@?$Array@IVNamedAllocator@shdfnd@physx@@@shdfnd@physx@@QAEXIABI@Z 10045450 f i NpCloth.obj
 0001:000444b0       ?resize@?$Array@UPxClothFabricPhase@physx@@VNamedAllocator@shdfnd@2@@shdfnd@physx@@QAEXIABUPxClothFabricPhase@3@@Z 100454b0 f i NpCloth.obj
 0001:00044520       ?resize@?$Array@VPxVec3@physx@@VNamedAllocator@shdfnd@2@@shdfnd@physx@@QAEXIABVPxVec3@3@@Z 10045520 f i NpCloth.obj
 0001:00044580       ?resolveReferences@?$NpActorTemplate@VPxCloth@physx@@@physx@@UAEXAAVPxDeserializationContext@2@@Z 10045580 f i NpCloth.obj
 0001:00044590       ?setActorFlag@?$NpActorTemplate@VPxCloth@physx@@@physx@@UAEXW4Enum@PxActorFlag@2@_N@Z 10045590 f i NpCloth.obj
 0001:00044660       ?setActorFlags@?$NpActorTemplate@VPxCloth@physx@@@physx@@UAEXV?$PxFlags@W4Enum@PxActorFlag@physx@@E@2@@Z 10045660 f i NpCloth.obj
 0001:000446c0       ?setAngularDragCoefficient@Cloth@Scb@physx@@QAEXVPxVec3@3@@Z 100456c0 f i NpCloth.obj
 0001:00044750       ?setAngularInertiaScale@Cloth@Scb@physx@@QAEXVPxVec3@3@@Z 10045750 f i NpCloth.obj
 0001:000447e0       ?setCentrifugalInertiaScale@Cloth@Scb@physx@@QAEXVPxVec3@3@@Z 100457e0 f i NpCloth.obj
 0001:00044870       ?setClientBehaviorFlags@?$NpActorTemplate@VPxCloth@physx@@@physx@@UAEXV?$PxFlags@W4Enum@PxActorClientBehaviorFlag@physx@@E@2@@Z 10045870 f i NpCloth.obj
 0001:000448d0       ?setCollisionSpheres@Cloth@Scb@physx@@QAEXPBUPxClothCollisionSphere@3@I@Z 100458d0 f i NpCloth.obj
 0001:00044930       ?setDampingCoefficient@Cloth@Scb@physx@@QAEXVPxVec3@3@@Z 10045930 f i NpCloth.obj
 0001:000449c0       ?setDominanceGroup@?$NpActorTemplate@VPxCloth@physx@@@physx@@UAEXE@Z 100459c0 f i NpCloth.obj
 0001:00044a20       ?setExternalAcceleration@Cloth@Scb@physx@@QAEXVPxVec3@3@@Z 10045a20 f i NpCloth.obj
 0001:00044ab0       ?setLinearDragCoefficient@Cloth@Scb@physx@@QAEXVPxVec3@3@@Z 10045ab0 f i NpCloth.obj
 0001:00044b40       ?setLinearInertiaScale@Cloth@Scb@physx@@QAEXVPxVec3@3@@Z 10045b40 f i NpCloth.obj
 0001:00044bd0       ?setName@?$NpActorTemplate@VPxCloth@physx@@@physx@@UAEXPBD@Z 10045bd0 f i NpCloth.obj
 0001:00044c50       ?setOwnerClient@?$NpActorTemplate@VPxCloth@physx@@@physx@@UAEXE@Z 10045c50 f i NpCloth.obj
 0001:00044cc0       ?setWakeCounter@Cloth@Scb@physx@@QAEXM@Z 10045cc0 f i NpCloth.obj
 0001:00044d30       ?wakeUp@Cloth@Scb@physx@@QAEXXZ 10045d30 f i NpCloth.obj
 0001:00044da0       ?onRefCountZero@NpClothFabric@physx@@UAEXXZ 10045da0 f   NpClothFabric.obj
 0001:00044e10       ?exportExtraData@NpClothFabric@physx@@UAEXAAVPxSerializationContext@2@@Z 10045e10 f   NpClothFabric.obj
 0001:00044e20       ?importExtraData@NpClothFabric@physx@@QAEXAAVPxDeserializationContext@2@@Z 10045e20 f   NpClothFabric.obj
 0001:00044e30       ?createObject@NpClothFabric@physx@@SAPAV12@AAPAEAAVPxDeserializationContext@2@@Z 10045e30 f   NpClothFabric.obj
 0001:00044ea0       ??0NpClothFabric@physx@@QAE@XZ 10045ea0 f   NpClothFabric.obj
 0001:00044ef0       ?load@NpClothFabric@physx@@QAE_NAAVPxInputStream@2@@Z 10045ef0 f   NpClothFabric.obj
 0001:00044f00       ?load@NpClothFabric@physx@@QAE_NABVPxClothFabricDesc@2@@Z 10045f00 f   NpClothFabric.obj
 0001:00044f10       ?release@NpClothFabric@physx@@UAEXXZ 10045f10 f   NpClothFabric.obj
 0001:00044f30       ?getNbParticles@NpClothFabric@physx@@UBEIXZ 10045f30 f   NpClothFabric.obj
 0001:00044f40       ?getNbPhases@NpClothFabric@physx@@UBEIXZ 10045f40 f   NpClothFabric.obj
 0001:00044f50       ?getNbSets@NpClothFabric@physx@@UBEIXZ 10045f50 f   NpClothFabric.obj
 0001:00044f60       ?getNbParticleIndices@NpClothFabric@physx@@UBEIXZ 10045f60 f   NpClothFabric.obj
 0001:00044f70       ?getNbRestvalues@NpClothFabric@physx@@UBEIXZ 10045f70 f   NpClothFabric.obj
 0001:00044f80       ?getNbTethers@NpClothFabric@physx@@UBEIXZ 10045f80 f   NpClothFabric.obj
 0001:00044f90       ?getPhases@NpClothFabric@physx@@UBEIPAUPxClothFabricPhase@2@I@Z 10045f90 f   NpClothFabric.obj
 0001:00044fa0       ?getSets@NpClothFabric@physx@@UBEIPAII@Z 10045fa0 f   NpClothFabric.obj
 0001:00044fb0       ?getParticleIndices@NpClothFabric@physx@@UBEIPAII@Z 10045fb0 f   NpClothFabric.obj
 0001:00044fc0       ?getRestvalues@NpClothFabric@physx@@UBEIPAMI@Z 10045fc0 f   NpClothFabric.obj
 0001:00044fd0       ?getTetherAnchors@NpClothFabric@physx@@UBEIPAII@Z 10045fd0 f   NpClothFabric.obj
 0001:00044fe0       ?getTetherLengths@NpClothFabric@physx@@UBEIPAMI@Z 10045fe0 f   NpClothFabric.obj
 0001:00044ff0       ?getPhaseType@NpClothFabric@physx@@QBE?AW4Enum@PxClothFabricPhaseType@2@I@Z 10045ff0 f   NpClothFabric.obj
 0001:00045000       ?scaleRestlengths@NpClothFabric@physx@@UAEXM@Z 10046000 f   NpClothFabric.obj
 0001:00045020       ?getReferenceCount@NpClothFabric@physx@@UBEIXZ 10046020 f   NpClothFabric.obj
 0001:00045030       ?acquireReference@NpClothFabric@physx@@UAEXXZ 10046030 f   NpClothFabric.obj
 0001:00045040       ??1NpClothFabric@physx@@UAE@XZ 10046040 f   NpClothFabric.obj
 0001:00045120       ??1PxClothFabric@physx@@MAE@XZ 10046120 f i NpClothFabric.obj
 0001:00045130       ??1RefCountable@Cm@physx@@UAE@XZ 10046130 f i NpClothFabric.obj
 0001:00045137       ??_ENpClothFabric@physx@@W7AEPAXI@Z 10046137 f i NpClothFabric.obj
 0001:00045150       ??_GNpClothFabric@physx@@UAEPAXI@Z 10046150 f i NpClothFabric.obj
 0001:00045150       ??_ENpClothFabric@physx@@UAEPAXI@Z 10046150 f i NpClothFabric.obj
 0001:000451c0       ??_GPxClothFabric@physx@@MAEPAXI@Z 100461c0 f i NpClothFabric.obj
 0001:000451c0       ??_EPxClothFabric@physx@@MAEPAXI@Z 100461c0 f i NpClothFabric.obj
 0001:000451f0       ??_GRefCountable@Cm@physx@@UAEPAXI@Z 100461f0 f i NpClothFabric.obj
 0001:000451f0       ??_ERefCountable@Cm@physx@@UAEPAXI@Z 100461f0 f i NpClothFabric.obj
 0001:00045220       ?getConcreteTypeName@PxClothFabric@physx@@UBEPBDXZ 10046220 f i NpClothFabric.obj
 0001:00045230       ?isKindOf@PxClothFabric@physx@@MBE_NPBD@Z 10046230 f i NpClothFabric.obj
 0001:000452d0       ?onRefCountZero@RefCountable@Cm@physx@@UAEXXZ 100462d0 f i NpClothFabric.obj
 0001:000452e0       ?requires@NpClothFabric@physx@@UAEXAAVPxProcessPxBaseCallback@2@@Z 100462e0 f i NpClothFabric.obj
 0001:000452f0       ?unlock@NpClothParticleData@physx@@UAEXXZ 100462f0 f   NpClothParticleData.obj
 0001:00045320       ?tryLock@NpClothParticleData@physx@@QAE_NV?$PxFlags@W4Enum@PxDataAccessFlag@physx@@E@2@@Z 10046320 f   NpClothParticleData.obj
 0001:00045360       _PxConstructSolverBodies   10046360 f   NpImmediateMode.obj
 0001:00045560       _PxConstructStaticSolverBody 10046560 f   NpImmediateMode.obj
 0001:000455c0       _PxBatchConstraints        100465c0 f   NpImmediateMode.obj
 0001:00045750       _PxCreateContactConstraints 10046750 f   NpImmediateMode.obj
 0001:00045910       _PxCreateJointConstraints  10046910 f   NpImmediateMode.obj
 0001:00045a40       _PxCreateJointConstraintsWithShaders 10046a40 f   NpImmediateMode.obj
 0001:00045c00       _PxSolveConstraints        10046c00 f   NpImmediateMode.obj
 0001:00045db0       _PxIntegrateSolverBodies   10046db0 f   NpImmediateMode.obj
 0001:00046330       _PxGenerateContacts        10047330 f   NpImmediateMode.obj
 0001:00046760       ?createCache@physx@@YAXAAUCache@Gu@1@W4Enum@PxGeometryType@1@1AAVPxCacheAllocator@1@@Z 10047760 f   NpImmediateMode.obj
 0001:00047130       ??0ContactPatchData@CorrelationBuffer@Dy@physx@@QAE@XZ 10048130 f i NpImmediateMode.obj
 0001:00047140       ??0ContactPoint@Gu@physx@@QAE@XZ 10048140 f i NpImmediateMode.obj
 0001:00047150       ??0FrictionPatch@Dy@physx@@QAE@XZ 10048150 f i NpImmediateMode.obj
 0001:00047160       ??0LargePersistentContactManifold@Gu@physx@@QAE@XZ 10048160 f i NpImmediateMode.obj
 0001:000471e0       ??0PersistentContact@Gu@physx@@QAE@XZ 100481e0 f i NpImmediateMode.obj
 0001:000471f0       ??0Px1DConstraint@physx@@QAE@XZ 100481f0 f i NpImmediateMode.obj
 0001:00047200       ??0PxBounds3@physx@@QAE@XZ 10048200 f i NpImmediateMode.obj
 0001:00047210       ??0SpherePersistentContactManifold@Gu@physx@@QAE@XZ 10048210 f i NpImmediateMode.obj
 0001:00047290       ?exportExtraData@NpActor@physx@@QAEXAAVPxSerializationContext@2@@Z 10048290 f   NpActor.obj
 0001:00047410       ?importExtraData@NpActor@physx@@QAEXAAVPxDeserializationContext@2@@Z 10048410 f   NpActor.obj
 0001:000474c0       ?resolveReferences@NpActor@physx@@QAEXAAVPxDeserializationContext@2@@Z 100484c0 f   NpActor.obj
 0001:00047520       ??0NpActor@physx@@QAE@PBD@Z 10048520 f   NpActor.obj
 0001:00047540       ?releaseConstraints@NpActor@physx@@QAEXAAVPxRigidActor@2@@Z 10048540 f   NpActor.obj
 0001:000475d0       ?release@NpActor@physx@@QAEXAAVPxActor@2@@Z 100485d0 f   NpActor.obj
 0001:000475f0       ?getNpAggregate@NpActor@physx@@QBEPAVNpAggregate@2@AAI@Z 100485f0 f   NpActor.obj
 0001:00047630       ?setAggregate@NpActor@physx@@QAEXPAVNpAggregate@2@AAVPxActor@2@@Z 10048630 f   NpActor.obj
 0001:000476a0       ?getAggregate@NpActor@physx@@QBEPAVPxAggregate@2@XZ 100486a0 f   NpActor.obj
 0001:000476d0       ?removeConstraintsFromScene@NpActor@physx@@QAEXXZ 100486d0 f   NpActor.obj
 0001:00047750       ?findConnector@NpActor@physx@@QBEIW4Enum@NpConnectorType@2@PAVPxBase@2@@Z 10048750 f   NpActor.obj
 0001:000477a0       ?addConnector@NpActor@physx@@QAEXW4Enum@NpConnectorType@2@PAVPxBase@2@PBD@Z 100487a0 f   NpActor.obj
 0001:000478c0       ?removeConnector@NpActor@physx@@QAEXAAVPxActor@2@W4Enum@NpConnectorType@2@PAVPxBase@2@PBD@Z 100488c0 f   NpActor.obj
 0001:00047940       ?getNbConnectors@NpActor@physx@@QBEIW4Enum@NpConnectorType@2@@Z 10048940 f   NpActor.obj
 0001:00047990       ?getShapeManager@NpActor@physx@@SAPAVNpShapeManager@2@AAVPxRigidActor@2@@Z 10048990 f   NpActor.obj
 0001:000479c0       ?getShapeManager@NpActor@physx@@SAPBVNpShapeManager@2@ABVPxRigidActor@2@@Z 100489c0 f   NpActor.obj
 0001:000479f0       ?getGlobalPose@NpActor@physx@@SAXAAVPxTransform@2@ABVNpShape@2@ABVPxRigidActor@2@@Z 100489f0 f   NpActor.obj
 0001:00047a10       ?getGlobalPose@NpActor@physx@@SAXAAVPxTransform@2@ABVShape@Scb@2@ABVActor@52@@Z 10048a10 f   NpActor.obj
 0001:00047e20       ?getAPIScene@NpActor@physx@@SAPAVNpScene@2@ABVPxActor@2@@Z 10048e20 f   NpActor.obj
 0001:00047e60       ?getOwnerScene@NpActor@physx@@SAPAVNpScene@2@ABVPxActor@2@@Z 10048e60 f   NpActor.obj
 0001:00047e90       ?onActorRelease@NpActor@physx@@SAXPAVPxActor@2@@Z 10048e90 f   NpActor.obj
 0001:00047eb0       ??1NpActor@physx@@IAE@XZ   10048eb0 f   NpActor.obj
 0001:00047ec0       ?addConstraintsToSceneInternal@NpActor@physx@@AAEXXZ 10048ec0 f   NpActor.obj
 0001:00047f60       ?removeConnector@NpActor@physx@@AAEXAAVPxActor@2@I@Z 10048f60 f   NpActor.obj
 0001:00047ff0       ??0Offsets@NpActor@physx@@QAE@XZ 10048ff0 f   NpActor.obj
 0001:000483f0       ??$exportArray@VNpConnector@physx@@V?$InlineAllocator@$0CA@VNamedAllocator@shdfnd@physx@@@shdfnd@2@@Cm@physx@@YAXABV?$Array@VNpConnector@physx@@V?$InlineAllocator@$0CA@VNamedAllocator@shdfnd@physx@@@shdfnd@2@@shdfnd@1@AAVPxSerializationContext@1@@Z 100493f0 f i NpActor.obj
 0001:00048440       ??$exportInlineArray@VNpConnector@physx@@$03VNamedAllocator@shdfnd@2@@Cm@physx@@YAXABV?$InlineArray@VNpConnector@physx@@$03VNamedAllocator@shdfnd@2@@shdfnd@1@AAVPxSerializationContext@1@@Z 10049440 f i NpActor.obj
 0001:00048490       ??$importArray@VNpConnector@physx@@V?$InlineAllocator@$0CA@VNamedAllocator@shdfnd@physx@@@shdfnd@2@@Cm@physx@@YAXAAV?$Array@VNpConnector@physx@@V?$InlineAllocator@$0CA@VNamedAllocator@shdfnd@physx@@@shdfnd@2@@shdfnd@1@AAVPxDeserializationContext@1@@Z 10049490 f i NpActor.obj
 0001:000484e0       ??$importInlineArray@VNpConnector@physx@@$03VNamedAllocator@shdfnd@2@@Cm@physx@@YAXAAV?$InlineArray@VNpConnector@physx@@$03VNamedAllocator@shdfnd@2@@shdfnd@1@AAVPxDeserializationContext@1@@Z 100494e0 f i NpActor.obj
 0001:00048530       ?assign@?$Array@VNpConnector@physx@@V?$InlineAllocator@$0CA@VNamedAllocator@shdfnd@physx@@@shdfnd@2@@shdfnd@physx@@QAEXPBVNpConnector@3@0@Z 10049530 f i NpActor.obj
 0001:000485a0       ?create@?$HashBase@PAVPxConstraint@physx@@PAV12@U?$Hash@PAVPxConstraint@physx@@@shdfnd@2@UGetKey@?$HashSetBase@PAVPxConstraint@physx@@U?$Hash@PAVPxConstraint@physx@@@shdfnd@2@VNonTrackingAllocator@42@$00@internal@42@VNonTrackingAllocator@42@$00@internal@shdfnd@physx@@QAEPAPAVPxConstraint@4@ABQAV54@AA_N@Z 100495a0 f i NpActor.obj
 0001:00048720       ?erase@?$HashBase@PAVPxConstraint@physx@@PAV12@U?$Hash@PAVPxConstraint@physx@@@shdfnd@2@UGetKey@?$HashSetBase@PAVPxConstraint@physx@@U?$Hash@PAVPxConstraint@physx@@@shdfnd@2@VNonTrackingAllocator@42@$00@internal@42@VNonTrackingAllocator@42@$00@internal@shdfnd@physx@@QAE_NABQAVPxConstraint@4@@Z 10049720 f i NpActor.obj
 0001:00048800       ?getKinematicTarget@Body@Scb@physx@@QBE_NAAVPxTransform@3@@Z 10049800 f i NpActor.obj
 0001:00048890       ?growAndPushBack@?$Array@VNpConnector@physx@@V?$InlineAllocator@$0CA@VNamedAllocator@shdfnd@physx@@@shdfnd@2@@shdfnd@physx@@IAEAAVNpConnector@3@ABV43@@Z 10049890 f i NpActor.obj
 0001:000489e0       ?recreate@?$Array@VNpConnector@physx@@V?$InlineAllocator@$0CA@VNamedAllocator@shdfnd@physx@@@shdfnd@2@@shdfnd@physx@@IAEXI@Z 100499e0 f i NpActor.obj
 0001:00048b00       ?replaceWithLast@?$HashBase@PAVPxConstraint@physx@@PAV12@U?$Hash@PAVPxConstraint@physx@@@shdfnd@2@UGetKey@?$HashSetBase@PAVPxConstraint@physx@@U?$Hash@PAVPxConstraint@physx@@@shdfnd@2@VNonTrackingAllocator@42@$00@internal@42@VNonTrackingAllocator@42@$00@internal@shdfnd@physx@@AAEXI@Z 10049b00 f i NpActor.obj
 0001:00048bb0       ?reserveInternal@?$HashBase@PAVPxConstraint@physx@@PAV12@U?$Hash@PAVPxConstraint@physx@@@shdfnd@2@UGetKey@?$HashSetBase@PAVPxConstraint@physx@@U?$Hash@PAVPxConstraint@physx@@@shdfnd@2@VNonTrackingAllocator@42@$00@internal@42@VNonTrackingAllocator@42@$00@internal@shdfnd@physx@@AAEXI@Z 10049bb0 f i NpActor.obj
 0001:00048da0       ?resizeUninitialized@?$Array@VNpConnector@physx@@V?$InlineAllocator@$0CA@VNamedAllocator@shdfnd@physx@@@shdfnd@2@@shdfnd@physx@@QAEXI@Z 10049da0 f i NpActor.obj
 0001:00048dd0       ?exportExtraData@NpAggregate@physx@@UAEXAAVPxSerializationContext@2@@Z 10049dd0 f   NpAggregate.obj
 0001:00048e00       ?importExtraData@NpAggregate@physx@@QAEXAAVPxDeserializationContext@2@@Z 10049e00 f   NpAggregate.obj
 0001:00048e30       ?resolveReferences@NpAggregate@physx@@QAEXAAVPxDeserializationContext@2@@Z 10049e30 f   NpAggregate.obj
 0001:00048ee0       ?requires@NpAggregate@physx@@UAEXAAVPxProcessPxBaseCallback@2@@Z 10049ee0 f   NpAggregate.obj
 0001:00048f40       ?createObject@NpAggregate@physx@@SAPAV12@AAPAEAAVPxDeserializationContext@2@@Z 10049f40 f   NpAggregate.obj
 0001:00048fb0       ??0NpAggregate@physx@@QAE@I_N@Z 10049fb0 f   NpAggregate.obj
 0001:00049030       ??1NpAggregate@physx@@UAE@XZ 1004a030 f   NpAggregate.obj
 0001:00049080       ?release@NpAggregate@physx@@UAEXXZ 1004a080 f   NpAggregate.obj
 0001:000491c0       ?addActor@NpAggregate@physx@@UAE_NAAVPxActor@2@@Z 1004a1c0 f   NpAggregate.obj
 0001:000492d0       ?removeActor@NpAggregate@physx@@UAE_NAAVPxActor@2@@Z 1004a2d0 f   NpAggregate.obj
 0001:00049370       ?addArticulation@NpAggregate@physx@@UAE_NAAVPxArticulation@2@@Z 1004a370 f   NpAggregate.obj
 0001:000494f0       ?removeArticulation@NpAggregate@physx@@UAE_NAAVPxArticulation@2@@Z 1004a4f0 f   NpAggregate.obj
 0001:00049560       ?getNbActors@NpAggregate@physx@@UBEIXZ 1004a560 f   NpAggregate.obj
 0001:000495a0       ?getMaxNbActors@NpAggregate@physx@@UBEIXZ 1004a5a0 f   NpAggregate.obj
 0001:000495e0       ?getActors@NpAggregate@physx@@UBEIPAPAVPxActor@2@II@Z 1004a5e0 f   NpAggregate.obj
 0001:00049660       ?getScene@NpAggregate@physx@@UAEPAVPxScene@2@XZ 1004a660 f   NpAggregate.obj
 0001:000496a0       ?getSelfCollision@NpAggregate@physx@@UBE_NXZ 1004a6a0 f   NpAggregate.obj
 0001:000496e0       ?getAPIScene@NpAggregate@physx@@QBEPAVNpScene@2@XZ 1004a6e0 f   NpAggregate.obj
 0001:00049720       ?getOwnerScene@NpAggregate@physx@@QBEPAVNpScene@2@XZ 1004a720 f   NpAggregate.obj
 0001:00049730       ?addActorInternal@NpAggregate@physx@@QAEXAAVPxActor@2@AAVNpScene@2@@Z 1004a730 f   NpAggregate.obj
 0001:000497c0       ?removeAndReinsert@NpAggregate@physx@@QAEXAAVPxActor@2@_N@Z 1004a7c0 f   NpAggregate.obj
 0001:00049800       ?removeActorAndReinsert@NpAggregate@physx@@QAE_NAAVPxActor@2@_N@Z 1004a800 f   NpAggregate.obj
 0001:000498a0       ?removeArticulationAndReinsert@NpAggregate@physx@@QAE_NAAVPxArticulation@2@_N@Z 1004a8a0 f   NpAggregate.obj
 0001:00049c40       ??$pointerOffset@PAVNpActor@physx@@@shdfnd@physx@@YAPAVNpActor@1@PAXH@Z 1004ac40 f i NpAggregate.obj
 0001:00049c50       ??1PxAggregate@physx@@MAE@XZ 1004ac50 f i NpAggregate.obj
 0001:00049c60       ??_ENpAggregate@physx@@UAEPAXI@Z 1004ac60 f i NpAggregate.obj
 0001:00049c60       ??_GNpAggregate@physx@@UAEPAXI@Z 1004ac60 f i NpAggregate.obj
 0001:00049cf0       ??_EPxAggregate@physx@@MAEPAXI@Z 1004acf0 f i NpAggregate.obj
 0001:00049cf0       ??_GPxAggregate@physx@@MAEPAXI@Z 1004acf0 f i NpAggregate.obj
 0001:00049d20       ?erase@?$HashBase@PAVPxAggregate@physx@@PAV12@U?$Hash@PAVPxAggregate@physx@@@shdfnd@2@UGetKey@?$HashSetBase@PAVPxAggregate@physx@@U?$Hash@PAVPxAggregate@physx@@@shdfnd@2@VNonTrackingAllocator@42@$00@internal@42@VNonTrackingAllocator@42@$00@internal@shdfnd@physx@@QAE_NABQAVPxAggregate@4@@Z 1004ad20 f i NpAggregate.obj
 0001:00049e00       ?getConcreteTypeName@PxAggregate@physx@@UBEPBDXZ 1004ae00 f i NpAggregate.obj
 0001:00049e10       ?isKindOf@PxAggregate@physx@@MBE_NPBD@Z 1004ae10 f i NpAggregate.obj
 0001:00049eb0       ?replaceWithLast@?$HashBase@PAVPxAggregate@physx@@PAV12@U?$Hash@PAVPxAggregate@physx@@@shdfnd@2@UGetKey@?$HashSetBase@PAVPxAggregate@physx@@U?$Hash@PAVPxAggregate@physx@@@shdfnd@2@VNonTrackingAllocator@42@$00@internal@42@VNonTrackingAllocator@42@$00@internal@shdfnd@physx@@AAEXI@Z 1004aeb0 f i NpAggregate.obj
 0001:00049f60       ?NpArticulationGetRootFromScb@physx@@YAPAVBody@Scb@1@AAVArticulation@31@@Z 1004af60 f   NpArticulation.obj
 0001:00049f90       ??1NpArticulation@physx@@UAE@XZ 1004af90 f   NpArticulation.obj
 0001:00049ff0       ?exportExtraData@NpArticulation@physx@@UAEXAAVPxSerializationContext@2@@Z 1004aff0 f   NpArticulation.obj
 0001:0004a040       ?importExtraData@NpArticulation@physx@@QAEXAAVPxDeserializationContext@2@@Z 1004b040 f   NpArticulation.obj
 0001:0004a0a0       ?resolveReferences@NpArticulation@physx@@QAEXAAVPxDeserializationContext@2@@Z 1004b0a0 f   NpArticulation.obj
 0001:0004a100       ?requires@NpArticulation@physx@@UAEXAAVPxProcessPxBaseCallback@2@@Z 1004b100 f   NpArticulation.obj
 0001:0004a140       ?createObject@NpArticulation@physx@@SAPAV12@AAPAEAAVPxDeserializationContext@2@@Z 1004b140 f   NpArticulation.obj
 0001:0004a1c0       ?release@NpArticulation@physx@@UAEXXZ 1004b1c0 f   NpArticulation.obj
 0001:0004a2b0       ?getScene@NpArticulation@physx@@UBEPAVPxScene@2@XZ 1004b2b0 f   NpArticulation.obj
 0001:0004a2f0       ?getInternalDriveIterations@NpArticulation@physx@@UBEIXZ 1004b2f0 f   NpArticulation.obj
 0001:0004a350       ?setInternalDriveIterations@NpArticulation@physx@@UAEXI@Z 1004b350 f   NpArticulation.obj
 0001:0004a3a0       ?getExternalDriveIterations@NpArticulation@physx@@UBEIXZ 1004b3a0 f   NpArticulation.obj
 0001:0004a400       ?setExternalDriveIterations@NpArticulation@physx@@UAEXI@Z 1004b400 f   NpArticulation.obj
 0001:0004a450       ?getMaxProjectionIterations@NpArticulation@physx@@UBEIXZ 1004b450 f   NpArticulation.obj
 0001:0004a4b0       ?setMaxProjectionIterations@NpArticulation@physx@@UAEXI@Z 1004b4b0 f   NpArticulation.obj
 0001:0004a500       ?getSeparationTolerance@NpArticulation@physx@@UBEMXZ 1004b500 f   NpArticulation.obj
 0001:0004a570       ?setSeparationTolerance@NpArticulation@physx@@UAEXM@Z 1004b570 f   NpArticulation.obj
 0001:0004a5c0       ?setSleepThreshold@NpArticulation@physx@@UAEXM@Z 1004b5c0 f   NpArticulation.obj
 0001:0004a610       ?getSleepThreshold@NpArticulation@physx@@UBEMXZ 1004b610 f   NpArticulation.obj
 0001:0004a680       ?setStabilizationThreshold@NpArticulation@physx@@UAEXM@Z 1004b680 f   NpArticulation.obj
 0001:0004a6d0       ?getStabilizationThreshold@NpArticulation@physx@@UBEMXZ 1004b6d0 f   NpArticulation.obj
 0001:0004a740       ?setWakeCounter@NpArticulation@physx@@UAEXM@Z 1004b740 f   NpArticulation.obj
 0001:0004a7c0       ?getWakeCounter@NpArticulation@physx@@UBEMXZ 1004b7c0 f   NpArticulation.obj
 0001:0004a810       ?setSolverIterationCounts@NpArticulation@physx@@UAEXII@Z 1004b810 f   NpArticulation.obj
 0001:0004a940       ?getSolverIterationCounts@NpArticulation@physx@@UBEXAAI0@Z 1004b940 f   NpArticulation.obj
 0001:0004a9b0       ?isSleeping@NpArticulation@physx@@UBE_NXZ 1004b9b0 f   NpArticulation.obj
 0001:0004aa90       ?wakeUp@NpArticulation@physx@@UAEXXZ 1004ba90 f   NpArticulation.obj
 0001:0004ac40       ?putToSleep@NpArticulation@physx@@UAEXXZ 1004bc40 f   NpArticulation.obj
 0001:0004ad90       ?createLink@NpArticulation@physx@@UAEPAVPxArticulationLink@2@PAV32@ABVPxTransform@2@@Z 1004bd90 f   NpArticulation.obj
 0001:0004af50       ?getNbLinks@NpArticulation@physx@@UBEIXZ 1004bf50 f   NpArticulation.obj
 0001:0004af90       ?getLinks@NpArticulation@physx@@UBEIPAPAVPxArticulationLink@2@II@Z 1004bf90 f   NpArticulation.obj
 0001:0004b010       ?getWorldBounds@NpArticulation@physx@@UBE?AVPxBounds3@2@M@Z 1004c010 f   NpArticulation.obj
 0001:0004b1f0       ?getAggregate@NpArticulation@physx@@UBEPAVPxAggregate@2@XZ 1004c1f0 f   NpArticulation.obj
 0001:0004b230       ?setName@NpArticulation@physx@@UAEXPBD@Z 1004c230 f   NpArticulation.obj
 0001:0004b270       ?getName@NpArticulation@physx@@UBEPBDXZ 1004c270 f   NpArticulation.obj
 0001:0004b2b0       ?createDriveCache@NpArticulation@physx@@UBEPAVPxArticulationDriveCache@2@MI@Z 1004c2b0 f   NpArticulation.obj
 0001:0004b3a0       ?updateDriveCache@NpArticulation@physx@@UBEXAAVPxArticulationDriveCache@2@MI@Z 1004c3a0 f   NpArticulation.obj
 0001:0004b4f0       ?releaseDriveCache@NpArticulation@physx@@UBEXAAVPxArticulationDriveCache@2@@Z 1004c4f0 f   NpArticulation.obj
 0001:0004b5d0       ?applyImpulse@NpArticulation@physx@@UAEXPAVPxArticulationLink@2@ABVPxArticulationDriveCache@2@ABVPxVec3@2@2@Z 1004c5d0 f   NpArticulation.obj
 0001:0004b8c0       ?computeImpulseResponse@NpArticulation@physx@@UBEXPAVPxArticulationLink@2@AAVPxVec3@2@1ABVPxArticulationDriveCache@2@ABV42@3@Z 1004c8c0 f   NpArticulation.obj
 0001:0004bb20       ??0NpArticulation@physx@@QAE@XZ 1004cb20 f   NpArticulation.obj
 0001:0004bbc0       ?getRoot@NpArticulation@physx@@QAEPAVNpArticulationLink@2@XZ 1004cbc0 f   NpArticulation.obj
 0001:0004bbd0       ?getAPIScene@NpArticulation@physx@@QBEPAVNpScene@2@XZ 1004cbd0 f   NpArticulation.obj
 0001:0004bc10       ?getOwnerScene@NpArticulation@physx@@QBEPAVNpScene@2@XZ 1004cc10 f   NpArticulation.obj
 0001:0004bc20       ?wakeUpInternal@NpArticulation@physx@@QAEX_N0@Z 1004cc20 f   NpArticulation.obj
 0001:0004bdc0       ?visualize@NpArticulation@physx@@QAEXAAVRenderOutput@Cm@2@PAVNpScene@2@@Z 1004cdc0 f   NpArticulation.obj
 0001:0004c5a0       ??$exportArray@PAVNpArticulationLink@physx@@V?$InlineAllocator@$0BA@VNamedAllocator@shdfnd@physx@@@shdfnd@2@@Cm@physx@@YAXABV?$Array@PAVNpArticulationLink@physx@@V?$InlineAllocator@$0BA@VNamedAllocator@shdfnd@physx@@@shdfnd@2@@shdfnd@1@AAVPxSerializationContext@1@@Z 1004d5a0 f i NpArticulation.obj
 0001:0004c5f0       ??$exportInlineArray@PAVNpArticulationLink@physx@@$03VNamedAllocator@shdfnd@2@@Cm@physx@@YAXABV?$InlineArray@PAVNpArticulationLink@physx@@$03VNamedAllocator@shdfnd@2@@shdfnd@1@AAVPxSerializationContext@1@@Z 1004d5f0 f i NpArticulation.obj
 0001:0004c640       ??$importArray@PAVNpArticulationLink@physx@@V?$InlineAllocator@$0BA@VNamedAllocator@shdfnd@physx@@@shdfnd@2@@Cm@physx@@YAXAAV?$Array@PAVNpArticulationLink@physx@@V?$InlineAllocator@$0BA@VNamedAllocator@shdfnd@physx@@@shdfnd@2@@shdfnd@1@AAVPxDeserializationContext@1@@Z 1004d640 f i NpArticulation.obj
 0001:0004c690       ??$importInlineArray@PAVNpArticulationLink@physx@@$03VNamedAllocator@shdfnd@2@@Cm@physx@@YAXAAV?$InlineArray@PAVNpArticulationLink@physx@@$03VNamedAllocator@shdfnd@2@@shdfnd@1@AAVPxDeserializationContext@1@@Z 1004d690 f i NpArticulation.obj
 0001:0004c6e0       ??0?$InlineArray@PAVNpArticulationLink@physx@@$03VNamedAllocator@shdfnd@2@@shdfnd@physx@@QAE@ABVNamedAllocator@12@@Z 1004d6e0 f i NpArticulation.obj
 0001:0004c790       ??0NpArticulation@physx@@QAE@V?$PxFlags@W4Enum@PxBaseFlag@physx@@G@1@@Z 1004d790 f i NpArticulation.obj
 0001:0004c810       ??1PxArticulation@physx@@MAE@XZ 1004d810 f i NpArticulation.obj
 0001:0004c820       ??_ENpArticulation@physx@@UAEPAXI@Z 1004d820 f i NpArticulation.obj
 0001:0004c820       ??_GNpArticulation@physx@@UAEPAXI@Z 1004d820 f i NpArticulation.obj
 0001:0004c8d0       ??_GPxArticulation@physx@@MAEPAXI@Z 1004d8d0 f i NpArticulation.obj
 0001:0004c8d0       ??_EPxArticulation@physx@@MAEPAXI@Z 1004d8d0 f i NpArticulation.obj
 0001:0004c900       ?erase@?$HashBase@PAVPxArticulation@physx@@PAV12@U?$Hash@PAVPxArticulation@physx@@@shdfnd@2@UGetKey@?$HashSetBase@PAVPxArticulation@physx@@U?$Hash@PAVPxArticulation@physx@@@shdfnd@2@VNonTrackingAllocator@42@$00@internal@42@VNonTrackingAllocator@42@$00@internal@shdfnd@physx@@QAE_NABQAVPxArticulation@4@@Z 1004d900 f i NpArticulation.obj
 0001:0004c9e0       ?getConcreteTypeName@PxArticulation@physx@@UBEPBDXZ 1004d9e0 f i NpArticulation.obj
 0001:0004c9f0       ?isFinite@PxVec3@physx@@QBE_NXZ 1004d9f0 f i NpArticulation.obj
 0001:0004ca70       ?isKindOf@PxArticulation@physx@@MBE_NPBD@Z 1004da70 f i NpArticulation.obj
 0001:0004cb10       ?replaceWithLast@?$HashBase@PAVPxArticulation@physx@@PAV12@U?$Hash@PAVPxArticulation@physx@@@shdfnd@2@UGetKey@?$HashSetBase@PAVPxArticulation@physx@@U?$Hash@PAVPxArticulation@physx@@@shdfnd@2@VNonTrackingAllocator@42@$00@internal@42@VNonTrackingAllocator@42@$00@internal@shdfnd@physx@@AAEXI@Z 1004db10 f i NpArticulation.obj
 0001:0004cbc0       ?setExternalDriveIterations@Articulation@Scb@physx@@QAEXI@Z 1004dbc0 f i NpArticulation.obj
 0001:0004cc60       ?setFreezeThreshold@Articulation@Scb@physx@@QAEXM@Z 1004dc60 f i NpArticulation.obj
 0001:0004cd10       ?setInternalDriveIterations@Articulation@Scb@physx@@QAEXI@Z 1004dd10 f i NpArticulation.obj
 0001:0004cdb0       ?setMaxProjectionIterations@Articulation@Scb@physx@@QAEXI@Z 1004ddb0 f i NpArticulation.obj
 0001:0004ce50       ?setSeparationTolerance@Articulation@Scb@physx@@QAEXM@Z 1004de50 f i NpArticulation.obj
 0001:0004cf00       ?setSleepThreshold@Articulation@Scb@physx@@QAEXM@Z 1004df00 f i NpArticulation.obj
 0001:0004cfb0       ?setSolverIterationCounts@Articulation@Scb@physx@@QAEXG@Z 1004dfb0 f i NpArticulation.obj
 0001:0004d060       ?setWakeCounter@Articulation@Scb@physx@@QAEXM@Z 1004e060 f i NpArticulation.obj
 0001:0004d140       ?setWakeCounter@Body@Scb@physx@@QAEXM@Z 1004e140 f i NpArticulation.obj
 0001:0004d220       ?wakeUpInternal@Body@Scb@physx@@QAEXM@Z 1004e220 f i NpArticulation.obj
 0001:0004d2d0       ?NpArticulationJointGetBodiesFromScb@physx@@YAXAAVArticulationJoint@Scb@1@AAPAVBody@31@1@Z 1004e2d0 f   NpArticulationJoint.obj
 0001:0004d300       ?resolveReferences@NpArticulationJoint@physx@@UAEXAAVPxDeserializationContext@2@@Z 1004e300 f   NpArticulationJoint.obj
 0001:0004d360       ?createObject@NpArticulationJoint@physx@@SAPAV12@AAPAEAAVPxDeserializationContext@2@@Z 1004e360 f   NpArticulationJoint.obj
 0001:0004d3b0       ??0NpArticulationJoint@physx@@QAE@AAVNpArticulationLink@1@ABVPxTransform@1@01@Z 1004e3b0 f   NpArticulationJoint.obj
 0001:0004d410       ??1NpArticulationJoint@physx@@UAE@XZ 1004e410 f   NpArticulationJoint.obj
 0001:0004d430       ?getParentPose@NpArticulationJoint@physx@@UBE?AVPxTransform@2@XZ 1004e430 f   NpArticulationJoint.obj
 0001:0004d6f0       ?setParentPose@NpArticulationJoint@physx@@UAEXABVPxTransform@2@@Z 1004e6f0 f   NpArticulationJoint.obj
 0001:0004da90       ?getChildPose@NpArticulationJoint@physx@@UBE?AVPxTransform@2@XZ 1004ea90 f   NpArticulationJoint.obj
 0001:0004dd60       ?setChildPose@NpArticulationJoint@physx@@UAEXABVPxTransform@2@@Z 1004ed60 f   NpArticulationJoint.obj
 0001:0004e100       ?setTargetOrientation@NpArticulationJoint@physx@@UAEXABVPxQuat@2@@Z 1004f100 f   NpArticulationJoint.obj
 0001:0004e2f0       ?getTargetOrientation@NpArticulationJoint@physx@@UBE?AVPxQuat@2@XZ 1004f2f0 f   NpArticulationJoint.obj
 0001:0004e360       ?setTargetVelocity@NpArticulationJoint@physx@@UAEXABVPxVec3@2@@Z 1004f360 f   NpArticulationJoint.obj
 0001:0004e490       ?getTargetVelocity@NpArticulationJoint@physx@@UBE?AVPxVec3@2@XZ 1004f490 f   NpArticulationJoint.obj
 0001:0004e4f0       ?setDriveType@NpArticulationJoint@physx@@UAEXW4Enum@PxArticulationJointDriveType@2@@Z 1004f4f0 f   NpArticulationJoint.obj
 0001:0004e540       ?getDriveType@NpArticulationJoint@physx@@UBE?AW4Enum@PxArticulationJointDriveType@2@XZ 1004f540 f   NpArticulationJoint.obj
 0001:0004e5a0       ?setStiffness@NpArticulationJoint@physx@@UAEXM@Z 1004f5a0 f   NpArticulationJoint.obj
 0001:0004e670       ?getStiffness@NpArticulationJoint@physx@@UBEMXZ 1004f670 f   NpArticulationJoint.obj
 0001:0004e6d0       ?setDamping@NpArticulationJoint@physx@@UAEXM@Z 1004f6d0 f   NpArticulationJoint.obj
 0001:0004e7a0       ?getDamping@NpArticulationJoint@physx@@UBEMXZ 1004f7a0 f   NpArticulationJoint.obj
 0001:0004e800       ?setInternalCompliance@NpArticulationJoint@physx@@UAEXM@Z 1004f800 f   NpArticulationJoint.obj
 0001:0004e8d0       ?getInternalCompliance@NpArticulationJoint@physx@@UBEMXZ 1004f8d0 f   NpArticulationJoint.obj
 0001:0004e930       ?setExternalCompliance@NpArticulationJoint@physx@@UAEXM@Z 1004f930 f   NpArticulationJoint.obj
 0001:0004ea00       ?getExternalCompliance@NpArticulationJoint@physx@@UBEMXZ 1004fa00 f   NpArticulationJoint.obj
 0001:0004ea60       ?setSwingLimit@NpArticulationJoint@physx@@UAEXMM@Z 1004fa60 f   NpArticulationJoint.obj
 0001:0004ebc0       ?getSwingLimit@NpArticulationJoint@physx@@UBEXAAM0@Z 1004fbc0 f   NpArticulationJoint.obj
 0001:0004ec40       ?setTangentialStiffness@NpArticulationJoint@physx@@UAEXM@Z 1004fc40 f   NpArticulationJoint.obj
 0001:0004ed10       ?getTangentialStiffness@NpArticulationJoint@physx@@UBEMXZ 1004fd10 f   NpArticulationJoint.obj
 0001:0004ed70       ?setTangentialDamping@NpArticulationJoint@physx@@UAEXM@Z 1004fd70 f   NpArticulationJoint.obj
 0001:0004ee40       ?getTangentialDamping@NpArticulationJoint@physx@@UBEMXZ 1004fe40 f   NpArticulationJoint.obj
 0001:0004eea0       ?setSwingLimitEnabled@NpArticulationJoint@physx@@UAEX_N@Z 1004fea0 f   NpArticulationJoint.obj
 0001:0004eef0       ?getSwingLimitEnabled@NpArticulationJoint@physx@@UBE_NXZ 1004fef0 f   NpArticulationJoint.obj
 0001:0004ef50       ?setSwingLimitContactDistance@NpArticulationJoint@physx@@UAEXM@Z 1004ff50 f   NpArticulationJoint.obj
 0001:0004f020       ?getSwingLimitContactDistance@NpArticulationJoint@physx@@UBEMXZ 10050020 f   NpArticulationJoint.obj
 0001:0004f080       ?setTwistLimit@NpArticulationJoint@physx@@UAEXMM@Z 10050080 f   NpArticulationJoint.obj
 0001:0004f1d0       ?getTwistLimit@NpArticulationJoint@physx@@UBEXAAM0@Z 100501d0 f   NpArticulationJoint.obj
 0001:0004f250       ?setTwistLimitEnabled@NpArticulationJoint@physx@@UAEX_N@Z 10050250 f   NpArticulationJoint.obj
 0001:0004f2a0       ?getTwistLimitEnabled@NpArticulationJoint@physx@@UBE_NXZ 100502a0 f   NpArticulationJoint.obj
 0001:0004f300       ?setTwistLimitContactDistance@NpArticulationJoint@physx@@UAEXM@Z 10050300 f   NpArticulationJoint.obj
 0001:0004f3d0       ?getTwistLimitContactDistance@NpArticulationJoint@physx@@UBEMXZ 100503d0 f   NpArticulationJoint.obj
 0001:0004f430       ?release@NpArticulationJoint@physx@@UAEXXZ 10050430 f   NpArticulationJoint.obj
 0001:0004f490       ?getOwnerScene@NpArticulationJoint@physx@@ABEPAVNpScene@2@XZ 10050490 f   NpArticulationJoint.obj
 0001:0004fd20       ??1PxArticulationJoint@physx@@MAE@XZ 10050d20 f i NpArticulationJoint.obj
 0001:0004fd30       ??_GNpArticulationJoint@physx@@UAEPAXI@Z 10050d30 f i NpArticulationJoint.obj
 0001:0004fd30       ??_ENpArticulationJoint@physx@@UAEPAXI@Z 10050d30 f i NpArticulationJoint.obj
 0001:0004fda0       ??_EPxArticulationJoint@physx@@MAEPAXI@Z 10050da0 f i NpArticulationJoint.obj
 0001:0004fda0       ??_GPxArticulationJoint@physx@@MAEPAXI@Z 10050da0 f i NpArticulationJoint.obj
 0001:0004fdd0       ?getConcreteTypeName@PxArticulationJoint@physx@@UBEPBDXZ 10050dd0 f i NpArticulationJoint.obj
 0001:0004fde0       ?isKindOf@PxArticulationJoint@physx@@MBE_NPBD@Z 10050de0 f i NpArticulationJoint.obj
 0001:0004fe80       ?isSubordinate@NpArticulationJoint@physx@@UBE_NXZ 10050e80 f i NpArticulationJoint.obj
 0001:0004fe90       ?isUnit@PxQuat@physx@@QBE_NXZ 10050e90 f i NpArticulationJoint.obj
 0001:0004ffb0       ?requires@NpArticulationJoint@physx@@UAEXAAVPxProcessPxBaseCallback@2@@Z 10050fb0 f i NpArticulationJoint.obj
 0001:0004ffc0       ?setChildPose@ArticulationJoint@Scb@physx@@QAEXABVPxTransform@3@@Z 10050fc0 f i NpArticulationJoint.obj
 0001:000500a0       ?setDamping@ArticulationJoint@Scb@physx@@QAEXM@Z 100510a0 f i NpArticulationJoint.obj
 0001:00050150       ?setDriveType@ArticulationJoint@Scb@physx@@QAEXW4Enum@PxArticulationJointDriveType@3@@Z 10051150 f i NpArticulationJoint.obj
 0001:00050200       ?setExternalCompliance@ArticulationJoint@Scb@physx@@QAEXM@Z 10051200 f i NpArticulationJoint.obj
 0001:000502c0       ?setInternalCompliance@ArticulationJoint@Scb@physx@@QAEXM@Z 100512c0 f i NpArticulationJoint.obj
 0001:00050370       ?setParentPose@ArticulationJoint@Scb@physx@@QAEXABVPxTransform@3@@Z 10051370 f i NpArticulationJoint.obj
 0001:00050450       ?setStiffness@ArticulationJoint@Scb@physx@@QAEXM@Z 10051450 f i NpArticulationJoint.obj
 0001:00050500       ?setSwingLimit@ArticulationJoint@Scb@physx@@QAEXMM@Z 10051500 f i NpArticulationJoint.obj
 0001:000505d0       ?setSwingLimitContactDistance@ArticulationJoint@Scb@physx@@QAEXM@Z 100515d0 f i NpArticulationJoint.obj
 0001:00050690       ?setSwingLimitEnabled@ArticulationJoint@Scb@physx@@QAEX_N@Z 10051690 f i NpArticulationJoint.obj
 0001:00050740       ?setTangentialDamping@ArticulationJoint@Scb@physx@@QAEXM@Z 10051740 f i NpArticulationJoint.obj
 0001:00050800       ?setTangentialStiffness@ArticulationJoint@Scb@physx@@QAEXM@Z 10051800 f i NpArticulationJoint.obj
 0001:000508c0       ?setTargetOrientation@ArticulationJoint@Scb@physx@@QAEXABVPxQuat@3@@Z 100518c0 f i NpArticulationJoint.obj
 0001:00050980       ?setTargetVelocity@ArticulationJoint@Scb@physx@@QAEXABVPxVec3@3@@Z 10051980 f i NpArticulationJoint.obj
 0001:00050a40       ?setTwistLimit@ArticulationJoint@Scb@physx@@QAEXMM@Z 10051a40 f i NpArticulationJoint.obj
 0001:00050b10       ?setTwistLimitContactDistance@ArticulationJoint@Scb@physx@@QAEXM@Z 10051b10 f i NpArticulationJoint.obj
 0001:00050bd0       ?setTwistLimitEnabled@ArticulationJoint@Scb@physx@@QAEX_N@Z 10051bd0 f i NpArticulationJoint.obj
 0001:00050c80       ?exportExtraData@NpArticulationLink@physx@@UAEXAAVPxSerializationContext@2@@Z 10051c80 f   NpArticulationLink.obj
 0001:00050cf0       ?importExtraData@NpArticulationLink@physx@@QAEXAAVPxDeserializationContext@2@@Z 10051cf0 f   NpArticulationLink.obj
 0001:00050d60       ?resolveReferences@NpArticulationLink@physx@@UAEXAAVPxDeserializationContext@2@@Z 10051d60 f   NpArticulationLink.obj
 0001:00050e20       ?requires@NpArticulationLink@physx@@UAEXAAVPxProcessPxBaseCallback@2@@Z 10051e20 f   NpArticulationLink.obj
 0001:00050e80       ?createObject@NpArticulationLink@physx@@SAPAV12@AAPAEAAVPxDeserializationContext@2@@Z 10051e80 f   NpArticulationLink.obj
 0001:00050f00       ??1NpArticulationLink@physx@@UAE@XZ 10051f00 f   NpArticulationLink.obj
 0001:00050f80       ?release@NpArticulationLink@physx@@UAEXXZ 10051f80 f   NpArticulationLink.obj
 0001:00051040       ?setGlobalPose@NpArticulationLink@physx@@UAEXABVPxTransform@2@@Z 10052040 f   NpArticulationLink.obj
 0001:00051060       ?setGlobalPose@NpArticulationLink@physx@@UAEXABVPxTransform@2@_N@Z 10052060 f   NpArticulationLink.obj
 0001:00051340       ?getGlobalPose@NpArticulationLink@physx@@UBE?AVPxTransform@2@XZ 10052340 f   NpArticulationLink.obj
 0001:00051730       ?setLinearVelocity@NpArticulationLink@physx@@UAEXABVPxVec3@2@_N@Z 10052730 f   NpArticulationLink.obj
 0001:000518b0       ?setAngularVelocity@NpArticulationLink@physx@@UAEXABVPxVec3@2@_N@Z 100528b0 f   NpArticulationLink.obj
 0001:00051a30       ?getArticulation@NpArticulationLink@physx@@UBEAAVPxArticulation@2@XZ 10052a30 f   NpArticulationLink.obj
 0001:00051a70       ?getInboundJoint@NpArticulationLink@physx@@UBEPAVPxArticulationJoint@2@XZ 10052a70 f   NpArticulationLink.obj
 0001:00051ab0       ?getNbChildren@NpArticulationLink@physx@@UBEIXZ 10052ab0 f   NpArticulationLink.obj
 0001:00051af0       ?getChildren@NpArticulationLink@physx@@UBEIPAPAVPxArticulationLink@2@II@Z 10052af0 f   NpArticulationLink.obj
 0001:00051b70       ?setCMassLocalPose@NpArticulationLink@physx@@UAEXABVPxTransform@2@@Z 10052b70 f   NpArticulationLink.obj
 0001:00052390       ?addForce@NpArticulationLink@physx@@UAEXABVPxVec3@2@W4Enum@PxForceMode@2@_N@Z 10053390 f   NpArticulationLink.obj
 0001:00052550       ?addTorque@NpArticulationLink@physx@@UAEXABVPxVec3@2@W4Enum@PxForceMode@2@_N@Z 10053550 f   NpArticulationLink.obj
 0001:00052710       ?clearForce@NpArticulationLink@physx@@UAEXW4Enum@PxForceMode@2@@Z 10053710 f   NpArticulationLink.obj
 0001:000527d0       ?clearTorque@NpArticulationLink@physx@@UAEXW4Enum@PxForceMode@2@@Z 100537d0 f   NpArticulationLink.obj
 0001:00052890       ??0NpArticulationLink@physx@@QAE@ABVPxTransform@1@AAVNpArticulation@1@PAV01@@Z 10053890 f   NpArticulationLink.obj
 0001:000529c0       ?releaseInternal@NpArticulationLink@physx@@QAEXXZ 100539c0 f   NpArticulationLink.obj
 0001:00052a60       ?visualize@NpArticulationLink@physx@@QAEXAAVRenderOutput@Cm@2@PAVNpScene@2@@Z 10053a60 f   NpArticulationLink.obj
 0001:00052d00       ?visualizeJoint@NpArticulationLink@physx@@QAEXAAVPxConstraintVisualizer@2@@Z 10053d00 f   NpArticulationLink.obj
 0001:000540b0       ??$getConnectors@VPxConstraint@physx@@@NpActor@physx@@QBEIW4Enum@NpConnectorType@1@PAPAVPxConstraint@1@II@Z 100550b0 f i NpArticulationLink.obj
 0001:00054180       ??0?$NpActorTemplate@VPxArticulationLink@physx@@@physx@@QAE@GV?$PxFlags@W4Enum@PxBaseFlag@physx@@G@1@PBDPAX@Z 10055180 f i NpArticulationLink.obj
 0001:000541e0       ??0?$NpRigidActorTemplate@VPxArticulationLink@physx@@@physx@@QAE@GV?$PxFlags@W4Enum@PxBaseFlag@physx@@G@1@@Z 100551e0 f i NpArticulationLink.obj
 0001:00054240       ??0?$NpRigidBodyTemplate@VPxArticulationLink@physx@@@physx@@QAE@GV?$PxFlags@W4Enum@PxBaseFlag@physx@@G@1@W4Enum@PxActorType@1@ABVPxTransform@1@@Z 10055240 f i NpArticulationLink.obj
 0001:000542c0       ??0?$NpRigidBodyTemplate@VPxArticulationLink@physx@@@physx@@QAE@V?$PxFlags@W4Enum@PxBaseFlag@physx@@G@1@@Z 100552c0 f i NpArticulationLink.obj
 0001:00054350       ??0Body@Scb@physx@@QAE@W4Enum@PxActorType@2@ABVPxTransform@2@@Z 10055350 f i NpArticulationLink.obj
 0001:00054460       ??0PxMat44@physx@@QAE@W4PxIDENTITY@1@@Z 10055460 f i NpArticulationLink.obj
 0001:00054500       ??1?$NpActorTemplate@VPxArticulationLink@physx@@@physx@@UAE@XZ 10055500 f i NpArticulationLink.obj
 0001:00054530       ??1?$NpRigidActorTemplate@VPxArticulationLink@physx@@@physx@@UAE@XZ 10055530 f i NpArticulationLink.obj
 0001:00054570       ??1?$NpRigidBodyTemplate@VPxArticulationLink@physx@@@physx@@UAE@XZ 10055570 f i NpArticulationLink.obj
 0001:000545c0       ??1PxArticulationLink@physx@@MAE@XZ 100555c0 f i NpArticulationLink.obj
 0001:000545d0       ??1PxRigidActor@physx@@MAE@XZ 100555d0 f i NpArticulationLink.obj
 0001:000545e0       ??1PxRigidBody@physx@@MAE@XZ 100555e0 f i NpArticulationLink.obj
 0001:000545f0       ??_G?$NpActorTemplate@VPxArticulationLink@physx@@@physx@@UAEPAXI@Z 100555f0 f i NpArticulationLink.obj
 0001:000545f0       ??_E?$NpActorTemplate@VPxArticulationLink@physx@@@physx@@UAEPAXI@Z 100555f0 f i NpArticulationLink.obj
 0001:00054660       ??_E?$NpRigidActorTemplate@VPxArticulationLink@physx@@@physx@@UAEPAXI@Z 10055660 f i NpArticulationLink.obj
 0001:00054660       ??_G?$NpRigidActorTemplate@VPxArticulationLink@physx@@@physx@@UAEPAXI@Z 10055660 f i NpArticulationLink.obj
 0001:000546e0       ??_G?$NpRigidBodyTemplate@VPxArticulationLink@physx@@@physx@@UAEPAXI@Z 100556e0 f i NpArticulationLink.obj
 0001:000546e0       ??_E?$NpRigidBodyTemplate@VPxArticulationLink@physx@@@physx@@UAEPAXI@Z 100556e0 f i NpArticulationLink.obj
 0001:00054780       ??_GConstraintImmediateVisualizer@Cm@physx@@UAEPAXI@Z 10055780 f i NpArticulationLink.obj
 0001:00054780       ??_EConstraintImmediateVisualizer@Cm@physx@@UAEPAXI@Z 10055780 f i NpArticulationLink.obj
 0001:000547b0       ??_GNpArticulationLink@physx@@UAEPAXI@Z 100557b0 f i NpArticulationLink.obj
 0001:000547b0       ??_ENpArticulationLink@physx@@UAEPAXI@Z 100557b0 f i NpArticulationLink.obj
 0001:00054810       ??_EPxArticulationLink@physx@@MAEPAXI@Z 10055810 f i NpArticulationLink.obj
 0001:00054810       ??_GPxArticulationLink@physx@@MAEPAXI@Z 10055810 f i NpArticulationLink.obj
 0001:00054840       ??_GPxRigidActor@physx@@MAEPAXI@Z 10055840 f i NpArticulationLink.obj
 0001:00054840       ??_EPxRigidActor@physx@@MAEPAXI@Z 10055840 f i NpArticulationLink.obj
 0001:00054870       ??_EPxRigidBody@physx@@MAEPAXI@Z 10055870 f i NpArticulationLink.obj
 0001:00054870       ??_GPxRigidBody@physx@@MAEPAXI@Z 10055870 f i NpArticulationLink.obj
 0001:000548a0       ?addSpatialAcceleration@Body@Scb@physx@@QAEXPBVPxVec3@3@0@Z 100558a0 f i NpArticulationLink.obj
 0001:000549f0       ?addSpatialForce@?$NpRigidBodyTemplate@VPxArticulationLink@physx@@@physx@@IAEXPBVPxVec3@2@0W4Enum@PxForceMode@2@@Z 100559f0 f i NpArticulationLink.obj
 0001:00054d00       ?addSpatialVelocity@Body@Scb@physx@@QAEXPBVPxVec3@3@0@Z 10055d00 f i NpArticulationLink.obj
 0001:00054e90       ?attachShape@?$NpRigidActorTemplate@VPxArticulationLink@physx@@@physx@@UAEXAAVPxShape@2@@Z 10055e90 f i NpArticulationLink.obj
 0001:00054fd0       ?attachShape@?$NpRigidBodyTemplate@VPxArticulationLink@physx@@@physx@@UAEXAAVPxShape@2@@Z 10055fd0 f i NpArticulationLink.obj
 0001:00055130       ?clearSpatialAcceleration@Body@Scb@physx@@QAEX_N0@Z 10056130 f i NpArticulationLink.obj
 0001:00055220       ?clearSpatialForce@?$NpRigidBodyTemplate@VPxArticulationLink@physx@@@physx@@IAEXW4Enum@PxForceMode@2@_N1@Z 10056220 f i NpArticulationLink.obj
 0001:00055280       ?clearSpatialVelocity@Body@Scb@physx@@QAEX_N0@Z 10056280 f i NpArticulationLink.obj
 0001:000553b0       ?copy@?$Array@UPxDebugLine@physx@@VNamedAllocator@shdfnd@2@@shdfnd@physx@@KAXPAUPxDebugLine@3@0PBU43@@Z 100563b0 f i NpArticulationLink.obj
 0001:00055440       ?createShape@?$NpRigidBodyTemplate@VPxArticulationLink@physx@@@physx@@UAEPAVPxShape@2@ABVPxGeometry@2@PBQAVPxMaterial@2@GV?$PxFlags@W4Enum@PxShapeFlag@physx@@E@2@@Z 10056440 f i NpArticulationLink.obj
 0001:000555b0       ?detachShape@?$NpRigidActorTemplate@VPxArticulationLink@physx@@@physx@@UAEXAAVPxShape@2@_N@Z 100565b0 f i NpArticulationLink.obj
 0001:00055670       ?exportExtraData@?$NpActorTemplate@VPxArticulationLink@physx@@@physx@@UAEXAAVPxSerializationContext@2@@Z 10056670 f i NpArticulationLink.obj
 0001:00055680       ?exportExtraData@?$NpRigidActorTemplate@VPxArticulationLink@physx@@@physx@@UAEXAAVPxSerializationContext@2@@Z 10056680 f i NpArticulationLink.obj
 0001:000556b0       ?getActorFlags@?$NpActorTemplate@VPxArticulationLink@physx@@@physx@@UBE?AV?$PxFlags@W4Enum@PxActorFlag@physx@@E@2@XZ 100566b0 f i NpArticulationLink.obj
 0001:00055730       ?getAggregate@?$NpActorTemplate@VPxArticulationLink@physx@@@physx@@UBEPAVPxAggregate@2@XZ 10056730 f i NpArticulationLink.obj
 0001:00055740       ?getAngularVelocity@?$NpRigidBodyTemplate@VPxArticulationLink@physx@@@physx@@UBE?AVPxVec3@2@XZ 10056740 f i NpArticulationLink.obj
 0001:000557b0       ?getCMassLocalPose@?$NpRigidBodyTemplate@VPxArticulationLink@physx@@@physx@@UBE?AVPxTransform@2@XZ 100567b0 f i NpArticulationLink.obj
 0001:00055850       ?getClientBehaviorFlags@?$NpActorTemplate@VPxArticulationLink@physx@@@physx@@UBE?AV?$PxFlags@W4Enum@PxActorClientBehaviorFlag@physx@@E@2@XZ 10056850 f i NpArticulationLink.obj
 0001:000558d0       ?getConcreteTypeName@PxArticulationLink@physx@@UBEPBDXZ 100568d0 f i NpArticulationLink.obj
 0001:000558e0       ?getConstraints@?$NpRigidActorTemplate@VPxArticulationLink@physx@@@physx@@UBEIPAPAVPxConstraint@2@II@Z 100568e0 f i NpArticulationLink.obj
 0001:00055940       ?getDominanceGroup@?$NpActorTemplate@VPxArticulationLink@physx@@@physx@@UBEEXZ 10056940 f i NpArticulationLink.obj
 0001:000559d0       ?getGlobalInertiaTensorInverse@Body@Scb@physx@@QBE?AVPxMat33@3@XZ 100569d0 f i NpArticulationLink.obj
 0001:00055cc0       ?getInvMass@?$NpRigidBodyTemplate@VPxArticulationLink@physx@@@physx@@UBEMXZ 10056cc0 f i NpArticulationLink.obj
 0001:00055d40       ?getInverseMass@Body@Scb@physx@@QBEMXZ 10056d40 f i NpArticulationLink.obj
 0001:00055d80       ?getLinearVelocity@?$NpRigidBodyTemplate@VPxArticulationLink@physx@@@physx@@UBE?AVPxVec3@2@XZ 10056d80 f i NpArticulationLink.obj
 0001:00055df0       ?getMass@?$NpRigidBodyTemplate@VPxArticulationLink@physx@@@physx@@UBEMXZ 10056df0 f i NpArticulationLink.obj
 0001:00055ea0       ?getMassSpaceInertiaTensor@?$NpRigidBodyTemplate@VPxArticulationLink@physx@@@physx@@UBE?AVPxVec3@2@XZ 10056ea0 f i NpArticulationLink.obj
 0001:00055f80       ?getMassSpaceInvInertiaTensor@?$NpRigidBodyTemplate@VPxArticulationLink@physx@@@physx@@UBE?AVPxVec3@2@XZ 10056f80 f i NpArticulationLink.obj
 0001:00056000       ?getMaxContactImpulse@?$NpRigidBodyTemplate@VPxArticulationLink@physx@@@physx@@UBEMXZ 10057000 f i NpArticulationLink.obj
 0001:00056070       ?getMaxDepenetrationVelocity@?$NpRigidBodyTemplate@VPxArticulationLink@physx@@@physx@@UBEMXZ 10057070 f i NpArticulationLink.obj
 0001:000560f0       ?getMinCCDAdvanceCoefficient@?$NpRigidBodyTemplate@VPxArticulationLink@physx@@@physx@@UBEMXZ 100570f0 f i NpArticulationLink.obj
 0001:00056160       ?getName@?$NpActorTemplate@VPxArticulationLink@physx@@@physx@@UBEPBDXZ 10057160 f i NpArticulationLink.obj
 0001:000561a0       ?getNbConstraints@?$NpRigidActorTemplate@VPxArticulationLink@physx@@@physx@@UBEIXZ 100571a0 f i NpArticulationLink.obj
 0001:000561f0       ?getNbShapes@?$NpRigidActorTemplate@VPxArticulationLink@physx@@@physx@@UBEIXZ 100571f0 f i NpArticulationLink.obj
 0001:00056230       ?getOwnerClient@?$NpActorTemplate@VPxArticulationLink@physx@@@physx@@UBEEXZ 10057230 f i NpArticulationLink.obj
 0001:00056260       ?getRigidBodyFlags@?$NpRigidBodyTemplate@VPxArticulationLink@physx@@@physx@@UBE?AV?$PxFlags@W4Enum@PxRigidBodyFlag@physx@@E@2@XZ 10057260 f i NpArticulationLink.obj
 0001:000562d0       ?getScene@?$NpActorTemplate@VPxArticulationLink@physx@@@physx@@UBEPAVPxScene@2@XZ 100572d0 f i NpArticulationLink.obj
 0001:000562e0       ?getShapes@?$NpRigidActorTemplate@VPxArticulationLink@physx@@@physx@@UBEIPAPAVPxShape@2@II@Z 100572e0 f i NpArticulationLink.obj
 0001:00056340       ?getType@NpArticulationLink@physx@@UBE?AW4Enum@PxActorType@2@XZ 10057340 f i NpArticulationLink.obj
 0001:00056350       ?getWorldBounds@?$NpRigidActorTemplate@VPxArticulationLink@physx@@@physx@@UBE?AVPxBounds3@2@M@Z 10057350 f i NpArticulationLink.obj
 0001:000564e0       ?growAndPushBack@?$Array@PAVNpArticulationLink@physx@@V?$InlineAllocator@$0BA@VNamedAllocator@shdfnd@physx@@@shdfnd@2@@shdfnd@physx@@IAEAAPAVNpArticulationLink@3@ABQAV43@@Z 100574e0 f i NpArticulationLink.obj
 0001:00056600       ?importExtraData@?$NpRigidActorTemplate@VPxArticulationLink@physx@@@physx@@QAEXAAVPxDeserializationContext@2@@Z 10057600 f i NpArticulationLink.obj
 0001:00056630       ?invertDiagInertia@physx@@YA?AVPxVec3@1@ABV21@@Z 10057630 f i NpArticulationLink.obj
 0001:000566c0       ?isKindOf@PxArticulationLink@physx@@MBE_NPBD@Z 100576c0 f i NpArticulationLink.obj
 0001:00056730       ?isKindOf@PxRigidActor@physx@@MBE_NPBD@Z 10057730 f i NpArticulationLink.obj
 0001:000567a0       ?isKindOf@PxRigidBody@physx@@MBE_NPBD@Z 100577a0 f i NpArticulationLink.obj
 0001:00056850       ?isSubordinate@NpArticulationLink@physx@@UBE_NXZ 10057850 f i NpArticulationLink.obj
 0001:00056860       ?isValid@PxTransform@physx@@QBE_NXZ 10057860 f i NpArticulationLink.obj
 0001:00056900       ?recreate@?$Array@UPxDebugLine@physx@@VNamedAllocator@shdfnd@2@@shdfnd@physx@@IAEXI@Z 10057900 f i NpArticulationLink.obj
 0001:000569b0       ?release@?$NpActorTemplate@VPxArticulationLink@physx@@@physx@@UAEXXZ 100579b0 f i NpArticulationLink.obj
 0001:000569c0       ?release@?$NpRigidActorTemplate@VPxArticulationLink@physx@@@physx@@UAEXXZ 100579c0 f i NpArticulationLink.obj
 0001:00056a40       ?removeFromChildList@NpArticulationLink@physx@@AAEXAAV12@@Z 10057a40 f i NpArticulationLink.obj
 0001:00056aa0       ?requires@?$NpRigidActorTemplate@VPxArticulationLink@physx@@@physx@@UAEXAAVPxProcessPxBaseCallback@2@@Z 10057aa0 f i NpArticulationLink.obj
 0001:00056b00       ?resolveReferences@?$NpActorTemplate@VPxArticulationLink@physx@@@physx@@UAEXAAVPxDeserializationContext@2@@Z 10057b00 f i NpArticulationLink.obj
 0001:00056b10       ?resolveReferences@?$NpRigidActorTemplate@VPxArticulationLink@physx@@@physx@@UAEXAAVPxDeserializationContext@2@@Z 10057b10 f i NpArticulationLink.obj
 0001:00056b90       ?setActorFlag@?$NpActorTemplate@VPxArticulationLink@physx@@@physx@@UAEXW4Enum@PxActorFlag@2@_N@Z 10057b90 f i NpArticulationLink.obj
 0001:00056c60       ?setActorFlag@?$NpRigidActorTemplate@VPxArticulationLink@physx@@@physx@@UAEXW4Enum@PxActorFlag@2@_N@Z 10057c60 f i NpArticulationLink.obj
 0001:00056ee0       ?setActorFlags@?$NpActorTemplate@VPxArticulationLink@physx@@@physx@@UAEXV?$PxFlags@W4Enum@PxActorFlag@physx@@E@2@@Z 10057ee0 f i NpArticulationLink.obj
 0001:00056f40       ?setActorFlags@?$NpRigidActorTemplate@VPxArticulationLink@physx@@@physx@@UAEXV?$PxFlags@W4Enum@PxActorFlag@physx@@E@2@@Z 10057f40 f i NpArticulationLink.obj
 0001:00057130       ?setBody2Actor@Body@Scb@physx@@QAEXABVPxTransform@3@@Z 10058130 f i NpArticulationLink.obj
 0001:00057230       ?setBody2World@Body@Scb@physx@@QAEXABVPxTransform@3@_N@Z 10058230 f i NpArticulationLink.obj
 0001:00057340       ?setCMassLocalPoseInternal@?$NpRigidBodyTemplate@VPxArticulationLink@physx@@@physx@@IAEXABVPxTransform@2@@Z 10058340 f i NpArticulationLink.obj
 0001:00057620       ?setClientBehaviorFlags@?$NpActorTemplate@VPxArticulationLink@physx@@@physx@@UAEXV?$PxFlags@W4Enum@PxActorClientBehaviorFlag@physx@@E@2@@Z 10058620 f i NpArticulationLink.obj
 0001:00057680       ?setClientBehaviorFlags@?$NpRigidActorTemplate@VPxArticulationLink@physx@@@physx@@UAEXV?$PxFlags@W4Enum@PxActorClientBehaviorFlag@physx@@E@2@@Z 10058680 f i NpArticulationLink.obj
 0001:00057710       ?setDominanceGroup@?$NpActorTemplate@VPxArticulationLink@physx@@@physx@@UAEXE@Z 10058710 f i NpArticulationLink.obj
 0001:00057770       ?setFlags@Body@Scb@physx@@QAEXV?$PxFlags@W4Enum@PxRigidBodyFlag@physx@@E@3@@Z 10058770 f i NpArticulationLink.obj
 0001:00057950       ?setInverseInertia@Body@Scb@physx@@QAEXABVPxVec3@3@@Z 10058950 f i NpArticulationLink.obj
 0001:00057a10       ?setInverseMass@Body@Scb@physx@@QAEXM@Z 10058a10 f i NpArticulationLink.obj
 0001:00057ad0       ?setMass@?$NpRigidBodyTemplate@VPxArticulationLink@physx@@@physx@@UAEXM@Z 10058ad0 f i NpArticulationLink.obj
 0001:00057ca0       ?setMassSpaceInertiaTensor@?$NpRigidBodyTemplate@VPxArticulationLink@physx@@@physx@@UAEXABVPxVec3@2@@Z 10058ca0 f i NpArticulationLink.obj
 0001:00057f10       ?setMaxContactImpulse@?$NpRigidBodyTemplate@VPxArticulationLink@physx@@@physx@@UAEXM@Z 10058f10 f i NpArticulationLink.obj
 0001:00057fb0       ?setMaxContactImpulse@Body@Scb@physx@@QAEXM@Z 10058fb0 f i NpArticulationLink.obj
 0001:00058070       ?setMaxDepenetrationVelocity@?$NpRigidBodyTemplate@VPxArticulationLink@physx@@@physx@@UAEXM@Z 10059070 f i NpArticulationLink.obj
 0001:00058120       ?setMaxPenetrationBias@Body@Scb@physx@@QAEXM@Z 10059120 f i NpArticulationLink.obj
 0001:000581d0       ?setMinCCDAdvanceCoefficient@?$NpRigidBodyTemplate@VPxArticulationLink@physx@@@physx@@UAEXM@Z 100591d0 f i NpArticulationLink.obj
 0001:00058230       ?setMinCCDAdvanceCoefficient@Body@Scb@physx@@QAEXM@Z 10059230 f i NpArticulationLink.obj
 0001:000582d0       ?setName@?$NpActorTemplate@VPxArticulationLink@physx@@@physx@@UAEXPBD@Z 100592d0 f i NpArticulationLink.obj
 0001:00058350       ?setOwnerClient@?$NpActorTemplate@VPxArticulationLink@physx@@@physx@@UAEXE@Z 10059350 f i NpArticulationLink.obj
 0001:000583c0       ?setRigidBodyFlag@?$NpRigidBodyTemplate@VPxArticulationLink@physx@@@physx@@UAEXW4Enum@PxRigidBodyFlag@2@_N@Z 100593c0 f i NpArticulationLink.obj
 0001:000587b0       ?setRigidBodyFlags@?$NpRigidBodyTemplate@VPxArticulationLink@physx@@@physx@@UAEXV?$PxFlags@W4Enum@PxRigidBodyFlag@physx@@E@2@@Z 100597b0 f i NpArticulationLink.obj
 0001:00058b80       ?switchFromNoSim@?$NpRigidActorTemplate@VPxArticulationLink@physx@@@physx@@UAEXXZ 10059b80 f i NpArticulationLink.obj
 0001:00058b90       ?switchToNoSim@?$NpRigidActorTemplate@VPxArticulationLink@physx@@@physx@@UAEXXZ 10059b90 f i NpArticulationLink.obj
 0001:00058ba0       ?updateShaderComs@?$NpRigidActorTemplate@VPxArticulationLink@physx@@@physx@@QAEXXZ 10059ba0 f i NpArticulationLink.obj
 0001:00058c10       ?visualize@?$NpRigidActorTemplate@VPxArticulationLink@physx@@@physx@@QAEXAAVRenderOutput@Cm@2@PAVNpScene@2@@Z 10059c10 f i NpArticulationLink.obj
 0001:00058c30       ?visualize@?$NpRigidBodyTemplate@VPxArticulationLink@physx@@@physx@@QAEXAAVRenderOutput@Cm@2@PAVNpScene@2@@Z 10059c30 f i NpArticulationLink.obj
 0001:00059050       ?visualizeAngularLimit@ConstraintImmediateVisualizer@Cm@physx@@UAEXABVPxTransform@3@MM_N@Z 1005a050 f i NpArticulationLink.obj
 0001:000590a0       ?visualizeDoubleCone@ConstraintImmediateVisualizer@Cm@physx@@UAEXABVPxTransform@3@M_N@Z 1005a0a0 f i NpArticulationLink.obj
 0001:000590e0       ?visualizeJointFrames@ConstraintImmediateVisualizer@Cm@physx@@UAEXABVPxTransform@3@0@Z 1005a0e0 f i NpArticulationLink.obj
 0001:00059110       ?visualizeLimitCone@ConstraintImmediateVisualizer@Cm@physx@@UAEXABVPxTransform@3@MM_N@Z 1005a110 f i NpArticulationLink.obj
 0001:00059160       ?visualizeLine@ConstraintImmediateVisualizer@Cm@physx@@UAEXABVPxVec3@3@0I@Z 1005a160 f i NpArticulationLink.obj
 0001:000591e0       ?visualizeLinearLimit@ConstraintImmediateVisualizer@Cm@physx@@UAEXABVPxTransform@3@0M_N@Z 1005a1e0 f i NpArticulationLink.obj
 0001:00059220       ??0NpBatchQuery@physx@@QAE@AAVNpScene@1@ABVPxBatchQueryDesc@1@@Z 1005a220 f   NpBatchQuery.obj
 0001:000592e0       ??1NpBatchQuery@physx@@UAE@XZ 1005a2e0 f   NpBatchQuery.obj
 0001:00059340       ?execute@NpBatchQuery@physx@@UAEXXZ 1005a340 f   NpBatchQuery.obj
 0001:000599c0       ?release@NpBatchQuery@physx@@UAEXXZ 1005a9c0 f   NpBatchQuery.obj
 0001:00059a10       ?getPreFilterShader@NpBatchQuery@physx@@UBEP6A?AW4Enum@PxQueryHitType@2@UPxFilterData@2@0PBXIAAV?$PxFlags@W4Enum@PxHitFlag@physx@@G@2@@ZXZ 1005aa10 f   NpBatchQuery.obj
 0001:00059a20       ?getPostFilterShader@NpBatchQuery@physx@@UBEP6A?AW4Enum@PxQueryHitType@2@UPxFilterData@2@0PBXIABUPxQueryHit@2@@ZXZ 1005aa20 f   NpBatchQuery.obj
 0001:00059a30       ?getFilterShaderData@NpBatchQuery@physx@@UBEPBXXZ 1005aa30 f   NpBatchQuery.obj
 0001:00059a40       ?getFilterShaderDataSize@NpBatchQuery@physx@@UBEIXZ 1005aa40 f   NpBatchQuery.obj
 0001:00059a50       ?getOwnerClient@NpBatchQuery@physx@@UBEEXZ 1005aa50 f   NpBatchQuery.obj
 0001:00059a60       ?setUserMemory@NpBatchQuery@physx@@UAEXABUPxBatchQueryMemory@2@@Z 1005aa60 f   NpBatchQuery.obj
 0001:00059ac0       ?getUserMemory@NpBatchQuery@physx@@UAEABUPxBatchQueryMemory@2@XZ 1005aac0 f   NpBatchQuery.obj
 0001:00059ad0       ?raycast@NpBatchQuery@physx@@UAEXABVPxVec3@2@0MGV?$PxFlags@W4Enum@PxHitFlag@physx@@G@2@ABUPxQueryFilterData@2@PAXPBUPxQueryCache@2@@Z 1005aad0 f   NpBatchQuery.obj
 0001:00059d50       ?overlap@NpBatchQuery@physx@@UAEXABVPxGeometry@2@ABVPxTransform@2@GABUPxQueryFilterData@2@PAXPBUPxQueryCache@2@@Z 1005ad50 f   NpBatchQuery.obj
 0001:00059e90       ?sweep@NpBatchQuery@physx@@UAEXABVPxGeometry@2@ABVPxTransform@2@ABVPxVec3@2@MGV?$PxFlags@W4Enum@PxHitFlag@physx@@G@2@ABUPxQueryFilterData@2@PAXPBUPxQueryCache@2@M@Z 1005ae90 f   NpBatchQuery.obj
 0001:0005a2d0       ?resetResultBuffers@NpBatchQuery@physx@@AAEXXZ 1005b2d0 f   NpBatchQuery.obj
 0001:0005a3b0       ?finalizeExecute@NpBatchQuery@physx@@AAEXXZ 1005b3b0 f   NpBatchQuery.obj
 0001:0005a3f0       ?writeBatchHeader@NpBatchQuery@physx@@AAEXABUBatchStreamHeader@2@@Z 1005b3f0 f   NpBatchQuery.obj
 0001:0005a940       ??$writeStatus@U?$PxBatchQueryResult@UPxOverlapHit@physx@@@physx@@UPxOverlapHit@2@@@YAXPAU?$PxBatchQueryResult@UPxOverlapHit@physx@@@physx@@ABU?$PxHitBuffer@UPxOverlapHit@physx@@@1@PAX_N@Z 1005b940 f i NpBatchQuery.obj
 0001:0005a9a0       ??$writeStatus@U?$PxBatchQueryResult@UPxRaycastHit@physx@@@physx@@UPxRaycastHit@2@@@YAXPAU?$PxBatchQueryResult@UPxRaycastHit@physx@@@physx@@ABU?$PxHitBuffer@UPxRaycastHit@physx@@@1@PAX_N@Z 1005b9a0 f i NpBatchQuery.obj
 0001:0005aa10       ??$writeStatus@U?$PxBatchQueryResult@UPxSweepHit@physx@@@physx@@UPxSweepHit@2@@@YAXPAU?$PxBatchQueryResult@UPxSweepHit@physx@@@physx@@ABU?$PxHitBuffer@UPxSweepHit@physx@@@1@PAX_N@Z 1005ba10 f i NpBatchQuery.obj
 0001:0005aac0       ??0?$PxOverflowBuffer@UPxOverlapHit@physx@@@@QAE@PAUPxOverlapHit@physx@@I@Z 1005bac0 f i NpBatchQuery.obj
 0001:0005ab30       ??0?$PxOverflowBuffer@UPxRaycastHit@physx@@@@QAE@PAUPxRaycastHit@physx@@I@Z 1005bb30 f i NpBatchQuery.obj
 0001:0005ac10       ??0?$PxOverflowBuffer@UPxSweepHit@physx@@@@QAE@PAUPxSweepHit@physx@@I@Z 1005bc10 f i NpBatchQuery.obj
 0001:0005acd0       ??0?$SyncT@V?$ReflectionAllocator@VSyncImpl@shdfnd@physx@@@shdfnd@physx@@@shdfnd@physx@@QAE@ABV?$ReflectionAllocator@VSyncImpl@shdfnd@physx@@@12@@Z 1005bcd0 f i NpBatchQuery.obj
 0001:0005ad60       ??0BatchStreamHeader@physx@@QAE@V?$PxFlags@W4Enum@PxHitFlag@physx@@G@1@PBUPxQueryCache@1@ABUPxQueryFilterData@1@PAXGW4Enum@QTypeROS@@@Z 1005bd60 f i NpBatchQuery.obj
 0001:0005adc0       ??0MultiQueryInput@physx@@QAE@ABVPxVec3@1@0M@Z 1005bdc0 f i NpBatchQuery.obj
 0001:0005ae10       ??1?$PxHitBuffer@UPxOverlapHit@physx@@@physx@@UAE@XZ 1005be10 f i NpBatchQuery.obj
 0001:0005ae20       ??1?$PxHitBuffer@UPxRaycastHit@physx@@@physx@@UAE@XZ 1005be20 f i NpBatchQuery.obj
 0001:0005ae30       ??1?$PxHitBuffer@UPxSweepHit@physx@@@physx@@UAE@XZ 1005be30 f i NpBatchQuery.obj
 0001:0005ae40       ??1?$PxHitCallback@UPxOverlapHit@physx@@@physx@@UAE@XZ 1005be40 f i NpBatchQuery.obj
 0001:0005ae50       ??1?$PxHitCallback@UPxRaycastHit@physx@@@physx@@UAE@XZ 1005be50 f i NpBatchQuery.obj
 0001:0005ae60       ??1?$PxHitCallback@UPxSweepHit@physx@@@physx@@UAE@XZ 1005be60 f i NpBatchQuery.obj
 0001:0005ae70       ??1PxBatchQuery@physx@@MAE@XZ 1005be70 f i NpBatchQuery.obj
 0001:0005ae80       ??4PxRaycastHit@physx@@QAEAAU01@ABU01@@Z 1005be80 f i NpBatchQuery.obj
 0001:0005af10       ??_G?$PxHitBuffer@UPxOverlapHit@physx@@@physx@@UAEPAXI@Z 1005bf10 f i NpBatchQuery.obj
 0001:0005af10       ??_E?$PxHitBuffer@UPxOverlapHit@physx@@@physx@@UAEPAXI@Z 1005bf10 f i NpBatchQuery.obj
 0001:0005af40       ??_E?$PxHitBuffer@UPxRaycastHit@physx@@@physx@@UAEPAXI@Z 1005bf40 f i NpBatchQuery.obj
 0001:0005af40       ??_G?$PxHitBuffer@UPxRaycastHit@physx@@@physx@@UAEPAXI@Z 1005bf40 f i NpBatchQuery.obj
 0001:0005af70       ??_E?$PxHitBuffer@UPxSweepHit@physx@@@physx@@UAEPAXI@Z 1005bf70 f i NpBatchQuery.obj
 0001:0005af70       ??_G?$PxHitBuffer@UPxSweepHit@physx@@@physx@@UAEPAXI@Z 1005bf70 f i NpBatchQuery.obj
 0001:0005afa0       ??_G?$PxHitCallback@UPxOverlapHit@physx@@@physx@@UAEPAXI@Z 1005bfa0 f i NpBatchQuery.obj
 0001:0005afa0       ??_E?$PxHitCallback@UPxOverlapHit@physx@@@physx@@UAEPAXI@Z 1005bfa0 f i NpBatchQuery.obj
 0001:0005afd0       ??_E?$PxHitCallback@UPxRaycastHit@physx@@@physx@@UAEPAXI@Z 1005bfd0 f i NpBatchQuery.obj
 0001:0005afd0       ??_G?$PxHitCallback@UPxRaycastHit@physx@@@physx@@UAEPAXI@Z 1005bfd0 f i NpBatchQuery.obj
 0001:0005b000       ??_E?$PxHitCallback@UPxSweepHit@physx@@@physx@@UAEPAXI@Z 1005c000 f i NpBatchQuery.obj
 0001:0005b000       ??_G?$PxHitCallback@UPxSweepHit@physx@@@physx@@UAEPAXI@Z 1005c000 f i NpBatchQuery.obj
 0001:0005b030       ??_E?$PxOverflowBuffer@UPxOverlapHit@physx@@@@UAEPAXI@Z 1005c030 f i NpBatchQuery.obj
 0001:0005b030       ??_G?$PxOverflowBuffer@UPxOverlapHit@physx@@@@UAEPAXI@Z 1005c030 f i NpBatchQuery.obj
 0001:0005b060       ??_G?$PxOverflowBuffer@UPxRaycastHit@physx@@@@UAEPAXI@Z 1005c060 f i NpBatchQuery.obj
 0001:0005b060       ??_E?$PxOverflowBuffer@UPxRaycastHit@physx@@@@UAEPAXI@Z 1005c060 f i NpBatchQuery.obj
 0001:0005b090       ??_E?$PxOverflowBuffer@UPxSweepHit@physx@@@@UAEPAXI@Z 1005c090 f i NpBatchQuery.obj
 0001:0005b090       ??_G?$PxOverflowBuffer@UPxSweepHit@physx@@@@UAEPAXI@Z 1005c090 f i NpBatchQuery.obj
 0001:0005b0c0       ??_ENpBatchQuery@physx@@UAEPAXI@Z 1005c0c0 f i NpBatchQuery.obj
 0001:0005b0c0       ??_GNpBatchQuery@physx@@UAEPAXI@Z 1005c0c0 f i NpBatchQuery.obj
 0001:0005b170       ??_EPxBatchQuery@physx@@MAEPAXI@Z 1005c170 f i NpBatchQuery.obj
 0001:0005b170       ??_GPxBatchQuery@physx@@MAEPAXI@Z 1005c170 f i NpBatchQuery.obj
 0001:0005b1a0       ?finalizeQuery@?$PxHitCallback@UPxOverlapHit@physx@@@physx@@UAEXXZ 1005c1a0 f i NpBatchQuery.obj
 0001:0005b1b0       ?finalizeQuery@?$PxHitCallback@UPxRaycastHit@physx@@@physx@@UAEXXZ 1005c1b0 f i NpBatchQuery.obj
 0001:0005b1c0       ?finalizeQuery@?$PxHitCallback@UPxSweepHit@physx@@@physx@@UAEXXZ 1005c1c0 f i NpBatchQuery.obj
 0001:0005b1d0       ?finalizeQuery@?$PxOverflowBuffer@UPxOverlapHit@physx@@@@UAEXXZ 1005c1d0 f i NpBatchQuery.obj
 0001:0005b200       ?finalizeQuery@?$PxOverflowBuffer@UPxRaycastHit@physx@@@@UAEXXZ 1005c200 f i NpBatchQuery.obj
 0001:0005b230       ?finalizeQuery@?$PxOverflowBuffer@UPxSweepHit@physx@@@@UAEXXZ 1005c230 f i NpBatchQuery.obj
 0001:0005b260       ?getDesc@NpBatchQuery@physx@@UBEABVPxBatchQueryDesc@2@XZ 1005c260 f i NpBatchQuery.obj
 0001:0005b270       ?processTouches@?$PxHitBuffer@UPxOverlapHit@physx@@@physx@@MAE_NPBUPxOverlapHit@2@I@Z 1005c270 f i NpBatchQuery.obj
 0001:0005b280       ?processTouches@?$PxHitBuffer@UPxRaycastHit@physx@@@physx@@MAE_NPBUPxRaycastHit@2@I@Z 1005c280 f i NpBatchQuery.obj
 0001:0005b290       ?processTouches@?$PxHitBuffer@UPxSweepHit@physx@@@physx@@MAE_NPBUPxSweepHit@2@I@Z 1005c290 f i NpBatchQuery.obj
 0001:0005b2a0       ?processTouches@?$PxOverflowBuffer@UPxOverlapHit@physx@@@@UAE_NPBUPxOverlapHit@physx@@I@Z 1005c2a0 f i NpBatchQuery.obj
 0001:0005b2e0       ?processTouches@?$PxOverflowBuffer@UPxRaycastHit@physx@@@@UAE_NPBUPxRaycastHit@physx@@I@Z 1005c2e0 f i NpBatchQuery.obj
 0001:0005b330       ?processTouches@?$PxOverflowBuffer@UPxSweepHit@physx@@@@UAE_NPBUPxSweepHit@physx@@I@Z 1005c330 f i NpBatchQuery.obj
 0001:0005b490       ?recreate@?$Array@DVNamedAllocator@shdfnd@physx@@@shdfnd@physx@@IAEXI@Z 1005c490 f i NpBatchQuery.obj
 0001:0005b530       ?resizeUninitialized@?$Array@DVNamedAllocator@shdfnd@physx@@@shdfnd@physx@@QAEXI@Z 1005c530 f i NpBatchQuery.obj
 0001:0005b950       ?NpConstraintGetRigidObjectsFromScb@physx@@YAXABVConstraint@Scb@1@AAPAVRigidObject@31@1@Z 1005c950 f   NpConstraint.obj
 0001:0005b9a0       ?setConstraintFunctions@NpConstraint@physx@@UAEXAAVPxConstraintConnector@2@ABUPxConstraintShaderTable@2@@Z 1005c9a0 f   NpConstraint.obj
 0001:0005bb70       ?createObject@NpConstraint@physx@@SAPAV12@AAPAEAAVPxDeserializationContext@2@@Z 1005cb70 f   NpConstraint.obj
 0001:0005bbe0       ?resolveReferences@NpConstraint@physx@@QAEXAAVPxDeserializationContext@2@@Z 1005cbe0 f   NpConstraint.obj
 0001:0005bc20       ??0NpConstraint@physx@@QAE@PAVPxRigidActor@1@0AAVPxConstraintConnector@1@ABUPxConstraintShaderTable@1@I@Z 1005cc20 f   NpConstraint.obj
 0001:0005bd80       ??1NpConstraint@physx@@UAE@XZ 1005cd80 f   NpConstraint.obj
 0001:0005bdc0       ?release@NpConstraint@physx@@UAEXXZ 1005cdc0 f   NpConstraint.obj
 0001:0005beb0       ?getScene@NpConstraint@physx@@UBEPAVPxScene@2@XZ 1005ceb0 f   NpConstraint.obj
 0001:0005bef0       ?getActors@NpConstraint@physx@@UBEXAAPAVPxRigidActor@2@0@Z 1005cef0 f   NpConstraint.obj
 0001:0005bf70       ?setActors@NpConstraint@physx@@UAEXPAVPxRigidActor@2@0@Z 1005cf70 f   NpConstraint.obj
 0001:0005c2e0       ?getFlags@NpConstraint@physx@@UBE?AV?$PxFlags@W4Enum@PxConstraintFlag@physx@@G@2@XZ 1005d2e0 f   NpConstraint.obj
 0001:0005c370       ?setFlags@NpConstraint@physx@@UAEXV?$PxFlags@W4Enum@PxConstraintFlag@physx@@G@2@@Z 1005d370 f   NpConstraint.obj
 0001:0005c490       ?setFlag@NpConstraint@physx@@UAEXW4Enum@PxConstraintFlag@2@_N@Z 1005d490 f   NpConstraint.obj
 0001:0005c5f0       ?getForce@NpConstraint@physx@@UBEXAAVPxVec3@2@0@Z 1005d5f0 f   NpConstraint.obj
 0001:0005c680       ?markDirty@NpConstraint@physx@@UAEXXZ 1005d680 f   NpConstraint.obj
 0001:0005c690       ?setBreakForce@NpConstraint@physx@@UAEXMM@Z 1005d690 f   NpConstraint.obj
 0001:0005c740       ?getBreakForce@NpConstraint@physx@@UBEXAAM0@Z 1005d740 f   NpConstraint.obj
 0001:0005c7f0       ?setMinResponseThreshold@NpConstraint@physx@@UAEXM@Z 1005d7f0 f   NpConstraint.obj
 0001:0005c910       ?getMinResponseThreshold@NpConstraint@physx@@UBEMXZ 1005d910 f   NpConstraint.obj
 0001:0005c9b0       ?isValid@NpConstraint@physx@@UBE_NXZ 1005d9b0 f   NpConstraint.obj
 0001:0005ca70       ?getExternalReference@NpConstraint@physx@@UAEPAXAAI@Z 1005da70 f   NpConstraint.obj
 0001:0005cae0       ?updateConstants@NpConstraint@physx@@QAEXXZ 1005dae0 f   NpConstraint.obj
 0001:0005cb40       ?comShift@NpConstraint@physx@@QAEXPAVPxRigidActor@2@@Z 1005db40 f   NpConstraint.obj
 0001:0005cb80       ?actorDeleted@NpConstraint@physx@@QAEXPAVPxRigidActor@2@@Z 1005db80 f   NpConstraint.obj
 0001:0005cbb0       ?getNpScene@NpConstraint@physx@@QBEPAVNpScene@2@XZ 1005dbb0 f   NpConstraint.obj
 0001:0005cbf0       ?getSceneFromActors@NpConstraint@physx@@QBEPAVNpScene@2@XZ 1005dbf0 f   NpConstraint.obj
 0001:0005cca0       ?getScbRigidObject@NpConstraint@physx@@SAPAVRigidObject@Scb@2@PAVPxRigidActor@2@@Z 1005dca0 f   NpConstraint.obj
 0001:0005d190       ??0Constraint@Scb@physx@@QAE@AAVPxConstraintConnector@2@ABUPxConstraintShaderTable@2@I@Z 1005e190 f i NpConstraint.obj
 0001:0005d220       ??1PxConstraint@physx@@MAE@XZ 1005e220 f i NpConstraint.obj
 0001:0005d230       ??_ENpConstraint@physx@@UAEPAXI@Z 1005e230 f i NpConstraint.obj
 0001:0005d230       ??_GNpConstraint@physx@@UAEPAXI@Z 1005e230 f i NpConstraint.obj
 0001:0005d2b0       ??_GPxConstraint@physx@@MAEPAXI@Z 1005e2b0 f i NpConstraint.obj
 0001:0005d2b0       ??_EPxConstraint@physx@@MAEPAXI@Z 1005e2b0 f i NpConstraint.obj
 0001:0005d2e0       ?getConcreteTypeName@PxConstraint@physx@@UBEPBDXZ 1005e2e0 f i NpConstraint.obj
 0001:0005d2f0       ?isKindOf@PxConstraint@physx@@MBE_NPBD@Z 1005e2f0 f i NpConstraint.obj
 0001:0005d390       ?isSubordinate@NpConstraint@physx@@UBE_NXZ 1005e390 f i NpConstraint.obj
 0001:0005d3a0       ?requires@NpConstraint@physx@@UAEXAAVPxProcessPxBaseCallback@2@@Z 1005e3a0 f i NpConstraint.obj
 0001:0005d3b0       ?setBodies@Constraint@Scb@physx@@QAEXPAVRigidObject@23@0@Z 1005e3b0 f i NpConstraint.obj
 0001:0005d4f0       ?setBreakForce@Constraint@Scb@physx@@QAEXMM@Z 1005e4f0 f i NpConstraint.obj
 0001:0005d5d0       ?setFlags@Constraint@Scb@physx@@QAEXV?$PxFlags@W4Enum@PxConstraintFlag@physx@@G@3@@Z 1005e5d0 f i NpConstraint.obj
 0001:0005d690       ?setMinResponseThreshold@Constraint@Scb@physx@@QAEXM@Z 1005e690 f i NpConstraint.obj
 0001:0005d750       ??0NpFactory@physx@@QAE@XZ 1005e750 f   NpFactory.obj
 0001:0005df20       ??1NpFactory@physx@@EAE@XZ 1005ef20 f   NpFactory.obj
 0001:0005e270       ?createInstance@NpFactory@physx@@SAXXZ 1005f270 f   NpFactory.obj
 0001:0005e2e0       ?destroyInstance@NpFactory@physx@@SAXXZ 1005f2e0 f   NpFactory.obj
 0001:0005e300       ?registerArticulations@NpFactory@physx@@SAXXZ 1005f300 f   NpFactory.obj
 0001:0005e320       ?registerCloth@NpFactory@physx@@SAXXZ 1005f320 f   NpFactory.obj
 0001:0005e350       ?registerParticles@NpFactory@physx@@SAXXZ 1005f350 f   NpFactory.obj
 0001:0005e370       ?release@NpFactory@physx@@QAEXXZ 1005f370 f   NpFactory.obj
 0001:0005e3f0       ?addCollection@NpFactory@physx@@QAEXABVCollection@Cm@2@@Z 1005f3f0 f   NpFactory.obj
 0001:0005e690       ?createRigidDynamic@NpFactory@physx@@QAEPAVPxRigidDynamic@2@ABVPxTransform@2@@Z 1005f690 f   NpFactory.obj
 0001:0005e780       ?addRigidDynamic@NpFactory@physx@@QAEXPAVPxRigidDynamic@2@_N@Z 1005f780 f   NpFactory.obj
 0001:0005e7e0       ?releaseRigidDynamicToPool@NpFactory@physx@@QAEXAAVNpRigidDynamic@2@@Z 1005f7e0 f   NpFactory.obj
 0001:0005e830       ?createRigidStatic@NpFactory@physx@@QAEPAVPxRigidStatic@2@ABVPxTransform@2@@Z 1005f830 f   NpFactory.obj
 0001:0005e8f0       ?addRigidStatic@NpFactory@physx@@QAEXPAVPxRigidStatic@2@_N@Z 1005f8f0 f   NpFactory.obj
 0001:0005e950       ?releaseRigidStaticToPool@NpFactory@physx@@QAEXAAVNpRigidStatic@2@@Z 1005f950 f   NpFactory.obj
 0001:0005e9a0       ?createShape@NpFactory@physx@@QAEPAVNpShape@2@ABVPxGeometry@2@V?$PxFlags@W4Enum@PxShapeFlag@physx@@E@2@PBQAVPxMaterial@2@G_N@Z 1005f9a0 f   NpFactory.obj
 0001:0005ed10       ?addShape@NpFactory@physx@@QAEXPAVPxShape@2@_N@Z 1005fd10 f   NpFactory.obj
 0001:0005ed70       ?releaseShapeToPool@NpFactory@physx@@QAEXAAVNpShape@2@@Z 1005fd70 f   NpFactory.obj
 0001:0005edc0       ?getNbShapes@NpFactory@physx@@QBEIXZ 1005fdc0 f   NpFactory.obj
 0001:0005edd0       ?getShapes@NpFactory@physx@@QBEIPAPAVPxShape@2@II@Z 1005fdd0 f   NpFactory.obj
 0001:0005ee20       ?addConstraint@NpFactory@physx@@QAEXPAVPxConstraint@2@_N@Z 1005fe20 f   NpFactory.obj
 0001:0005ee80       ?createConstraint@NpFactory@physx@@QAEPAVPxConstraint@2@PAVPxRigidActor@2@0AAVPxConstraintConnector@2@ABUPxConstraintShaderTable@2@I@Z 1005fe80 f   NpFactory.obj
 0001:0005ef80       ?releaseConstraintToPool@NpFactory@physx@@QAEXAAVNpConstraint@2@@Z 1005ff80 f   NpFactory.obj
 0001:0005efd0       ?addArticulation@NpFactory@physx@@QAEXPAVPxArticulation@2@_N@Z 1005ffd0 f   NpFactory.obj
 0001:0005f030       ?createArticulation@NpFactory@physx@@QAEPAVPxArticulation@2@XZ 10060030 f   NpFactory.obj
 0001:0005f0b0       ?createNpArticulation@NpFactory@physx@@QAEPAVNpArticulation@2@XZ 100600b0 f   NpFactory.obj
 0001:0005f0e0       ?releaseArticulationToPool@NpFactory@physx@@QAEXAAVNpArticulation@2@@Z 100600e0 f   NpFactory.obj
 0001:0005f130       ?createNpArticulationLink@NpFactory@physx@@QAEPAVNpArticulationLink@2@AAVNpArticulation@2@PAV32@ABVPxTransform@2@@Z 10060130 f   NpFactory.obj
 0001:0005f1c0       ?releaseArticulationLinkToPool@NpFactory@physx@@QAEXAAVNpArticulationLink@2@@Z 100601c0 f   NpFactory.obj
 0001:0005f210       ?createArticulationLink@NpFactory@physx@@QAEPAVPxArticulationLink@2@AAVNpArticulation@2@PAVNpArticulationLink@2@ABVPxTransform@2@@Z 10060210 f   NpFactory.obj
 0001:0005f260       ?createNpArticulationJoint@NpFactory@physx@@QAEPAVNpArticulationJoint@2@AAVNpArticulationLink@2@ABVPxTransform@2@01@Z 10060260 f   NpFactory.obj
 0001:0005f2f0       ?releaseArticulationJointToPool@NpFactory@physx@@QAEXAAVNpArticulationJoint@2@@Z 100602f0 f   NpFactory.obj
 0001:0005f340       ?addAggregate@NpFactory@physx@@QAEXPAVPxAggregate@2@_N@Z 10060340 f   NpFactory.obj
 0001:0005f3a0       ?createAggregate@NpFactory@physx@@QAEPAVPxAggregate@2@I_N@Z 100603a0 f   NpFactory.obj
 0001:0005f450       ?releaseAggregateToPool@NpFactory@physx@@QAEXAAVNpAggregate@2@@Z 10060450 f   NpFactory.obj
 0001:0005f4a0       ?createNpParticleSystem@NpFactory@physx@@QAEPAVNpParticleSystem@2@I_N@Z 100604a0 f   NpFactory.obj
 0001:0005f530       ?releaseParticleSystemToPool@NpFactory@physx@@QAEXAAVNpParticleSystem@2@@Z 10060530 f   NpFactory.obj
 0001:0005f580       ?createNpParticleFluid@NpFactory@physx@@QAEPAVNpParticleFluid@2@I_N@Z 10060580 f   NpFactory.obj
 0001:0005f610       ?releaseParticleFluidToPool@NpFactory@physx@@QAEXAAVNpParticleFluid@2@@Z 10060610 f   NpFactory.obj
 0001:0005f660       ?addParticleSystem@NpFactory@physx@@QAEXPAVPxParticleSystem@2@_N@Z 10060660 f   NpFactory.obj
 0001:0005f6c0       ?createParticleSystem@NpFactory@physx@@QAEPAVPxParticleSystem@2@I_N@Z 100606c0 f   NpFactory.obj
 0001:0005f770       ?addParticleFluid@NpFactory@physx@@QAEXPAVPxParticleFluid@2@_N@Z 10060770 f   NpFactory.obj
 0001:0005f7d0       ?createParticleFluid@NpFactory@physx@@QAEPAVPxParticleFluid@2@I_N@Z 100607d0 f   NpFactory.obj
 0001:0005f880       ?createNpCloth@NpFactory@physx@@QAEPAVNpCloth@2@ABVPxTransform@2@AAVPxClothFabric@2@PBUPxClothParticle@2@V?$PxFlags@W4Enum@PxClothFlag@physx@@G@2@@Z 10060880 f   NpFactory.obj
 0001:0005f8f0       ?releaseClothToPool@NpFactory@physx@@QAEXAAVNpCloth@2@@Z 100608f0 f   NpFactory.obj
 0001:0005f940       ?addCloth@NpFactory@physx@@QAEXPAVPxCloth@2@_N@Z 10060940 f   NpFactory.obj
 0001:0005f9a0       ?addClothFabric@NpFactory@physx@@QAEXPAVNpClothFabric@2@_N@Z 100609a0 f   NpFactory.obj
 0001:0005fa90       ?createClothFabric@NpFactory@physx@@QAEPAVPxClothFabric@2@AAVPxInputStream@2@@Z 10060a90 f   NpFactory.obj
 0001:0005faf0       ?createClothFabric@NpFactory@physx@@QAEPAVPxClothFabric@2@ABVPxClothFabricDesc@2@@Z 10060af0 f   NpFactory.obj
 0001:0005fb50       ?createNpClothFabric@NpFactory@physx@@QAEPAVNpClothFabric@2@XZ 10060b50 f   NpFactory.obj
 0001:0005fbd0       ?releaseClothFabricToPool@NpFactory@physx@@QAEXAAVNpClothFabric@2@@Z 10060bd0 f   NpFactory.obj
 0001:0005fc20       ?removeClothFabric@NpFactory@physx@@QAE_NAAVPxClothFabric@2@@Z 10060c20 f   NpFactory.obj
 0001:0005fcb0       ?getNbClothFabrics@NpFactory@physx@@QBEIXZ 10060cb0 f   NpFactory.obj
 0001:0005fcc0       ?getClothFabrics@NpFactory@physx@@QBEIPAPAVPxClothFabric@2@I@Z 10060cc0 f   NpFactory.obj
 0001:0005fd00       ?createCloth@NpFactory@physx@@QAEPAVPxCloth@2@ABVPxTransform@2@AAVPxClothFabric@2@PBUPxClothParticle@2@V?$PxFlags@W4Enum@PxClothFlag@physx@@G@2@@Z 10060d00 f   NpFactory.obj
 0001:0005fe60       ?createMaterial@NpFactory@physx@@QAEPAVPxMaterial@2@MMM@Z 10060e60 f   NpFactory.obj
 0001:0005ff90       ?releaseMaterialToPool@NpFactory@physx@@QAEXAAVNpMaterial@2@@Z 10060f90 f   NpFactory.obj
 0001:0005ffe0       ?onActorRelease@NpFactory@physx@@QAEXPAVPxActor@2@@Z 10060fe0 f   NpFactory.obj
 0001:00060010       ?onConstraintRelease@NpFactory@physx@@QAEXPAVPxConstraint@2@@Z 10061010 f   NpFactory.obj
 0001:00060040       ?onAggregateRelease@NpFactory@physx@@QAEXPAVPxAggregate@2@@Z 10061040 f   NpFactory.obj
 0001:00060070       ?onArticulationRelease@NpFactory@physx@@QAEXPAVPxArticulation@2@@Z 10061070 f   NpFactory.obj
 0001:000600a0       ?onShapeRelease@NpFactory@physx@@QAEXPAVPxShape@2@@Z 100610a0 f   NpFactory.obj
 0001:000600d0       ?acquireConnectorArray@NpFactory@physx@@QAEPAVNpConnectorArray@2@XZ 100610d0 f   NpFactory.obj
 0001:00060100       ?releaseConnectorArray@NpFactory@physx@@QAEXPAVNpConnectorArray@2@@Z 10061100 f   NpFactory.obj
 0001:00060170       ?setNpFactoryListener@NpFactory@physx@@QAEXAAVNpFactoryListener@2@@Z 10061170 f   NpFactory.obj
 0001:00060190       ?notifyReleaseTriangleMesh@NpFactory@physx@@EAEXABVPxTriangleMesh@2@@Z 10061190 f   NpFactory.obj
 0001:000601c0       ?notifyReleaseHeightField@NpFactory@physx@@EAEXABVPxHeightField@2@@Z 100611c0 f   NpFactory.obj
 0001:000601f0       ?notifyReleaseConvexMesh@NpFactory@physx@@EAEXABVPxConvexMesh@2@@Z 100611f0 f   NpFactory.obj
 0001:00060220       ?NpDestroy@physx@@YAXAAVBase@Scb@1@@Z 10061220 f   NpFactory.obj
 0001:00061420       ??$construct@$$CBVPxGeometry@physx@@V?$PxFlags@W4Enum@PxShapeFlag@physx@@E@2@PAGG_N@?$PoolBase@VNpShape@physx@@VNamedAllocator@shdfnd@2@@shdfnd@physx@@QAEPAVNpShape@2@ABVPxGeometry@2@AAV?$PxFlags@W4Enum@PxShapeFlag@physx@@E@2@AAPAGAAGAA_N@Z 10062420 f i NpFactory.obj
 0001:000614b0       ??$construct@$$CBVPxTransform@physx@@@?$PoolBase@VNpRigidStatic@physx@@VNamedAllocator@shdfnd@2@@shdfnd@physx@@QAEPAVNpRigidStatic@2@ABVPxTransform@2@@Z 100624b0 f i NpFactory.obj
 0001:00061530       ??$construct@I_N@?$PoolBase@VNpAggregate@physx@@VNamedAllocator@shdfnd@2@@shdfnd@physx@@QAEPAVNpAggregate@2@AAIAA_N@Z 10062530 f i NpFactory.obj
 0001:000615b0       ??$construct@PAVPxRigidActor@physx@@PAV12@VPxConstraintConnector@2@$$CBUPxConstraintShaderTable@2@I@?$PoolBase@VNpConstraint@physx@@VNamedAllocator@shdfnd@2@@shdfnd@physx@@QAEPAVNpConstraint@2@AAPAVPxRigidActor@2@0AAVPxConstraintConnector@2@ABUPxConstraintShaderTable@2@AAI@Z 100625b0 f i NpFactory.obj
 0001:00061650       ??$construct@UPxsMaterialData@physx@@@?$PoolBase@VNpMaterial@physx@@VNamedAllocator@shdfnd@2@@shdfnd@physx@@QAEPAVNpMaterial@2@AAUPxsMaterialData@2@@Z 10062650 f i NpFactory.obj
 0001:00061ba0       ??0?$InlineArray@G$03VNamedAllocator@shdfnd@physx@@@shdfnd@physx@@QAE@ABVNamedAllocator@12@@Z 10062ba0 f i NpFactory.obj
 0001:00061c50       ??0?$InlineArray@PAX$0EA@VNamedAllocator@shdfnd@physx@@@shdfnd@physx@@QAE@ABVNamedAllocator@12@@Z 10062c50 f i NpFactory.obj
 0001:00061d40       ??0?$InlineArray@VNpConnector@physx@@$03VNamedAllocator@shdfnd@2@@shdfnd@physx@@QAE@ABVNamedAllocator@12@@Z 10062d40 f i NpFactory.obj
 0001:00061e00       ??0Iter@?$HashBase@PAVPxActor@physx@@PAV12@U?$Hash@PAVPxActor@physx@@@shdfnd@2@UGetKey@?$HashSetBase@PAVPxActor@physx@@U?$Hash@PAVPxActor@physx@@@shdfnd@2@VNonTrackingAllocator@42@$0A@@internal@42@VNonTrackingAllocator@42@$0A@@internal@shdfnd@physx@@QAE@AAV1234@@Z 10062e00 f i NpFactory.obj
 0001:00061e70       ??0Iter@?$HashBase@PAVPxAggregate@physx@@PAV12@U?$Hash@PAVPxAggregate@physx@@@shdfnd@2@UGetKey@?$HashSetBase@PAVPxAggregate@physx@@U?$Hash@PAVPxAggregate@physx@@@shdfnd@2@VNonTrackingAllocator@42@$0A@@internal@42@VNonTrackingAllocator@42@$0A@@internal@shdfnd@physx@@QAE@AAV1234@@Z 10062e70 f i NpFactory.obj
 0001:00061ee0       ??0Iter@?$HashBase@PAVPxArticulation@physx@@PAV12@U?$Hash@PAVPxArticulation@physx@@@shdfnd@2@UGetKey@?$HashSetBase@PAVPxArticulation@physx@@U?$Hash@PAVPxArticulation@physx@@@shdfnd@2@VNonTrackingAllocator@42@$0A@@internal@42@VNonTrackingAllocator@42@$0A@@internal@shdfnd@physx@@QAE@AAV1234@@Z 10062ee0 f i NpFactory.obj
 0001:00061f50       ??0Iter@?$HashBase@PAVPxConstraint@physx@@PAV12@U?$Hash@PAVPxConstraint@physx@@@shdfnd@2@UGetKey@?$HashSetBase@PAVPxConstraint@physx@@U?$Hash@PAVPxConstraint@physx@@@shdfnd@2@VNonTrackingAllocator@42@$0A@@internal@42@VNonTrackingAllocator@42@$0A@@internal@shdfnd@physx@@QAE@AAV1234@@Z 10062f50 f i NpFactory.obj
 0001:00061fc0       ??0NpPtrTableStorageManager@physx@@QAE@XZ 10062fc0 f i NpFactory.obj
 0001:00062140       ??1?$PoolBase@V?$PtrBlock@$03@NpPtrTableStorageManager@physx@@VNamedAllocator@shdfnd@3@@shdfnd@physx@@QAE@XZ 10063140 f i NpFactory.obj
 0001:00062230       ??1?$PoolBase@V?$PtrBlock@$0BA@@NpPtrTableStorageManager@physx@@VNamedAllocator@shdfnd@3@@shdfnd@physx@@QAE@XZ 10063230 f i NpFactory.obj
 0001:00062320       ??1?$PoolBase@V?$PtrBlock@$0EA@@NpPtrTableStorageManager@physx@@VNamedAllocator@shdfnd@3@@shdfnd@physx@@QAE@XZ 10063320 f i NpFactory.obj
 0001:00062410       ??1?$PoolBase@VNpAggregate@physx@@VNamedAllocator@shdfnd@2@@shdfnd@physx@@QAE@XZ 10063410 f i NpFactory.obj
 0001:00062500       ??1?$PoolBase@VNpArticulation@physx@@VNamedAllocator@shdfnd@2@@shdfnd@physx@@QAE@XZ 10063500 f i NpFactory.obj
 0001:000625f0       ??1?$PoolBase@VNpArticulationJoint@physx@@VNamedAllocator@shdfnd@2@@shdfnd@physx@@QAE@XZ 100635f0 f i NpFactory.obj
 0001:000626e0       ??1?$PoolBase@VNpArticulationLink@physx@@VNamedAllocator@shdfnd@2@@shdfnd@physx@@QAE@XZ 100636e0 f i NpFactory.obj
 0001:000627d0       ??1?$PoolBase@VNpCloth@physx@@VNamedAllocator@shdfnd@2@@shdfnd@physx@@QAE@XZ 100637d0 f i NpFactory.obj
 0001:000628c0       ??1?$PoolBase@VNpClothFabric@physx@@VNamedAllocator@shdfnd@2@@shdfnd@physx@@QAE@XZ 100638c0 f i NpFactory.obj
 0001:000629b0       ??1?$PoolBase@VNpConnectorArray@physx@@VNamedAllocator@shdfnd@2@@shdfnd@physx@@QAE@XZ 100639b0 f i NpFactory.obj
 0001:00062aa0       ??1?$PoolBase@VNpConstraint@physx@@VNamedAllocator@shdfnd@2@@shdfnd@physx@@QAE@XZ 10063aa0 f i NpFactory.obj
 0001:00062b90       ??1?$PoolBase@VNpMaterial@physx@@VNamedAllocator@shdfnd@2@@shdfnd@physx@@QAE@XZ 10063b90 f i NpFactory.obj
 0001:00062c80       ??1?$PoolBase@VNpParticleFluid@physx@@VNamedAllocator@shdfnd@2@@shdfnd@physx@@QAE@XZ 10063c80 f i NpFactory.obj
 0001:00062d70       ??1?$PoolBase@VNpParticleSystem@physx@@VNamedAllocator@shdfnd@2@@shdfnd@physx@@QAE@XZ 10063d70 f i NpFactory.obj
 0001:00062e60       ??1?$PoolBase@VNpRigidDynamic@physx@@VNamedAllocator@shdfnd@2@@shdfnd@physx@@QAE@XZ 10063e60 f i NpFactory.obj
 0001:00062f50       ??1?$PoolBase@VNpRigidStatic@physx@@VNamedAllocator@shdfnd@2@@shdfnd@physx@@QAE@XZ 10063f50 f i NpFactory.obj
 0001:00063040       ??1?$PoolBase@VNpShape@physx@@VNamedAllocator@shdfnd@2@@shdfnd@physx@@QAE@XZ 10064040 f i NpFactory.obj
 0001:00063130       ??1PtrTableStorageManager@Cm@physx@@MAE@XZ 10064130 f i NpFactory.obj
 0001:00063140       ??_ENpFactory@physx@@EAEPAXI@Z 10064140 f i NpFactory.obj
 0001:00063140       ??_GNpFactory@physx@@EAEPAXI@Z 10064140 f i NpFactory.obj
 0001:000631a0       ??_GNpPtrTableStorageManager@physx@@UAEPAXI@Z 100641a0 f i NpFactory.obj
 0001:000631a0       ??_ENpPtrTableStorageManager@physx@@UAEPAXI@Z 100641a0 f i NpFactory.obj
 0001:00063250       ??_GPtrTableStorageManager@Cm@physx@@MAEPAXI@Z 10064250 f i NpFactory.obj
 0001:00063250       ??_EPtrTableStorageManager@Cm@physx@@MAEPAXI@Z 10064250 f i NpFactory.obj
 0001:000638e0       ?allocate@?$Array@PAVPxActor@physx@@V?$ReflectionAllocator@PAVPxActor@physx@@@shdfnd@2@@shdfnd@physx@@IAEPAPAVPxActor@3@I@Z 100648e0 f i NpFactory.obj
 0001:000639a0       ?allocate@?$Array@PAVPxAggregate@physx@@V?$ReflectionAllocator@PAVPxAggregate@physx@@@shdfnd@2@@shdfnd@physx@@IAEPAPAVPxAggregate@3@I@Z 100649a0 f i NpFactory.obj
 0001:00063a60       ?allocate@?$Array@PAVPxArticulation@physx@@V?$ReflectionAllocator@PAVPxArticulation@physx@@@shdfnd@2@@shdfnd@physx@@IAEPAPAVPxArticulation@3@I@Z 10064a60 f i NpFactory.obj
 0001:00063b20       ?allocate@?$Array@PAVPxConstraint@physx@@V?$ReflectionAllocator@PAVPxConstraint@physx@@@shdfnd@2@@shdfnd@physx@@IAEPAPAVPxConstraint@3@I@Z 10064b20 f i NpFactory.obj
 0001:00063be0       ?allocate@?$Array@PAXV?$InlineAllocator@$0BAA@VNamedAllocator@shdfnd@physx@@@shdfnd@physx@@@shdfnd@physx@@IAEPAPAXI@Z 10064be0 f i NpFactory.obj
 0001:00063c70       ?allocate@?$PoolBase@VNpCloth@physx@@VNamedAllocator@shdfnd@2@@shdfnd@physx@@QAEPAVNpCloth@3@XZ 10064c70 f i NpFactory.obj
 0001:00063cf0       ?allocate@NpPtrTableStorageManager@physx@@UAEPAPAXI@Z 10064cf0 f i NpFactory.obj
 0001:00063e10       ?allocateSlab@?$PoolBase@V?$PtrBlock@$03@NpPtrTableStorageManager@physx@@VNamedAllocator@shdfnd@3@@shdfnd@physx@@IAEXXZ 10064e10 f i NpFactory.obj
 0001:00063ed0       ?allocateSlab@?$PoolBase@V?$PtrBlock@$0BA@@NpPtrTableStorageManager@physx@@VNamedAllocator@shdfnd@3@@shdfnd@physx@@IAEXXZ 10064ed0 f i NpFactory.obj
 0001:00063f90       ?allocateSlab@?$PoolBase@V?$PtrBlock@$0EA@@NpPtrTableStorageManager@physx@@VNamedAllocator@shdfnd@3@@shdfnd@physx@@IAEXXZ 10064f90 f i NpFactory.obj
 0001:00064060       ?allocateSlab@?$PoolBase@VNpAggregate@physx@@VNamedAllocator@shdfnd@2@@shdfnd@physx@@IAEXXZ 10065060 f i NpFactory.obj
 0001:00064110       ?allocateSlab@?$PoolBase@VNpArticulation@physx@@VNamedAllocator@shdfnd@2@@shdfnd@physx@@IAEXXZ 10065110 f i NpFactory.obj
 0001:000641c0       ?allocateSlab@?$PoolBase@VNpArticulationJoint@physx@@VNamedAllocator@shdfnd@2@@shdfnd@physx@@IAEXXZ 100651c0 f i NpFactory.obj
 0001:00064290       ?allocateSlab@?$PoolBase@VNpArticulationLink@physx@@VNamedAllocator@shdfnd@2@@shdfnd@physx@@IAEXXZ 10065290 f i NpFactory.obj
 0001:00064360       ?allocateSlab@?$PoolBase@VNpCloth@physx@@VNamedAllocator@shdfnd@2@@shdfnd@physx@@IAEXXZ 10065360 f i NpFactory.obj
 0001:00064430       ?allocateSlab@?$PoolBase@VNpClothFabric@physx@@VNamedAllocator@shdfnd@2@@shdfnd@physx@@IAEXXZ 10065430 f i NpFactory.obj
 0001:00064500       ?allocateSlab@?$PoolBase@VNpConnectorArray@physx@@VNamedAllocator@shdfnd@2@@shdfnd@physx@@IAEXXZ 10065500 f i NpFactory.obj
 0001:000645d0       ?allocateSlab@?$PoolBase@VNpConstraint@physx@@VNamedAllocator@shdfnd@2@@shdfnd@physx@@IAEXXZ 100655d0 f i NpFactory.obj
 0001:00064680       ?allocateSlab@?$PoolBase@VNpMaterial@physx@@VNamedAllocator@shdfnd@2@@shdfnd@physx@@IAEXXZ 10065680 f i NpFactory.obj
 0001:00064740       ?allocateSlab@?$PoolBase@VNpParticleFluid@physx@@VNamedAllocator@shdfnd@2@@shdfnd@physx@@IAEXXZ 10065740 f i NpFactory.obj
 0001:00064810       ?allocateSlab@?$PoolBase@VNpParticleSystem@physx@@VNamedAllocator@shdfnd@2@@shdfnd@physx@@IAEXXZ 10065810 f i NpFactory.obj
 0001:000648e0       ?allocateSlab@?$PoolBase@VNpRigidDynamic@physx@@VNamedAllocator@shdfnd@2@@shdfnd@physx@@IAEXXZ 100658e0 f i NpFactory.obj
 0001:000649b0       ?allocateSlab@?$PoolBase@VNpRigidStatic@physx@@VNamedAllocator@shdfnd@2@@shdfnd@physx@@IAEXXZ 100659b0 f i NpFactory.obj
 0001:00064a60       ?allocateSlab@?$PoolBase@VNpShape@physx@@VNamedAllocator@shdfnd@2@@shdfnd@physx@@IAEXXZ 10065a60 f i NpFactory.obj
 0001:00064b30       ?canReuse@NpPtrTableStorageManager@physx@@UAE_NII@Z 10065b30 f i NpFactory.obj
 0001:00064bb0       ?construct@?$PoolBase@V?$PtrBlock@$0BA@@NpPtrTableStorageManager@physx@@VNamedAllocator@shdfnd@3@@shdfnd@physx@@QAEPAV?$PtrBlock@$0BA@@NpPtrTableStorageManager@3@XZ 10065bb0 f i NpFactory.obj
 0001:00064c20       ?construct@?$PoolBase@V?$PtrBlock@$0EA@@NpPtrTableStorageManager@physx@@VNamedAllocator@shdfnd@3@@shdfnd@physx@@QAEPAV?$PtrBlock@$0EA@@NpPtrTableStorageManager@3@XZ 10065c20 f i NpFactory.obj
 0001:00064c90       ?construct@?$PoolBase@VNpArticulation@physx@@VNamedAllocator@shdfnd@2@@shdfnd@physx@@QAEPAVNpArticulation@3@XZ 10065c90 f i NpFactory.obj
 0001:00064d10       ?construct@?$PoolBase@VNpConnectorArray@physx@@VNamedAllocator@shdfnd@2@@shdfnd@physx@@QAEPAVNpConnectorArray@3@XZ 10065d10 f i NpFactory.obj
 0001:00064dc0       ?create@?$HashBase@PAVPxActor@physx@@PAV12@U?$Hash@PAVPxActor@physx@@@shdfnd@2@UGetKey@?$HashSetBase@PAVPxActor@physx@@U?$Hash@PAVPxActor@physx@@@shdfnd@2@VNonTrackingAllocator@42@$0A@@internal@42@VNonTrackingAllocator@42@$0A@@internal@shdfnd@physx@@QAEPAPAVPxActor@4@ABQAV54@AA_N@Z 10065dc0 f i NpFactory.obj
 0001:00064f40       ?create@?$HashBase@PAVPxAggregate@physx@@PAV12@U?$Hash@PAVPxAggregate@physx@@@shdfnd@2@UGetKey@?$HashSetBase@PAVPxAggregate@physx@@U?$Hash@PAVPxAggregate@physx@@@shdfnd@2@VNonTrackingAllocator@42@$0A@@internal@42@VNonTrackingAllocator@42@$0A@@internal@shdfnd@physx@@QAEPAPAVPxAggregate@4@ABQAV54@AA_N@Z 10065f40 f i NpFactory.obj
 0001:000650c0       ?create@?$HashBase@PAVPxArticulation@physx@@PAV12@U?$Hash@PAVPxArticulation@physx@@@shdfnd@2@UGetKey@?$HashSetBase@PAVPxArticulation@physx@@U?$Hash@PAVPxArticulation@physx@@@shdfnd@2@VNonTrackingAllocator@42@$0A@@internal@42@VNonTrackingAllocator@42@$0A@@internal@shdfnd@physx@@QAEPAPAVPxArticulation@4@ABQAV54@AA_N@Z 100660c0 f i NpFactory.obj
 0001:00065240       ?create@?$HashBase@PAVPxConstraint@physx@@PAV12@U?$Hash@PAVPxConstraint@physx@@@shdfnd@2@UGetKey@?$HashSetBase@PAVPxConstraint@physx@@U?$Hash@PAVPxConstraint@physx@@@shdfnd@2@VNonTrackingAllocator@42@$0A@@internal@42@VNonTrackingAllocator@42@$0A@@internal@shdfnd@physx@@QAEPAPAVPxConstraint@4@ABQAV54@AA_N@Z 10066240 f i NpFactory.obj
 0001:000653c0       ?create@?$HashBase@PAVPxShape@physx@@PAV12@U?$Hash@PAVPxShape@physx@@@shdfnd@2@UGetKey@?$HashSetBase@PAVPxShape@physx@@U?$Hash@PAVPxShape@physx@@@shdfnd@2@VNonTrackingAllocator@42@$00@internal@42@VNonTrackingAllocator@42@$00@internal@shdfnd@physx@@QAEPAPAVPxShape@4@ABQAV54@AA_N@Z 100663c0 f i NpFactory.obj
 0001:00065540       ?deallocate@NpPtrTableStorageManager@physx@@UAEXPAPAXI@Z 10066540 f i NpFactory.obj
 0001:00065640       ?disposeElements@?$PoolBase@V?$PtrBlock@$03@NpPtrTableStorageManager@physx@@VNamedAllocator@shdfnd@3@@shdfnd@physx@@IAEXXZ 10066640 f i NpFactory.obj
 0001:000657e0       ?disposeElements@?$PoolBase@V?$PtrBlock@$0BA@@NpPtrTableStorageManager@physx@@VNamedAllocator@shdfnd@3@@shdfnd@physx@@IAEXXZ 100667e0 f i NpFactory.obj
 0001:00065980       ?disposeElements@?$PoolBase@V?$PtrBlock@$0EA@@NpPtrTableStorageManager@physx@@VNamedAllocator@shdfnd@3@@shdfnd@physx@@IAEXXZ 10066980 f i NpFactory.obj
 0001:00065b20       ?disposeElements@?$PoolBase@VNpAggregate@physx@@VNamedAllocator@shdfnd@2@@shdfnd@physx@@IAEXXZ 10066b20 f i NpFactory.obj
 0001:00065cc0       ?disposeElements@?$PoolBase@VNpArticulation@physx@@VNamedAllocator@shdfnd@2@@shdfnd@physx@@IAEXXZ 10066cc0 f i NpFactory.obj
 0001:00065e60       ?disposeElements@?$PoolBase@VNpArticulationJoint@physx@@VNamedAllocator@shdfnd@2@@shdfnd@physx@@IAEXXZ 10066e60 f i NpFactory.obj
 0001:00066010       ?disposeElements@?$PoolBase@VNpArticulationLink@physx@@VNamedAllocator@shdfnd@2@@shdfnd@physx@@IAEXXZ 10067010 f i NpFactory.obj
 0001:000661c0       ?disposeElements@?$PoolBase@VNpCloth@physx@@VNamedAllocator@shdfnd@2@@shdfnd@physx@@IAEXXZ 100671c0 f i NpFactory.obj
 0001:00066370       ?disposeElements@?$PoolBase@VNpClothFabric@physx@@VNamedAllocator@shdfnd@2@@shdfnd@physx@@IAEXXZ 10067370 f i NpFactory.obj
 0001:00066510       ?disposeElements@?$PoolBase@VNpConnectorArray@physx@@VNamedAllocator@shdfnd@2@@shdfnd@physx@@IAEXXZ 10067510 f i NpFactory.obj
 0001:000666f0       ?disposeElements@?$PoolBase@VNpConstraint@physx@@VNamedAllocator@shdfnd@2@@shdfnd@physx@@IAEXXZ 100676f0 f i NpFactory.obj
 0001:00066890       ?disposeElements@?$PoolBase@VNpMaterial@physx@@VNamedAllocator@shdfnd@2@@shdfnd@physx@@IAEXXZ 10067890 f i NpFactory.obj
 0001:00066a30       ?disposeElements@?$PoolBase@VNpParticleFluid@physx@@VNamedAllocator@shdfnd@2@@shdfnd@physx@@IAEXXZ 10067a30 f i NpFactory.obj
 0001:00066be0       ?disposeElements@?$PoolBase@VNpParticleSystem@physx@@VNamedAllocator@shdfnd@2@@shdfnd@physx@@IAEXXZ 10067be0 f i NpFactory.obj
 0001:00066d90       ?disposeElements@?$PoolBase@VNpRigidDynamic@physx@@VNamedAllocator@shdfnd@2@@shdfnd@physx@@IAEXXZ 10067d90 f i NpFactory.obj
 0001:00066f30       ?disposeElements@?$PoolBase@VNpRigidStatic@physx@@VNamedAllocator@shdfnd@2@@shdfnd@physx@@IAEXXZ 10067f30 f i NpFactory.obj
 0001:000670d0       ?disposeElements@?$PoolBase@VNpShape@physx@@VNamedAllocator@shdfnd@2@@shdfnd@physx@@IAEXXZ 100680d0 f i NpFactory.obj
 0001:00067280       ?erase@?$HashBase@PAVPxActor@physx@@PAV12@U?$Hash@PAVPxActor@physx@@@shdfnd@2@UGetKey@?$HashSetBase@PAVPxActor@physx@@U?$Hash@PAVPxActor@physx@@@shdfnd@2@VNonTrackingAllocator@42@$0A@@internal@42@VNonTrackingAllocator@42@$0A@@internal@shdfnd@physx@@QAE_NABQAVPxActor@4@@Z 10068280 f i NpFactory.obj
 0001:00067350       ?erase@?$HashBase@PAVPxAggregate@physx@@PAV12@U?$Hash@PAVPxAggregate@physx@@@shdfnd@2@UGetKey@?$HashSetBase@PAVPxAggregate@physx@@U?$Hash@PAVPxAggregate@physx@@@shdfnd@2@VNonTrackingAllocator@42@$0A@@internal@42@VNonTrackingAllocator@42@$0A@@internal@shdfnd@physx@@QAE_NABQAVPxAggregate@4@@Z 10068350 f i NpFactory.obj
 0001:00067420       ?erase@?$HashBase@PAVPxArticulation@physx@@PAV12@U?$Hash@PAVPxArticulation@physx@@@shdfnd@2@UGetKey@?$HashSetBase@PAVPxArticulation@physx@@U?$Hash@PAVPxArticulation@physx@@@shdfnd@2@VNonTrackingAllocator@42@$0A@@internal@42@VNonTrackingAllocator@42@$0A@@internal@shdfnd@physx@@QAE_NABQAVPxArticulation@4@@Z 10068420 f i NpFactory.obj
 0001:000674f0       ?erase@?$HashBase@PAVPxConstraint@physx@@PAV12@U?$Hash@PAVPxConstraint@physx@@@shdfnd@2@UGetKey@?$HashSetBase@PAVPxConstraint@physx@@U?$Hash@PAVPxConstraint@physx@@@shdfnd@2@VNonTrackingAllocator@42@$0A@@internal@42@VNonTrackingAllocator@42@$0A@@internal@shdfnd@physx@@QAE_NABQAVPxConstraint@4@@Z 100684f0 f i NpFactory.obj
 0001:000675c0       ?erase@?$HashBase@PAVPxShape@physx@@PAV12@U?$Hash@PAVPxShape@physx@@@shdfnd@2@UGetKey@?$HashSetBase@PAVPxShape@physx@@U?$Hash@PAVPxShape@physx@@@shdfnd@2@VNonTrackingAllocator@42@$00@internal@42@VNonTrackingAllocator@42@$00@internal@shdfnd@physx@@QAE_NABQAVPxShape@4@@Z 100685c0 f i NpFactory.obj
 0001:000676a0       ?freeListAdd@?$HashBase@PAVPxActor@physx@@PAV12@U?$Hash@PAVPxActor@physx@@@shdfnd@2@UGetKey@?$HashSetBase@PAVPxActor@physx@@U?$Hash@PAVPxActor@physx@@@shdfnd@2@VNonTrackingAllocator@42@$0A@@internal@42@VNonTrackingAllocator@42@$0A@@internal@shdfnd@physx@@AAEXII@Z 100686a0 f i NpFactory.obj
 0001:000677a0       ?freeListAdd@?$HashBase@PAVPxAggregate@physx@@PAV12@U?$Hash@PAVPxAggregate@physx@@@shdfnd@2@UGetKey@?$HashSetBase@PAVPxAggregate@physx@@U?$Hash@PAVPxAggregate@physx@@@shdfnd@2@VNonTrackingAllocator@42@$0A@@internal@42@VNonTrackingAllocator@42@$0A@@internal@shdfnd@physx@@AAEXII@Z 100687a0 f i NpFactory.obj
 0001:000678a0       ?freeListAdd@?$HashBase@PAVPxArticulation@physx@@PAV12@U?$Hash@PAVPxArticulation@physx@@@shdfnd@2@UGetKey@?$HashSetBase@PAVPxArticulation@physx@@U?$Hash@PAVPxArticulation@physx@@@shdfnd@2@VNonTrackingAllocator@42@$0A@@internal@42@VNonTrackingAllocator@42@$0A@@internal@shdfnd@physx@@AAEXII@Z 100688a0 f i NpFactory.obj
 0001:000679a0       ?freeListAdd@?$HashBase@PAVPxConstraint@physx@@PAV12@U?$Hash@PAVPxConstraint@physx@@@shdfnd@2@UGetKey@?$HashSetBase@PAVPxConstraint@physx@@U?$Hash@PAVPxConstraint@physx@@@shdfnd@2@VNonTrackingAllocator@42@$0A@@internal@42@VNonTrackingAllocator@42@$0A@@internal@shdfnd@physx@@AAEXII@Z 100689a0 f i NpFactory.obj
 0001:00067aa0       ?getMaterial@Shape@Scb@physx@@QBEPAVPxMaterial@3@I@Z 10068aa0 f i NpFactory.obj
 0001:00067b30       ?growAndPushBack@?$Array@PAVNpClothFabric@physx@@VNamedAllocator@shdfnd@2@@shdfnd@physx@@IAEAAPAVNpClothFabric@3@ABQAV43@@Z 10068b30 f i NpFactory.obj
 0001:00067c20       ?growAndPushBack@?$Array@PAVPxActor@physx@@V?$ReflectionAllocator@PAVPxActor@physx@@@shdfnd@2@@shdfnd@physx@@IAEAAPAVPxActor@3@ABQAV43@@Z 10068c20 f i NpFactory.obj
 0001:00067cd0       ?growAndPushBack@?$Array@PAVPxAggregate@physx@@V?$ReflectionAllocator@PAVPxAggregate@physx@@@shdfnd@2@@shdfnd@physx@@IAEAAPAVPxAggregate@3@ABQAV43@@Z 10068cd0 f i NpFactory.obj
 0001:00067d80       ?growAndPushBack@?$Array@PAVPxArticulation@physx@@V?$ReflectionAllocator@PAVPxArticulation@physx@@@shdfnd@2@@shdfnd@physx@@IAEAAPAVPxArticulation@3@ABQAV43@@Z 10068d80 f i NpFactory.obj
 0001:00067e30       ?growAndPushBack@?$Array@PAVPxConstraint@physx@@V?$ReflectionAllocator@PAVPxConstraint@physx@@@shdfnd@2@@shdfnd@physx@@IAEAAPAVPxConstraint@3@ABQAV43@@Z 10068e30 f i NpFactory.obj
 0001:00067ee0       ?growAndPushBack@?$Array@PAXV?$InlineAllocator@$0BAA@VNamedAllocator@shdfnd@physx@@@shdfnd@physx@@@shdfnd@physx@@IAEAAPAXABQAX@Z 10068ee0 f i NpFactory.obj
 0001:00067fc0       ?isValid@PxBoxGeometry@physx@@QBE_NXZ 10068fc0 f i NpFactory.obj
 0001:00068070       ?isValid@PxCapsuleGeometry@physx@@QBE_NXZ 10069070 f i NpFactory.obj
 0001:000680f0       ?isValid@PxConvexMeshGeometry@physx@@QBE_NXZ 100690f0 f i NpFactory.obj
 0001:000681f0       ?isValid@PxHeightFieldGeometry@physx@@QBE_NXZ 100691f0 f i NpFactory.obj
 0001:000682b0       ?isValid@PxSphereGeometry@physx@@QBE_NXZ 100692b0 f i NpFactory.obj
 0001:00068300       ?isValid@PxTriangleMeshGeometry@physx@@QBE_NXZ 10069300 f i NpFactory.obj
 0001:00068410       ?recreate@?$Array@GV?$InlineAllocator@$07VNamedAllocator@shdfnd@physx@@@shdfnd@physx@@@shdfnd@physx@@IAEXI@Z 10069410 f i NpFactory.obj
 0001:00068500       ?recreate@?$Array@PAVNpClothFabric@physx@@VNamedAllocator@shdfnd@2@@shdfnd@physx@@IAEXI@Z 10069500 f i NpFactory.obj
 0001:000685c0       ?recreate@?$Array@PAVPxActor@physx@@V?$ReflectionAllocator@PAVPxActor@physx@@@shdfnd@2@@shdfnd@physx@@IAEXI@Z 100695c0 f i NpFactory.obj
 0001:00068640       ?recreate@?$Array@PAVPxAggregate@physx@@V?$ReflectionAllocator@PAVPxAggregate@physx@@@shdfnd@2@@shdfnd@physx@@IAEXI@Z 10069640 f i NpFactory.obj
 0001:000686c0       ?recreate@?$Array@PAVPxArticulation@physx@@V?$ReflectionAllocator@PAVPxArticulation@physx@@@shdfnd@2@@shdfnd@physx@@IAEXI@Z 100696c0 f i NpFactory.obj
 0001:00068740       ?recreate@?$Array@PAVPxConstraint@physx@@V?$ReflectionAllocator@PAVPxConstraint@physx@@@shdfnd@2@@shdfnd@physx@@IAEXI@Z 10069740 f i NpFactory.obj
 0001:000687c0       ?replaceWithLast@?$HashBase@PAVPxShape@physx@@PAV12@U?$Hash@PAVPxShape@physx@@@shdfnd@2@UGetKey@?$HashSetBase@PAVPxShape@physx@@U?$Hash@PAVPxShape@physx@@@shdfnd@2@VNonTrackingAllocator@42@$00@internal@42@VNonTrackingAllocator@42@$00@internal@shdfnd@physx@@AAEXI@Z 100697c0 f i NpFactory.obj
 0001:00068870       ?reserveInternal@?$HashBase@PAVPxActor@physx@@PAV12@U?$Hash@PAVPxActor@physx@@@shdfnd@2@UGetKey@?$HashSetBase@PAVPxActor@physx@@U?$Hash@PAVPxActor@physx@@@shdfnd@2@VNonTrackingAllocator@42@$0A@@internal@42@VNonTrackingAllocator@42@$0A@@internal@shdfnd@physx@@AAEXI@Z 10069870 f i NpFactory.obj
 0001:00068b60       ?reserveInternal@?$HashBase@PAVPxAggregate@physx@@PAV12@U?$Hash@PAVPxAggregate@physx@@@shdfnd@2@UGetKey@?$HashSetBase@PAVPxAggregate@physx@@U?$Hash@PAVPxAggregate@physx@@@shdfnd@2@VNonTrackingAllocator@42@$0A@@internal@42@VNonTrackingAllocator@42@$0A@@internal@shdfnd@physx@@AAEXI@Z 10069b60 f i NpFactory.obj
 0001:00068e50       ?reserveInternal@?$HashBase@PAVPxArticulation@physx@@PAV12@U?$Hash@PAVPxArticulation@physx@@@shdfnd@2@UGetKey@?$HashSetBase@PAVPxArticulation@physx@@U?$Hash@PAVPxArticulation@physx@@@shdfnd@2@VNonTrackingAllocator@42@$0A@@internal@42@VNonTrackingAllocator@42@$0A@@internal@shdfnd@physx@@AAEXI@Z 10069e50 f i NpFactory.obj
 0001:00069140       ?reserveInternal@?$HashBase@PAVPxConstraint@physx@@PAV12@U?$Hash@PAVPxConstraint@physx@@@shdfnd@2@UGetKey@?$HashSetBase@PAVPxConstraint@physx@@U?$Hash@PAVPxConstraint@physx@@@shdfnd@2@VNonTrackingAllocator@42@$0A@@internal@42@VNonTrackingAllocator@42@$0A@@internal@shdfnd@physx@@AAEXI@Z 1006a140 f i NpFactory.obj
 0001:00069430       ?reserveInternal@?$HashBase@PAVPxShape@physx@@PAV12@U?$Hash@PAVPxShape@physx@@@shdfnd@2@UGetKey@?$HashSetBase@PAVPxShape@physx@@U?$Hash@PAVPxShape@physx@@@shdfnd@2@VNonTrackingAllocator@42@$00@internal@42@VNonTrackingAllocator@42@$00@internal@shdfnd@physx@@AAEXI@Z 1006a430 f i NpFactory.obj
 0001:00069620       ?resize@?$Array@GV?$InlineAllocator@$07VNamedAllocator@shdfnd@physx@@@shdfnd@physx@@@shdfnd@physx@@QAEXIABG@Z 1006a620 f i NpFactory.obj
 0001:00069680       ?onRefCountZero@NpMaterial@physx@@UAEXXZ 1006a680 f   NpMaterial.obj
 0001:000696d0       ?resolveReferences@NpMaterial@physx@@UAEXAAVPxDeserializationContext@2@@Z 1006a6d0 f   NpMaterial.obj
 0001:000696f0       ?createObject@NpMaterial@physx@@SAPAV12@AAPAEAAVPxDeserializationContext@2@@Z 1006a6f0 f   NpMaterial.obj
 0001:00069770       ??0NpMaterial@physx@@QAE@ABVMaterialCore@Sc@1@@Z 1006a770 f   NpMaterial.obj
 0001:00069800       ??1NpMaterial@physx@@UAE@XZ 1006a800 f   NpMaterial.obj
 0001:00069840       ?release@NpMaterial@physx@@UAEXXZ 1006a840 f   NpMaterial.obj
 0001:00069860       ?acquireReference@NpMaterial@physx@@UAEXXZ 1006a860 f   NpMaterial.obj
 0001:00069870       ?getReferenceCount@NpMaterial@physx@@UBEIXZ 1006a870 f   NpMaterial.obj
 0001:00069880       ?setDynamicFriction@NpMaterial@physx@@UAEXM@Z 1006a880 f   NpMaterial.obj
 0001:00069900       ?getDynamicFriction@NpMaterial@physx@@UBEMXZ 1006a900 f   NpMaterial.obj
 0001:00069910       ?setStaticFriction@NpMaterial@physx@@UAEXM@Z 1006a910 f   NpMaterial.obj
 0001:00069990       ?getStaticFriction@NpMaterial@physx@@UBEMXZ 1006a990 f   NpMaterial.obj
 0001:000699a0       ?setRestitution@NpMaterial@physx@@UAEXM@Z 1006a9a0 f   NpMaterial.obj
 0001:00069ab0       ?getRestitution@NpMaterial@physx@@UBEMXZ 1006aab0 f   NpMaterial.obj
 0001:00069ac0       ?setFlag@NpMaterial@physx@@UAEXW4Enum@PxMaterialFlag@2@_N@Z 1006aac0 f   NpMaterial.obj
 0001:00069b00       ?setFlags@NpMaterial@physx@@UAEXV?$PxFlags@W4Enum@PxMaterialFlag@physx@@G@2@@Z 1006ab00 f   NpMaterial.obj
 0001:00069b20       ?getFlags@NpMaterial@physx@@UBE?AV?$PxFlags@W4Enum@PxMaterialFlag@physx@@G@2@XZ 1006ab20 f   NpMaterial.obj
 0001:00069b40       ?setFrictionCombineMode@NpMaterial@physx@@UAEXW4Enum@PxCombineMode@2@@Z 1006ab40 f   NpMaterial.obj
 0001:00069b70       ?getFrictionCombineMode@NpMaterial@physx@@UBE?AW4Enum@PxCombineMode@2@XZ 1006ab70 f   NpMaterial.obj
 0001:00069b80       ?setRestitutionCombineMode@NpMaterial@physx@@UAEXW4Enum@PxCombineMode@2@@Z 1006ab80 f   NpMaterial.obj
 0001:00069ba0       ?getRestitutionCombineMode@NpMaterial@physx@@UBE?AW4Enum@PxCombineMode@2@XZ 1006aba0 f   NpMaterial.obj
 0001:00069d00       ??1PxMaterial@physx@@MAE@XZ 1006ad00 f i NpMaterial.obj
 0001:00069d07       ??_ENpMaterial@physx@@WM@AEPAXI@Z 1006ad07 f i NpMaterial.obj
 0001:00069d20       ??_GNpMaterial@physx@@UAEPAXI@Z 1006ad20 f i NpMaterial.obj
 0001:00069d20       ??_ENpMaterial@physx@@UAEPAXI@Z 1006ad20 f i NpMaterial.obj
 0001:00069da0       ??_GPxMaterial@physx@@MAEPAXI@Z 1006ada0 f i NpMaterial.obj
 0001:00069da0       ??_EPxMaterial@physx@@MAEPAXI@Z 1006ada0 f i NpMaterial.obj
 0001:00069dd0       ?getConcreteTypeName@PxMaterial@physx@@UBEPBDXZ 1006add0 f i NpMaterial.obj
 0001:00069de0       ?isKindOf@PxMaterial@physx@@MBE_NPBD@Z 1006ade0 f i NpMaterial.obj
 0001:00069e80       ?requires@NpMaterial@physx@@UAEXAAVPxProcessPxBaseCallback@2@@Z 1006ae80 f i NpMaterial.obj
 0001:00069e90       _PxGetPhysicsBinaryMetaData 1006ae90 f   NpMetaData.obj
 0001:00069ff0       ?getBinaryMetaData_PxBase@physx@@YAXAAVPxOutputStream@1@@Z 1006aff0 f   NpMetaData.obj
 0001:0006a160       ?getBinaryMetaData@RefCountable@Cm@physx@@SAXAAVPxOutputStream@3@@Z 1006b160 f   NpMetaData.obj
 0001:0006a200       ?getBinaryMetaData@NpMaterial@physx@@SAXAAVPxOutputStream@2@@Z 1006b200 f   NpMetaData.obj
 0001:0006a370       ?getBinaryMetaData@NpShape@physx@@SAXAAVPxOutputStream@2@@Z 1006b370 f   NpMetaData.obj
 0001:0006a630       ?getBinaryMetaData@NpShapeManager@physx@@SAXAAVPxOutputStream@2@@Z 1006b630 f   NpMetaData.obj
 0001:0006a750       ?getBinaryMetaData@NpConstraint@physx@@SAXAAVPxOutputStream@2@@Z 1006b750 f   NpMetaData.obj
 0001:0006a940       ?getBinaryMetaData@NpConnector@physx@@SAXAAVPxOutputStream@2@@Z 1006b940 f   NpMetaData.obj
 0001:0006aa60       ?getBinaryMetaData@NpConnectorArray@physx@@SAXAAVPxOutputStream@2@@Z 1006ba60 f   NpMetaData.obj
 0001:0006ac90       ?getBinaryMetaData@NpActor@physx@@SAXAAVPxOutputStream@2@@Z 1006bc90 f   NpMetaData.obj
 0001:0006ad70       ?getBinaryMetaData@NpRigidStatic@physx@@SAXAAVPxOutputStream@2@@Z 1006bd70 f   NpMetaData.obj
 0001:0006aff0       ?getBinaryMetaData@NpRigidDynamic@physx@@SAXAAVPxOutputStream@2@@Z 1006bff0 f   NpMetaData.obj
 0001:0006b270       ?getBinaryMetaData@NpArticulationLinkArray@physx@@SAXAAVPxOutputStream@2@@Z 1006c270 f   NpMetaData.obj
 0001:0006b4a0       ?getBinaryMetaData@NpArticulationLink@physx@@SAXAAVPxOutputStream@2@@Z 1006c4a0 f   NpMetaData.obj
 0001:0006b830       ?getBinaryMetaData@NpArticulation@physx@@SAXAAVPxOutputStream@2@@Z 1006c830 f   NpMetaData.obj
 0001:0006ba60       ?getBinaryMetaData@NpArticulationJoint@physx@@SAXAAVPxOutputStream@2@@Z 1006ca60 f   NpMetaData.obj
 0001:0006bbd0       ?getBinaryMetaData@NpClothFabric@physx@@SAXAAVPxOutputStream@2@@Z 1006cbd0 f   NpMetaData.obj
 0001:0006bcf0       ?getBinaryMetaData@NpCloth@physx@@SAXAAVPxOutputStream@2@@Z 1006ccf0 f   NpMetaData.obj
 0001:0006bee0       ?getBinaryMetaData@NpAggregate@physx@@SAXAAVPxOutputStream@2@@Z 1006cee0 f   NpMetaData.obj
 0001:0006c090       ?getBinaryMetaData@NpParticleSystem@physx@@SAXAAVPxOutputStream@2@@Z 1006d090 f   NpMetaData.obj
 0001:0006c200       ?getBinaryMetaData@NpParticleFluid@physx@@SAXAAVPxOutputStream@2@@Z 1006d200 f   NpMetaData.obj
 0001:0006e5b0       _PxRegisterArticulations   1006f5b0 f   NpPhysics.obj
 0001:0006e5c0       _PxRegisterHeightFields    1006f5c0 f   NpPhysics.obj
 0001:0006e600       _PxRegisterLegacyHeightFields 1006f600 f   NpPhysics.obj
 0001:0006e640       _PxRegisterCloth           1006f640 f   NpPhysics.obj
 0001:0006e680       _PxRegisterParticles       1006f680 f   NpPhysics.obj
 0001:0006e690       _PxCreateBasePhysics       1006f690 f   NpPhysics.obj
 0001:0006e6a0       _PxGetPhysics              1006f6a0 f   NpPhysics.obj
 0001:0006e6b0       ??0NpPhysics@physx@@AAE@ABVPxTolerancesScale@1@ABUPxvOffsetTable@1@_NPAVPsPvd@pvdsdk@1@@Z 1006f6b0 f   NpPhysics.obj
 0001:0006e890       ??1NpPhysics@physx@@EAE@XZ 1006f890 f   NpPhysics.obj
 0001:0006eac0       ?createInstance@NpPhysics@physx@@SAPAV12@IAAVPxFoundation@2@ABVPxTolerancesScale@2@_NPAVPsPvd@pvdsdk@2@@Z 1006fac0 f   NpPhysics.obj
 0001:0006ec60       ?releaseInstance@NpPhysics@physx@@SAIXZ 1006fc60 f   NpPhysics.obj
 0001:0006ecd0       ?release@NpPhysics@physx@@UAEXXZ 1006fcd0 f   NpPhysics.obj
 0001:0006ece0       ?createScene@NpPhysics@physx@@UAEPAVPxScene@2@ABVPxSceneDesc@2@@Z 1006fce0 f   NpPhysics.obj
 0001:0006ef30       ?releaseSceneInternal@NpPhysics@physx@@QAEXAAVPxScene@2@@Z 1006ff30 f   NpPhysics.obj
 0001:0006efa0       ?getNbScenes@NpPhysics@physx@@UBEIXZ 1006ffa0 f   NpPhysics.obj
 0001:0006efc0       ?getScenes@NpPhysics@physx@@UBEIPAPAVPxScene@2@II@Z 1006ffc0 f   NpPhysics.obj
 0001:0006f030       ?createRigidStatic@NpPhysics@physx@@UAEPAVPxRigidStatic@2@ABVPxTransform@2@@Z 10070030 f   NpPhysics.obj
 0001:0006f120       ?createRigidDynamic@NpPhysics@physx@@UAEPAVPxRigidDynamic@2@ABVPxTransform@2@@Z 10070120 f   NpPhysics.obj
 0001:0006f210       ?createArticulation@NpPhysics@physx@@UAEPAVPxArticulation@2@XZ 10070210 f   NpPhysics.obj
 0001:0006f220       ?createConstraint@NpPhysics@physx@@UAEPAVPxConstraint@2@PAVPxRigidActor@2@0AAVPxConstraintConnector@2@ABUPxConstraintShaderTable@2@I@Z 10070220 f   NpPhysics.obj
 0001:0006f230       ?createAggregate@NpPhysics@physx@@UAEPAVPxAggregate@2@I_N@Z 10070230 f   NpPhysics.obj
 0001:0006f240       ?createShape@NpPhysics@physx@@UAEPAVPxShape@2@ABVPxGeometry@2@PBQAVPxMaterial@2@G_NV?$PxFlags@W4Enum@PxShapeFlag@physx@@E@2@@Z 10070240 f   NpPhysics.obj
 0001:0006f380       ?getNbShapes@NpPhysics@physx@@UBEIXZ 10070380 f   NpPhysics.obj
 0001:0006f390       ?getShapes@NpPhysics@physx@@UBEIPAPAVPxShape@2@II@Z 10070390 f   NpPhysics.obj
 0001:0006f3a0       ?createParticleSystem@NpPhysics@physx@@UAEPAVPxParticleSystem@2@I_N@Z 100703a0 f   NpPhysics.obj
 0001:0006f3b0       ?createParticleFluid@NpPhysics@physx@@UAEPAVPxParticleFluid@2@I_N@Z 100703b0 f   NpPhysics.obj
 0001:0006f3c0       ?createCloth@NpPhysics@physx@@UAEPAVPxCloth@2@ABVPxTransform@2@AAVPxClothFabric@2@PBUPxClothParticle@2@V?$PxFlags@W4Enum@PxClothFlag@physx@@G@2@@Z 100703c0 f   NpPhysics.obj
 0001:0006f4c0       ?createMaterial@NpPhysics@physx@@UAEPAVPxMaterial@2@MMM@Z 100704c0 f   NpPhysics.obj
 0001:0006f510       ?getNbMaterials@NpPhysics@physx@@UBEIXZ 10070510 f   NpPhysics.obj
 0001:0006f540       ?getMaterials@NpPhysics@physx@@UBEIPAPAVPxMaterial@2@II@Z 10070540 f   NpPhysics.obj
 0001:0006f5c0       ?createTriangleMesh@NpPhysics@physx@@UAEPAVPxTriangleMesh@2@AAVPxInputStream@2@@Z 100705c0 f   NpPhysics.obj
 0001:0006f5d0       ?getNbTriangleMeshes@NpPhysics@physx@@UBEIXZ 100705d0 f   NpPhysics.obj
 0001:0006f5e0       ?getTriangleMeshes@NpPhysics@physx@@UBEIPAPAVPxTriangleMesh@2@II@Z 100705e0 f   NpPhysics.obj
 0001:0006f5f0       ?createHeightField@NpPhysics@physx@@UAEPAVPxHeightField@2@AAVPxInputStream@2@@Z 100705f0 f   NpPhysics.obj
 0001:0006f600       ?getNbHeightFields@NpPhysics@physx@@UBEIXZ 10070600 f   NpPhysics.obj
 0001:0006f610       ?getHeightFields@NpPhysics@physx@@UBEIPAPAVPxHeightField@2@II@Z 10070610 f   NpPhysics.obj
 0001:0006f620       ?createConvexMesh@NpPhysics@physx@@UAEPAVPxConvexMesh@2@AAVPxInputStream@2@@Z 10070620 f   NpPhysics.obj
 0001:0006f630       ?getNbConvexMeshes@NpPhysics@physx@@UBEIXZ 10070630 f   NpPhysics.obj
 0001:0006f640       ?getConvexMeshes@NpPhysics@physx@@UBEIPAPAVPxConvexMesh@2@II@Z 10070640 f   NpPhysics.obj
 0001:0006f650       ?createClothFabric@NpPhysics@physx@@UAEPAVPxClothFabric@2@AAVPxInputStream@2@@Z 10070650 f   NpPhysics.obj
 0001:0006f660       ?createClothFabric@NpPhysics@physx@@UAEPAVPxClothFabric@2@ABVPxClothFabricDesc@2@@Z 10070660 f   NpPhysics.obj
 0001:0006f670       ?getNbClothFabrics@NpPhysics@physx@@UBEIXZ 10070670 f   NpPhysics.obj
 0001:0006f680       ?getClothFabrics@NpPhysics@physx@@UBEIPAPAVPxClothFabric@2@I@Z 10070680 f   NpPhysics.obj
 0001:0006f690       ?registerCloth@NpPhysics@physx@@QAEXXZ 10070690 f   NpPhysics.obj
 0001:0006f6d0       ?registerPhysXIndicatorGpuClient@NpPhysics@physx@@QAEXXZ 100706d0 f   NpPhysics.obj
 0001:0006f710       ?unregisterPhysXIndicatorGpuClient@NpPhysics@physx@@QAEXXZ 10070710 f   NpPhysics.obj
 0001:0006f760       ?createPruningStructure@NpPhysics@physx@@UAEPAVPxPruningStructure@2@PBQAVPxRigidActor@2@I@Z 10070760 f   NpPhysics.obj
 0001:0006f810       ?getTolerancesScale@NpPhysics@physx@@UBEABVPxTolerancesScale@2@XZ 10070810 f   NpPhysics.obj
 0001:0006f820       ?getFoundation@NpPhysics@physx@@UAEAAVPxFoundation@2@XZ 10070820 f   NpPhysics.obj
 0001:0006f830       ?lockScene@NpPhysics@physx@@QAE_NXZ 10070830 f   NpPhysics.obj
 0001:0006f840       ?unlockScene@NpPhysics@physx@@QAE_NXZ 10070840 f   NpPhysics.obj
 0001:0006f850       ?registerDeletionListener@NpPhysics@physx@@UAEXAAVPxDeletionListener@2@ABV?$PxFlags@W4Enum@PxDeletionEventFlag@physx@@E@2@_N@Z 10070850 f   NpPhysics.obj
 0001:0006f950       ?unregisterDeletionListener@NpPhysics@physx@@UAEXAAVPxDeletionListener@2@@Z 10070950 f   NpPhysics.obj
 0001:0006f9d0       ?registerDeletionListenerObjects@NpPhysics@physx@@UAEXAAVPxDeletionListener@2@PBQBVPxBase@2@I@Z 100709d0 f   NpPhysics.obj
 0001:0006faa0       ?unregisterDeletionListenerObjects@NpPhysics@physx@@UAEXAAVPxDeletionListener@2@PBQBVPxBase@2@I@Z 10070aa0 f   NpPhysics.obj
 0001:0006fb50       ?notifyDeletionListeners@NpPhysics@physx@@QAEXPBVPxBase@2@PAXW4Enum@PxDeletionEventFlag@2@@Z 10070b50 f   NpPhysics.obj
 0001:0006fbd0       ?removeMaterialFromTable@NpPhysics@physx@@QAEXAAVNpMaterial@2@@Z 10070bd0 f   NpPhysics.obj
 0001:0006fc80       ?updateMaterial@NpPhysics@physx@@QAEXAAVNpMaterial@2@@Z 10070c80 f   NpPhysics.obj
 0001:0006fcd0       ?sendMaterialTable@NpPhysics@physx@@QAE_NAAVNpScene@2@@Z 10070cd0 f   NpPhysics.obj
 0001:0006fd30       ?addMaterial@NpPhysics@physx@@QAEPAVNpMaterial@2@PAV32@@Z 10070d30 f   NpPhysics.obj
 0001:0006fdc0       ?initOffsetTables@NpPhysics@physx@@SAXAAUPxvOffsetTable@2@@Z 10070dc0 f   NpPhysics.obj
 0001:0006ff30       _PxAddCollectionToPhysics  10070f30 f   NpPhysics.obj
 0001:000705b0       ??0NpDelListenerEntry@NpPhysics@physx@@QAE@ABV?$PxFlags@W4Enum@PxDeletionEventFlag@physx@@E@2@_N@Z 100715b0 f i NpPhysics.obj
 0001:00070640       ??0NpMaterialManager@physx@@QAE@XZ 10071640 f i NpPhysics.obj
 0001:00070700       ??1GuMeshFactoryListener@physx@@MAE@XZ 10071700 f i NpPhysics.obj
 0001:00070710       ??1PxPhysics@physx@@UAE@XZ 10071710 f i NpPhysics.obj
 0001:00070720       ??1PxPhysicsInsertionCallback@physx@@MAE@XZ 10071720 f i NpPhysics.obj
 0001:00070730       ??_EGuMeshFactoryListener@physx@@MAEPAXI@Z 10071730 f i NpPhysics.obj
 0001:00070730       ??_GGuMeshFactoryListener@physx@@MAEPAXI@Z 10071730 f i NpPhysics.obj
 0001:00070760       ??_EMeshDeletionListener@NpPhysics@physx@@UAEPAXI@Z 10071760 f i NpPhysics.obj
 0001:00070760       ??_GMeshDeletionListener@NpPhysics@physx@@UAEPAXI@Z 10071760 f i NpPhysics.obj
 0001:00070790       ??_GNpPhysics@physx@@EAEPAXI@Z 10071790 f i NpPhysics.obj
 0001:00070790       ??_ENpPhysics@physx@@EAEPAXI@Z 10071790 f i NpPhysics.obj
 0001:000707f0       ??_ENpPhysicsInsertionCallback@physx@@UAEPAXI@Z 100717f0 f i NpPhysics.obj
 0001:000707f0       ??_GNpPhysicsInsertionCallback@physx@@UAEPAXI@Z 100717f0 f i NpPhysics.obj
 0001:00070820       ??_EPxPhysics@physx@@UAEPAXI@Z 10071820 f i NpPhysics.obj
 0001:00070820       ??_GPxPhysics@physx@@UAEPAXI@Z 10071820 f i NpPhysics.obj
 0001:00070850       ??_EPxPhysicsInsertionCallback@physx@@MAEPAXI@Z 10071850 f i NpPhysics.obj
 0001:00070850       ??_GPxPhysicsInsertionCallback@physx@@MAEPAXI@Z 10071850 f i NpPhysics.obj
 0001:00070880       ?buildObjectFromData@NpPhysicsInsertionCallback@physx@@UAEPAVPxBase@2@W4Enum@PxConcreteType@2@PAX@Z 10071880 f i NpPhysics.obj
 0001:00070920       ?clear@?$HashBase@V?$Pair@QAVPxDeletionListener@physx@@PAUNpDelListenerEntry@NpPhysics@2@@shdfnd@physx@@PAVPxDeletionListener@3@U?$Hash@PAVPxDeletionListener@physx@@@23@UGetKey@?$HashMapBase@PAVPxDeletionListener@physx@@PAUNpDelListenerEntry@NpPhysics@2@U?$Hash@PAVPxDeletionListener@physx@@@shdfnd@2@VNonTrackingAllocator@62@@internal@23@VNonTrackingAllocator@23@$00@internal@shdfnd@physx@@QAEXXZ 10071920 f i NpPhysics.obj
 0001:000709a0       ?create@?$HashBase@PBVPxBase@physx@@PBV12@U?$Hash@PBVPxBase@physx@@@shdfnd@2@UGetKey@?$HashSetBase@PBVPxBase@physx@@U?$Hash@PBVPxBase@physx@@@shdfnd@2@VNonTrackingAllocator@42@$0A@@internal@42@VNonTrackingAllocator@42@$0A@@internal@shdfnd@physx@@QAEPAPBVPxBase@4@ABQBV54@AA_N@Z 100719a0 f i NpPhysics.obj
 0001:00070b20       ?create@?$HashBase@V?$Pair@QAVPxDeletionListener@physx@@PAUNpDelListenerEntry@NpPhysics@2@@shdfnd@physx@@PAVPxDeletionListener@3@U?$Hash@PAVPxDeletionListener@physx@@@23@UGetKey@?$HashMapBase@PAVPxDeletionListener@physx@@PAUNpDelListenerEntry@NpPhysics@2@U?$Hash@PAVPxDeletionListener@physx@@@shdfnd@2@VNonTrackingAllocator@62@@internal@23@VNonTrackingAllocator@23@$00@internal@shdfnd@physx@@QAEPAV?$Pair@QAVPxDeletionListener@physx@@PAUNpDelListenerEntry@NpPhysics@2@@34@ABQAVPxDeletionListener@4@AA_N@Z 10071b20 f i NpPhysics.obj
 0001:00070c70       ?erase@?$HashBase@PBVPxBase@physx@@PBV12@U?$Hash@PBVPxBase@physx@@@shdfnd@2@UGetKey@?$HashSetBase@PBVPxBase@physx@@U?$Hash@PBVPxBase@physx@@@shdfnd@2@VNonTrackingAllocator@42@$0A@@internal@42@VNonTrackingAllocator@42@$0A@@internal@shdfnd@physx@@QAE_NABQBVPxBase@4@@Z 10071c70 f i NpPhysics.obj
 0001:00070d40       ?erase@?$HashBase@V?$Pair@QAVPxDeletionListener@physx@@PAUNpDelListenerEntry@NpPhysics@2@@shdfnd@physx@@PAVPxDeletionListener@3@U?$Hash@PAVPxDeletionListener@physx@@@23@UGetKey@?$HashMapBase@PAVPxDeletionListener@physx@@PAUNpDelListenerEntry@NpPhysics@2@U?$Hash@PAVPxDeletionListener@physx@@@shdfnd@2@VNonTrackingAllocator@62@@internal@23@VNonTrackingAllocator@23@$00@internal@shdfnd@physx@@QAE_NABQAVPxDeletionListener@4@@Z 10071d40 f i NpPhysics.obj
 0001:00070e20       ?find@?$HashBase@PBVPxBase@physx@@PBV12@U?$Hash@PBVPxBase@physx@@@shdfnd@2@UGetKey@?$HashSetBase@PBVPxBase@physx@@U?$Hash@PBVPxBase@physx@@@shdfnd@2@VNonTrackingAllocator@42@$0A@@internal@42@VNonTrackingAllocator@42@$0A@@internal@shdfnd@physx@@QBEPBQBVPxBase@4@ABQBV54@@Z 10071e20 f i NpPhysics.obj
 0001:00070ed0       ?find@?$HashBase@V?$Pair@QAVPxDeletionListener@physx@@PAUNpDelListenerEntry@NpPhysics@2@@shdfnd@physx@@PAVPxDeletionListener@3@U?$Hash@PAVPxDeletionListener@physx@@@23@UGetKey@?$HashMapBase@PAVPxDeletionListener@physx@@PAUNpDelListenerEntry@NpPhysics@2@U?$Hash@PAVPxDeletionListener@physx@@@shdfnd@2@VNonTrackingAllocator@62@@internal@23@VNonTrackingAllocator@23@$00@internal@shdfnd@physx@@QBEPBV?$Pair@QAVPxDeletionListener@physx@@PAUNpDelListenerEntry@NpPhysics@2@@34@ABQAVPxDeletionListener@4@@Z 10071ed0 f i NpPhysics.obj
 0001:00070f80       ?freeListAdd@?$HashBase@PBVPxBase@physx@@PBV12@U?$Hash@PBVPxBase@physx@@@shdfnd@2@UGetKey@?$HashSetBase@PBVPxBase@physx@@U?$Hash@PBVPxBase@physx@@@shdfnd@2@VNonTrackingAllocator@42@$0A@@internal@42@VNonTrackingAllocator@42@$0A@@internal@shdfnd@physx@@AAEXII@Z 10071f80 f i NpPhysics.obj
 0001:00071080       ?getNpPhysicsGpu@NpPhysics@physx@@UAEAAVNpPhysicsGpu@2@XZ 10072080 f i NpPhysics.obj
 0001:00071090       ?getPhysicsInsertionCallback@NpPhysics@physx@@UAEAAVPxPhysicsInsertionCallback@2@XZ 10072090 f i NpPhysics.obj
 0001:000710a0       ?growAndPushBack@?$Array@IVNamedAllocator@shdfnd@physx@@@shdfnd@physx@@IAEAAIABI@Z 100720a0 f i NpPhysics.obj
 0001:00071190       ?growAndPushBack@?$Array@PAVNpScene@physx@@VNamedAllocator@shdfnd@2@@shdfnd@physx@@IAEAAPAVNpScene@3@ABQAV43@@Z 10072190 f i NpPhysics.obj
 0001:00071280       ?isValid@PxSceneDesc@physx@@QBE_NXZ 10072280 f i NpPhysics.obj
 0001:00071570       ?onGuMeshFactoryBufferRelease@MeshDeletionListener@NpPhysics@physx@@UAEXPBVPxBase@3@G@Z 10072570 f i NpPhysics.obj
 0001:00071590       ?releaseMaterials@NpMaterialManager@physx@@QAEXXZ 10072590 f i NpPhysics.obj
 0001:00071640       ?replaceWithLast@?$HashBase@V?$Pair@QAVPxDeletionListener@physx@@PAUNpDelListenerEntry@NpPhysics@2@@shdfnd@physx@@PAVPxDeletionListener@3@U?$Hash@PAVPxDeletionListener@physx@@@23@UGetKey@?$HashMapBase@PAVPxDeletionListener@physx@@PAUNpDelListenerEntry@NpPhysics@2@U?$Hash@PAVPxDeletionListener@physx@@@shdfnd@2@VNonTrackingAllocator@62@@internal@23@VNonTrackingAllocator@23@$00@internal@shdfnd@physx@@AAEXI@Z 10072640 f i NpPhysics.obj
 0001:00071700       ?reserveInternal@?$HashBase@PBVPxBase@physx@@PBV12@U?$Hash@PBVPxBase@physx@@@shdfnd@2@UGetKey@?$HashSetBase@PBVPxBase@physx@@U?$Hash@PBVPxBase@physx@@@shdfnd@2@VNonTrackingAllocator@42@$0A@@internal@42@VNonTrackingAllocator@42@$0A@@internal@shdfnd@physx@@AAEXI@Z 10072700 f i NpPhysics.obj
 0001:000719f0       ?reserveInternal@?$HashBase@V?$Pair@QAVPxDeletionListener@physx@@PAUNpDelListenerEntry@NpPhysics@2@@shdfnd@physx@@PAVPxDeletionListener@3@U?$Hash@PAVPxDeletionListener@physx@@@23@UGetKey@?$HashMapBase@PAVPxDeletionListener@physx@@PAUNpDelListenerEntry@NpPhysics@2@U?$Hash@PAVPxDeletionListener@physx@@@shdfnd@2@VNonTrackingAllocator@62@@internal@23@VNonTrackingAllocator@23@$00@internal@shdfnd@physx@@AAEXI@Z 100729f0 f i NpPhysics.obj
 0001:00071c00       ?resize@NpMaterialManager@physx@@AAEXXZ 10072c00 f i NpPhysics.obj
 0001:00071cb0       ??0PvdSceneQueryCollector@Vd@physx@@QAE@AAVScene@Scb@2@_N@Z 10072cb0 f   NpPvdSceneQueryCollector.obj
 0001:00071ee0       ?release@PvdSceneQueryCollector@Vd@physx@@QAEXXZ 10072ee0 f   NpPvdSceneQueryCollector.obj
 0001:00071f70       ?raycast@PvdSceneQueryCollector@Vd@physx@@QAEXABVPxVec3@3@0MPBUPxRaycastHit@3@IABUPxQueryFilterData@3@_N@Z 10072f70 f   NpPvdSceneQueryCollector.obj
 0001:00072050       ?sweep@PvdSceneQueryCollector@Vd@physx@@QAEXABVPxGeometry@3@ABVPxTransform@3@ABVPxVec3@3@MPBUPxSweepHit@3@IABUPxQueryFilterData@3@_N@Z 10073050 f   NpPvdSceneQueryCollector.obj
 0001:00072270       ?overlapMultiple@PvdSceneQueryCollector@Vd@physx@@QAEXABVPxGeometry@3@ABVPxTransform@3@PBUPxOverlapHit@3@IABUPxQueryFilterData@3@@Z 10073270 f   NpPvdSceneQueryCollector.obj
 0001:00072470       ?collectAllBatchedHits@PvdSceneQueryCollector@Vd@physx@@QAEXPBU?$PxBatchQueryResult@UPxRaycastHit@physx@@@3@IIPBU?$PxBatchQueryResult@UPxOverlapHit@physx@@@3@IIPBU?$PxBatchQueryResult@UPxSweepHit@physx@@@3@II@Z 10073470 f   NpPvdSceneQueryCollector.obj
 0001:00073260       ??$put@VPxConvexMeshGeometry@physx@@@PxGeometryHolder@physx@@AAEXABVPxGeometry@1@@Z 10074260 f i NpPvdSceneQueryCollector.obj
 0001:000732d0       ??$put@VPxHeightFieldGeometry@physx@@@PxGeometryHolder@physx@@AAEXABVPxGeometry@1@@Z 100742d0 f i NpPvdSceneQueryCollector.obj
 0001:00073320       ??$put@VPxTriangleMeshGeometry@physx@@@PxGeometryHolder@physx@@AAEXABVPxGeometry@1@@Z 10074320 f i NpPvdSceneQueryCollector.obj
 0001:00073390       ??0PvdOverlap@Vd@physx@@QAE@ABU012@@Z 10074390 f i NpPvdSceneQueryCollector.obj
 0001:00073420       ??0PvdSqHit@Vd@physx@@QAE@ABUPxRaycastHit@2@@Z 10074420 f i NpPvdSceneQueryCollector.obj
 0001:000734f0       ??0PvdSqHit@Vd@physx@@QAE@ABUPxSweepHit@2@@Z 100744f0 f i NpPvdSceneQueryCollector.obj
 0001:000735b0       ??0PvdSweep@Vd@physx@@QAE@ABU012@@Z 100745b0 f i NpPvdSceneQueryCollector.obj
 0001:00073640       ?copy@?$Array@UPvdOverlap@Vd@physx@@VNamedAllocator@shdfnd@3@@shdfnd@physx@@KAXPAUPvdOverlap@Vd@3@0PBU453@@Z 10074640 f i NpPvdSceneQueryCollector.obj
 0001:00073700       ?copy@?$Array@UPvdRaycast@Vd@physx@@VNamedAllocator@shdfnd@3@@shdfnd@physx@@KAXPAUPvdRaycast@Vd@3@0PBU453@@Z 10074700 f i NpPvdSceneQueryCollector.obj
 0001:000737b0       ?copy@?$Array@UPvdSqHit@Vd@physx@@VNamedAllocator@shdfnd@3@@shdfnd@physx@@KAXPAUPvdSqHit@Vd@3@0PBU453@@Z 100747b0 f i NpPvdSceneQueryCollector.obj
 0001:00073860       ?copy@?$Array@UPvdSweep@Vd@physx@@VNamedAllocator@shdfnd@3@@shdfnd@physx@@KAXPAUPvdSweep@Vd@3@0PBU453@@Z 10074860 f i NpPvdSceneQueryCollector.obj
 0001:00073930       ?copy@?$Array@VPxGeometryHolder@physx@@VNamedAllocator@shdfnd@2@@shdfnd@physx@@KAXPAVPxGeometryHolder@3@0PBV43@@Z 10074930 f i NpPvdSceneQueryCollector.obj
 0001:00073980       ?copy@?$Array@VPxTransform@physx@@VNamedAllocator@shdfnd@2@@shdfnd@physx@@KAXPAVPxTransform@3@0PBV43@@Z 10074980 f i NpPvdSceneQueryCollector.obj
 0001:00073a00       ?growAndPushBack@?$Array@UPvdOverlap@Vd@physx@@VNamedAllocator@shdfnd@3@@shdfnd@physx@@IAEAAUPvdOverlap@Vd@3@ABU453@@Z 10074a00 f i NpPvdSceneQueryCollector.obj
 0001:00073ae0       ?growAndPushBack@?$Array@UPvdRaycast@Vd@physx@@VNamedAllocator@shdfnd@3@@shdfnd@physx@@IAEAAUPvdRaycast@Vd@3@ABU453@@Z 10074ae0 f i NpPvdSceneQueryCollector.obj
 0001:00073c20       ?growAndPushBack@?$Array@UPvdSqHit@Vd@physx@@VNamedAllocator@shdfnd@3@@shdfnd@physx@@IAEAAUPvdSqHit@Vd@3@ABU453@@Z 10074c20 f i NpPvdSceneQueryCollector.obj
 0001:00073d60       ?growAndPushBack@?$Array@UPvdSweep@Vd@physx@@VNamedAllocator@shdfnd@3@@shdfnd@physx@@IAEAAUPvdSweep@Vd@3@ABU453@@Z 10074d60 f i NpPvdSceneQueryCollector.obj
 0001:00073e50       ?growAndPushBack@?$Array@UPxFilterData@physx@@VNamedAllocator@shdfnd@2@@shdfnd@physx@@IAEAAUPxFilterData@3@ABU43@@Z 10074e50 f i NpPvdSceneQueryCollector.obj
 0001:00073f50       ?growAndPushBack@?$Array@VPxGeometryHolder@physx@@VNamedAllocator@shdfnd@2@@shdfnd@physx@@IAEAAVPxGeometryHolder@3@ABV43@@Z 10074f50 f i NpPvdSceneQueryCollector.obj
 0001:00074050       ?growAndPushBack@?$Array@VPxTransform@physx@@VNamedAllocator@shdfnd@2@@shdfnd@physx@@IAEAAVPxTransform@3@ABV43@@Z 10075050 f i NpPvdSceneQueryCollector.obj
 0001:00074180       ??0NpReadCheck@physx@@QAE@PBVNpScene@1@PBD@Z 10075180 f   NpReadCheck.obj
 0001:00074220       ??1NpReadCheck@physx@@QAE@XZ 10075220 f   NpReadCheck.obj
 0001:000742d0       ?NpRigidDynamicGetShapes@physx@@YAIAAVBody@Scb@1@AAPBQAX@Z 100752d0 f   NpRigidDynamic.obj
 0001:00074300       ?requires@NpRigidDynamic@physx@@UAEXAAVPxProcessPxBaseCallback@2@@Z 10075300 f   NpRigidDynamic.obj
 0001:00074350       ?createObject@NpRigidDynamic@physx@@SAPAV12@AAPAEAAVPxDeserializationContext@2@@Z 10075350 f   NpRigidDynamic.obj
 0001:000743b0       ??1NpRigidDynamic@physx@@UAE@XZ 100753b0 f   NpRigidDynamic.obj
 0001:000743f0       ?release@NpRigidDynamic@physx@@UAEXXZ 100753f0 f   NpRigidDynamic.obj
 0001:000744c0       ?setGlobalPose@NpRigidDynamic@physx@@UAEXABVPxTransform@2@_N@Z 100754c0 f   NpRigidDynamic.obj
 0001:000748d0       ?setKinematicTarget@NpRigidDynamic@physx@@UAEXABVPxTransform@2@@Z 100758d0 f   NpRigidDynamic.obj
 0001:00074d40       ?getKinematicTarget@NpRigidDynamic@physx@@UBE_NAAVPxTransform@2@@Z 10075d40 f   NpRigidDynamic.obj
 0001:00075140       ?setCMassLocalPose@NpRigidDynamic@physx@@UAEXABVPxTransform@2@@Z 10076140 f   NpRigidDynamic.obj
 0001:000758b0       ?setLinearDamping@NpRigidDynamic@physx@@UAEXM@Z 100768b0 f   NpRigidDynamic.obj
 0001:000759a0       ?getLinearDamping@NpRigidDynamic@physx@@UBEMXZ 100769a0 f   NpRigidDynamic.obj
 0001:00075a10       ?setAngularDamping@NpRigidDynamic@physx@@UAEXM@Z 10076a10 f   NpRigidDynamic.obj
 0001:00075b00       ?getAngularDamping@NpRigidDynamic@physx@@UBEMXZ 10076b00 f   NpRigidDynamic.obj
 0001:00075b70       ?setLinearVelocity@NpRigidDynamic@physx@@UAEXABVPxVec3@2@_N@Z 10076b70 f   NpRigidDynamic.obj
 0001:00075db0       ?setAngularVelocity@NpRigidDynamic@physx@@UAEXABVPxVec3@2@_N@Z 10076db0 f   NpRigidDynamic.obj
 0001:00075ff0       ?setMaxAngularVelocity@NpRigidDynamic@physx@@UAEXM@Z 10076ff0 f   NpRigidDynamic.obj
 0001:000760e0       ?getMaxAngularVelocity@NpRigidDynamic@physx@@UBEMXZ 100770e0 f   NpRigidDynamic.obj
 0001:00076150       ?addForce@NpRigidDynamic@physx@@UAEXABVPxVec3@2@W4Enum@PxForceMode@2@_N@Z 10077150 f   NpRigidDynamic.obj
 0001:00076400       ?clearForce@NpRigidDynamic@physx@@UAEXW4Enum@PxForceMode@2@@Z 10077400 f   NpRigidDynamic.obj
 0001:00076580       ?addTorque@NpRigidDynamic@physx@@UAEXABVPxVec3@2@W4Enum@PxForceMode@2@_N@Z 10077580 f   NpRigidDynamic.obj
 0001:00076830       ?clearTorque@NpRigidDynamic@physx@@UAEXW4Enum@PxForceMode@2@@Z 10077830 f   NpRigidDynamic.obj
 0001:000769b0       ?isSleeping@NpRigidDynamic@physx@@UBE_NXZ 100779b0 f   NpRigidDynamic.obj
 0001:00076a40       ?getSleepThreshold@NpRigidDynamic@physx@@UBEMXZ 10077a40 f   NpRigidDynamic.obj
 0001:00076a90       ?setSleepThreshold@NpRigidDynamic@physx@@UAEXM@Z 10077a90 f   NpRigidDynamic.obj
 0001:00076b80       ?getStabilizationThreshold@NpRigidDynamic@physx@@UBEMXZ 10077b80 f   NpRigidDynamic.obj
 0001:00076be0       ?setStabilizationThreshold@NpRigidDynamic@physx@@UAEXM@Z 10077be0 f   NpRigidDynamic.obj
 0001:00076cd0       ?setWakeCounter@NpRigidDynamic@physx@@UAEXM@Z 10077cd0 f   NpRigidDynamic.obj
 0001:00076e90       ?getWakeCounter@NpRigidDynamic@physx@@UBEMXZ 10077e90 f   NpRigidDynamic.obj
 0001:00076ed0       ?wakeUp@NpRigidDynamic@physx@@UAEXXZ 10077ed0 f   NpRigidDynamic.obj
 0001:00077050       ?putToSleep@NpRigidDynamic@physx@@UAEXXZ 10078050 f   NpRigidDynamic.obj
 0001:000771c0       ?setSolverIterationCounts@NpRigidDynamic@physx@@UAEXII@Z 100781c0 f   NpRigidDynamic.obj
 0001:000772e0       ?getSolverIterationCounts@NpRigidDynamic@physx@@UBEXAAI0@Z 100782e0 f   NpRigidDynamic.obj
 0001:00077340       ?setContactReportThreshold@NpRigidDynamic@physx@@UAEXM@Z 10078340 f   NpRigidDynamic.obj
 0001:00077430       ?getContactReportThreshold@NpRigidDynamic@physx@@UBEMXZ 10078430 f   NpRigidDynamic.obj
 0001:00077490       ?getRigidDynamicLockFlags@NpRigidDynamic@physx@@UBE?AV?$PxFlags@W4Enum@PxRigidDynamicLockFlag@physx@@G@2@XZ 10078490 f   NpRigidDynamic.obj
 0001:000774d0       ?setRigidDynamicLockFlags@NpRigidDynamic@physx@@UAEXV?$PxFlags@W4Enum@PxRigidDynamicLockFlag@physx@@G@2@@Z 100784d0 f   NpRigidDynamic.obj
 0001:000774f0       ?setRigidDynamicLockFlag@NpRigidDynamic@physx@@UAEXW4Enum@PxRigidDynamicLockFlag@2@_N@Z 100784f0 f   NpRigidDynamic.obj
 0001:00077560       ??0NpRigidDynamic@physx@@QAE@ABVPxTransform@1@@Z 10078560 f   NpRigidDynamic.obj
 0001:000775c0       ?switchToNoSim@NpRigidDynamic@physx@@UAEXXZ 100785c0 f   NpRigidDynamic.obj
 0001:000776d0       ?switchFromNoSim@NpRigidDynamic@physx@@UAEXXZ 100786d0 f   NpRigidDynamic.obj
 0001:000776f0       ?wakeUpInternalNoKinematicTest@NpRigidDynamic@physx@@QAEXAAVBody@Scb@2@_N1@Z 100786f0 f   NpRigidDynamic.obj
 0001:00077760       ?visualize@NpRigidDynamic@physx@@QAEXAAVRenderOutput@Cm@2@PAVNpScene@2@@Z 10078760 f   NpRigidDynamic.obj
 0001:00078770       ??0?$NpActorTemplate@VPxRigidDynamic@physx@@@physx@@QAE@GV?$PxFlags@W4Enum@PxBaseFlag@physx@@G@1@PBDPAX@Z 10079770 f i NpRigidDynamic.obj
 0001:000787d0       ??0?$NpRigidActorTemplate@VPxRigidDynamic@physx@@@physx@@QAE@GV?$PxFlags@W4Enum@PxBaseFlag@physx@@G@1@@Z 100797d0 f i NpRigidDynamic.obj
 0001:00078830       ??0?$NpRigidBodyTemplate@VPxRigidDynamic@physx@@@physx@@QAE@GV?$PxFlags@W4Enum@PxBaseFlag@physx@@G@1@W4Enum@PxActorType@1@ABVPxTransform@1@@Z 10079830 f i NpRigidDynamic.obj
 0001:000788b0       ??0?$NpRigidBodyTemplate@VPxRigidDynamic@physx@@@physx@@QAE@V?$PxFlags@W4Enum@PxBaseFlag@physx@@G@1@@Z 100798b0 f i NpRigidDynamic.obj
 0001:00078940       ??1?$NpActorTemplate@VPxRigidDynamic@physx@@@physx@@UAE@XZ 10079940 f i NpRigidDynamic.obj
 0001:00078970       ??1?$NpRigidActorTemplate@VPxRigidDynamic@physx@@@physx@@UAE@XZ 10079970 f i NpRigidDynamic.obj
 0001:000789b0       ??1?$NpRigidBodyTemplate@VPxRigidDynamic@physx@@@physx@@UAE@XZ 100799b0 f i NpRigidDynamic.obj
 0001:00078a00       ??1PxRigidDynamic@physx@@MAE@XZ 10079a00 f i NpRigidDynamic.obj
 0001:00078a10       ??_E?$NpActorTemplate@VPxRigidDynamic@physx@@@physx@@UAEPAXI@Z 10079a10 f i NpRigidDynamic.obj
 0001:00078a10       ??_G?$NpActorTemplate@VPxRigidDynamic@physx@@@physx@@UAEPAXI@Z 10079a10 f i NpRigidDynamic.obj
 0001:00078a80       ??_E?$NpRigidActorTemplate@VPxRigidDynamic@physx@@@physx@@UAEPAXI@Z 10079a80 f i NpRigidDynamic.obj
 0001:00078a80       ??_G?$NpRigidActorTemplate@VPxRigidDynamic@physx@@@physx@@UAEPAXI@Z 10079a80 f i NpRigidDynamic.obj
 0001:00078b00       ??_E?$NpRigidBodyTemplate@VPxRigidDynamic@physx@@@physx@@UAEPAXI@Z 10079b00 f i NpRigidDynamic.obj
 0001:00078b00       ??_G?$NpRigidBodyTemplate@VPxRigidDynamic@physx@@@physx@@UAEPAXI@Z 10079b00 f i NpRigidDynamic.obj
 0001:00078ba0       ??_ENpRigidDynamic@physx@@UAEPAXI@Z 10079ba0 f i NpRigidDynamic.obj
 0001:00078ba0       ??_GNpRigidDynamic@physx@@UAEPAXI@Z 10079ba0 f i NpRigidDynamic.obj
 0001:00078c40       ??_GPxRigidDynamic@physx@@MAEPAXI@Z 10079c40 f i NpRigidDynamic.obj
 0001:00078c40       ??_EPxRigidDynamic@physx@@MAEPAXI@Z 10079c40 f i NpRigidDynamic.obj
 0001:00078c70       ?addSpatialForce@?$NpRigidBodyTemplate@VPxRigidDynamic@physx@@@physx@@IAEXPBVPxVec3@2@0W4Enum@PxForceMode@2@@Z 10079c70 f i NpRigidDynamic.obj
 0001:00078f80       ?attachShape@?$NpRigidActorTemplate@VPxRigidDynamic@physx@@@physx@@UAEXAAVPxShape@2@@Z 10079f80 f i NpRigidDynamic.obj
 0001:000790c0       ?attachShape@?$NpRigidBodyTemplate@VPxRigidDynamic@physx@@@physx@@UAEXAAVPxShape@2@@Z 1007a0c0 f i NpRigidDynamic.obj
 0001:00079220       ?clearSpatialForce@?$NpRigidBodyTemplate@VPxRigidDynamic@physx@@@physx@@IAEXW4Enum@PxForceMode@2@_N1@Z 1007a220 f i NpRigidDynamic.obj
 0001:00079280       ?createShape@?$NpRigidBodyTemplate@VPxRigidDynamic@physx@@@physx@@UAEPAVPxShape@2@ABVPxGeometry@2@PBQAVPxMaterial@2@GV?$PxFlags@W4Enum@PxShapeFlag@physx@@E@2@@Z 1007a280 f i NpRigidDynamic.obj
 0001:000793f0       ?detachShape@?$NpRigidActorTemplate@VPxRigidDynamic@physx@@@physx@@UAEXAAVPxShape@2@_N@Z 1007a3f0 f i NpRigidDynamic.obj
 0001:000794b0       ?exportExtraData@?$NpActorTemplate@VPxRigidDynamic@physx@@@physx@@UAEXAAVPxSerializationContext@2@@Z 1007a4b0 f i NpRigidDynamic.obj
 0001:000794c0       ?exportExtraData@?$NpRigidActorTemplate@VPxRigidDynamic@physx@@@physx@@UAEXAAVPxSerializationContext@2@@Z 1007a4c0 f i NpRigidDynamic.obj
 0001:000794f0       ?getActorFlags@?$NpActorTemplate@VPxRigidDynamic@physx@@@physx@@UBE?AV?$PxFlags@W4Enum@PxActorFlag@physx@@E@2@XZ 1007a4f0 f i NpRigidDynamic.obj
 0001:00079570       ?getActorFlags@Actor@Scb@physx@@QBE?AV?$PxFlags@W4Enum@PxActorFlag@physx@@E@3@XZ 1007a570 f i NpRigidDynamic.obj
 0001:000795b0       ?getAggregate@?$NpActorTemplate@VPxRigidDynamic@physx@@@physx@@UBEPAVPxAggregate@2@XZ 1007a5b0 f i NpRigidDynamic.obj
 0001:000795c0       ?getAngularVelocity@?$NpRigidBodyTemplate@VPxRigidDynamic@physx@@@physx@@UBE?AVPxVec3@2@XZ 1007a5c0 f i NpRigidDynamic.obj
 0001:00079630       ?getCMassLocalPose@?$NpRigidBodyTemplate@VPxRigidDynamic@physx@@@physx@@UBE?AVPxTransform@2@XZ 1007a630 f i NpRigidDynamic.obj
 0001:000796d0       ?getClientBehaviorFlags@?$NpActorTemplate@VPxRigidDynamic@physx@@@physx@@UBE?AV?$PxFlags@W4Enum@PxActorClientBehaviorFlag@physx@@E@2@XZ 1007a6d0 f i NpRigidDynamic.obj
 0001:00079750       ?getConcreteTypeName@PxRigidDynamic@physx@@UBEPBDXZ 1007a750 f i NpRigidDynamic.obj
 0001:00079760       ?getConstraints@?$NpRigidActorTemplate@VPxRigidDynamic@physx@@@physx@@UBEIPAPAVPxConstraint@2@II@Z 1007a760 f i NpRigidDynamic.obj
 0001:000797c0       ?getDominanceGroup@?$NpActorTemplate@VPxRigidDynamic@physx@@@physx@@UBEEXZ 1007a7c0 f i NpRigidDynamic.obj
 0001:00079850       ?getGlobalPose@NpRigidDynamic@physx@@UBE?AVPxTransform@2@XZ 1007a850 f i NpRigidDynamic.obj
 0001:00079d30       ?getInvMass@?$NpRigidBodyTemplate@VPxRigidDynamic@physx@@@physx@@UBEMXZ 1007ad30 f i NpRigidDynamic.obj
 0001:00079db0       ?getLinearVelocity@?$NpRigidBodyTemplate@VPxRigidDynamic@physx@@@physx@@UBE?AVPxVec3@2@XZ 1007adb0 f i NpRigidDynamic.obj
 0001:00079e20       ?getMass@?$NpRigidBodyTemplate@VPxRigidDynamic@physx@@@physx@@UBEMXZ 1007ae20 f i NpRigidDynamic.obj
 0001:00079ed0       ?getMassSpaceInertiaTensor@?$NpRigidBodyTemplate@VPxRigidDynamic@physx@@@physx@@UBE?AVPxVec3@2@XZ 1007aed0 f i NpRigidDynamic.obj
 0001:00079fb0       ?getMassSpaceInvInertiaTensor@?$NpRigidBodyTemplate@VPxRigidDynamic@physx@@@physx@@UBE?AVPxVec3@2@XZ 1007afb0 f i NpRigidDynamic.obj
 0001:0007a030       ?getMaxContactImpulse@?$NpRigidBodyTemplate@VPxRigidDynamic@physx@@@physx@@UBEMXZ 1007b030 f i NpRigidDynamic.obj
 0001:0007a0a0       ?getMaxDepenetrationVelocity@?$NpRigidBodyTemplate@VPxRigidDynamic@physx@@@physx@@UBEMXZ 1007b0a0 f i NpRigidDynamic.obj
 0001:0007a120       ?getMinCCDAdvanceCoefficient@?$NpRigidBodyTemplate@VPxRigidDynamic@physx@@@physx@@UBEMXZ 1007b120 f i NpRigidDynamic.obj
 0001:0007a190       ?getName@?$NpActorTemplate@VPxRigidDynamic@physx@@@physx@@UBEPBDXZ 1007b190 f i NpRigidDynamic.obj
 0001:0007a1d0       ?getNbConstraints@?$NpRigidActorTemplate@VPxRigidDynamic@physx@@@physx@@UBEIXZ 1007b1d0 f i NpRigidDynamic.obj
 0001:0007a220       ?getNbShapes@?$NpRigidActorTemplate@VPxRigidDynamic@physx@@@physx@@UBEIXZ 1007b220 f i NpRigidDynamic.obj
 0001:0007a260       ?getOwnerClient@?$NpActorTemplate@VPxRigidDynamic@physx@@@physx@@UBEEXZ 1007b260 f i NpRigidDynamic.obj
 0001:0007a290       ?getRigidBodyFlags@?$NpRigidBodyTemplate@VPxRigidDynamic@physx@@@physx@@UBE?AV?$PxFlags@W4Enum@PxRigidBodyFlag@physx@@E@2@XZ 1007b290 f i NpRigidDynamic.obj
 0001:0007a300       ?getScene@?$NpActorTemplate@VPxRigidDynamic@physx@@@physx@@UBEPAVPxScene@2@XZ 1007b300 f i NpRigidDynamic.obj
 0001:0007a310       ?getShapes@?$NpRigidActorTemplate@VPxRigidDynamic@physx@@@physx@@UBEIPAPAVPxShape@2@II@Z 1007b310 f i NpRigidDynamic.obj
 0001:0007a370       ?getType@NpRigidDynamic@physx@@UBE?AW4Enum@PxActorType@2@XZ 1007b370 f i NpRigidDynamic.obj
 0001:0007a380       ?getWorldBounds@?$NpRigidActorTemplate@VPxRigidDynamic@physx@@@physx@@UBE?AVPxBounds3@2@M@Z 1007b380 f i NpRigidDynamic.obj
 0001:0007a510       ?importExtraData@?$NpRigidActorTemplate@VPxRigidDynamic@physx@@@physx@@QAEXAAVPxDeserializationContext@2@@Z 1007b510 f i NpRigidDynamic.obj
 0001:0007a540       ?isKindOf@PxRigidDynamic@physx@@MBE_NPBD@Z 1007b540 f i NpRigidDynamic.obj
 0001:0007a5b0       ?release@?$NpActorTemplate@VPxRigidDynamic@physx@@@physx@@UAEXXZ 1007b5b0 f i NpRigidDynamic.obj
 0001:0007a5c0       ?release@?$NpRigidActorTemplate@VPxRigidDynamic@physx@@@physx@@UAEXXZ 1007b5c0 f i NpRigidDynamic.obj
 0001:0007a640       ?requires@?$NpRigidActorTemplate@VPxRigidDynamic@physx@@@physx@@UAEXAAVPxProcessPxBaseCallback@2@@Z 1007b640 f i NpRigidDynamic.obj
 0001:0007a6a0       ?resolveReferences@?$NpActorTemplate@VPxRigidDynamic@physx@@@physx@@UAEXAAVPxDeserializationContext@2@@Z 1007b6a0 f i NpRigidDynamic.obj
 0001:0007a6b0       ?resolveReferences@?$NpRigidActorTemplate@VPxRigidDynamic@physx@@@physx@@UAEXAAVPxDeserializationContext@2@@Z 1007b6b0 f i NpRigidDynamic.obj
 0001:0007a730       ?setActorFlag@?$NpActorTemplate@VPxRigidDynamic@physx@@@physx@@UAEXW4Enum@PxActorFlag@2@_N@Z 1007b730 f i NpRigidDynamic.obj
 0001:0007a800       ?setActorFlag@?$NpRigidActorTemplate@VPxRigidDynamic@physx@@@physx@@UAEXW4Enum@PxActorFlag@2@_N@Z 1007b800 f i NpRigidDynamic.obj
 0001:0007aa80       ?setActorFlags@?$NpActorTemplate@VPxRigidDynamic@physx@@@physx@@UAEXV?$PxFlags@W4Enum@PxActorFlag@physx@@E@2@@Z 1007ba80 f i NpRigidDynamic.obj
 0001:0007aae0       ?setActorFlags@?$NpRigidActorTemplate@VPxRigidDynamic@physx@@@physx@@UAEXV?$PxFlags@W4Enum@PxActorFlag@physx@@E@2@@Z 1007bae0 f i NpRigidDynamic.obj
 0001:0007acd0       ?setAngularDamping@Body@Scb@physx@@QAEXM@Z 1007bcd0 f i NpRigidDynamic.obj
 0001:0007ad90       ?setCMassLocalPoseInternal@?$NpRigidBodyTemplate@VPxRigidDynamic@physx@@@physx@@IAEXABVPxTransform@2@@Z 1007bd90 f i NpRigidDynamic.obj
 0001:0007b070       ?setClientBehaviorFlags@?$NpActorTemplate@VPxRigidDynamic@physx@@@physx@@UAEXV?$PxFlags@W4Enum@PxActorClientBehaviorFlag@physx@@E@2@@Z 1007c070 f i NpRigidDynamic.obj
 0001:0007b0d0       ?setClientBehaviorFlags@?$NpRigidActorTemplate@VPxRigidDynamic@physx@@@physx@@UAEXV?$PxFlags@W4Enum@PxActorClientBehaviorFlag@physx@@E@2@@Z 1007c0d0 f i NpRigidDynamic.obj
 0001:0007b160       ?setContactReportThreshold@Body@Scb@physx@@QAEXM@Z 1007c160 f i NpRigidDynamic.obj
 0001:0007b210       ?setDominanceGroup@?$NpActorTemplate@VPxRigidDynamic@physx@@@physx@@UAEXE@Z 1007c210 f i NpRigidDynamic.obj
 0001:0007b270       ?setFreezeThreshold@Body@Scb@physx@@QAEXM@Z 1007c270 f i NpRigidDynamic.obj
 0001:0007b330       ?setKinematicTarget@Body@Scb@physx@@QAEXABVPxTransform@3@@Z 1007c330 f i NpRigidDynamic.obj
 0001:0007b4c0       ?setLinearDamping@Body@Scb@physx@@QAEXM@Z 1007c4c0 f i NpRigidDynamic.obj
 0001:0007b580       ?setLockFlags@Body@Scb@physx@@QAEXV?$PxFlags@W4Enum@PxRigidDynamicLockFlag@physx@@G@3@@Z 1007c580 f i NpRigidDynamic.obj
 0001:0007b630       ?setMass@?$NpRigidBodyTemplate@VPxRigidDynamic@physx@@@physx@@UAEXM@Z 1007c630 f i NpRigidDynamic.obj
 0001:0007b800       ?setMassSpaceInertiaTensor@?$NpRigidBodyTemplate@VPxRigidDynamic@physx@@@physx@@UAEXABVPxVec3@2@@Z 1007c800 f i NpRigidDynamic.obj
 0001:0007ba70       ?setMaxAngVelSq@Body@Scb@physx@@QAEXM@Z 1007ca70 f i NpRigidDynamic.obj
 0001:0007bb30       ?setMaxContactImpulse@?$NpRigidBodyTemplate@VPxRigidDynamic@physx@@@physx@@UAEXM@Z 1007cb30 f i NpRigidDynamic.obj
 0001:0007bbd0       ?setMaxDepenetrationVelocity@?$NpRigidBodyTemplate@VPxRigidDynamic@physx@@@physx@@UAEXM@Z 1007cbd0 f i NpRigidDynamic.obj
 0001:0007bc80       ?setMinCCDAdvanceCoefficient@?$NpRigidBodyTemplate@VPxRigidDynamic@physx@@@physx@@UAEXM@Z 1007cc80 f i NpRigidDynamic.obj
 0001:0007bce0       ?setName@?$NpActorTemplate@VPxRigidDynamic@physx@@@physx@@UAEXPBD@Z 1007cce0 f i NpRigidDynamic.obj
 0001:0007bd60       ?setOwnerClient@?$NpActorTemplate@VPxRigidDynamic@physx@@@physx@@UAEXE@Z 1007cd60 f i NpRigidDynamic.obj
 0001:0007bdd0       ?setRigidBodyFlag@?$NpRigidBodyTemplate@VPxRigidDynamic@physx@@@physx@@UAEXW4Enum@PxRigidBodyFlag@2@_N@Z 1007cdd0 f i NpRigidDynamic.obj
 0001:0007c1c0       ?setRigidBodyFlags@?$NpRigidBodyTemplate@VPxRigidDynamic@physx@@@physx@@UAEXV?$PxFlags@W4Enum@PxRigidBodyFlag@physx@@E@2@@Z 1007d1c0 f i NpRigidDynamic.obj
 0001:0007c590       ?setSleepThreshold@Body@Scb@physx@@QAEXM@Z 1007d590 f i NpRigidDynamic.obj
 0001:0007c650       ?setSolverIterationCounts@Body@Scb@physx@@QAEXG@Z 1007d650 f i NpRigidDynamic.obj
 0001:0007c700       ?switchFromNoSim@?$NpRigidActorTemplate@VPxRigidDynamic@physx@@@physx@@UAEXXZ 1007d700 f i NpRigidDynamic.obj
 0001:0007c710       ?switchToNoSim@?$NpRigidActorTemplate@VPxRigidDynamic@physx@@@physx@@UAEXXZ 1007d710 f i NpRigidDynamic.obj
 0001:0007c720       ?updateShaderComs@?$NpRigidActorTemplate@VPxRigidDynamic@physx@@@physx@@QAEXXZ 1007d720 f i NpRigidDynamic.obj
 0001:0007c790       ?visualize@?$NpRigidActorTemplate@VPxRigidDynamic@physx@@@physx@@QAEXAAVRenderOutput@Cm@2@PAVNpScene@2@@Z 1007d790 f i NpRigidDynamic.obj
 0001:0007c7b0       ?visualize@?$NpRigidBodyTemplate@VPxRigidDynamic@physx@@@physx@@QAEXAAVRenderOutput@Cm@2@PAVNpScene@2@@Z 1007d7b0 f i NpRigidDynamic.obj
 0001:0007cbd0       ?NpRigidStaticGetShapes@physx@@YAIAAVRigidStatic@Scb@1@AAPBQAX@Z 1007dbd0 f   NpRigidStatic.obj
 0001:0007cc10       ?requires@NpRigidStatic@physx@@UAEXAAVPxProcessPxBaseCallback@2@@Z 1007dc10 f   NpRigidStatic.obj
 0001:0007cc60       ?createObject@NpRigidStatic@physx@@SAPAV12@AAPAEAAVPxDeserializationContext@2@@Z 1007dc60 f   NpRigidStatic.obj
 0001:0007cce0       ??1NpRigidStatic@physx@@UAE@XZ 1007dce0 f   NpRigidStatic.obj
 0001:0007cd20       ?release@NpRigidStatic@physx@@UAEXXZ 1007dd20 f   NpRigidStatic.obj
 0001:0007cdf0       ?createShape@NpRigidStatic@physx@@UAEPAVPxShape@2@ABVPxGeometry@2@PBQAVPxMaterial@2@GV?$PxFlags@W4Enum@PxShapeFlag@physx@@E@2@@Z 1007ddf0 f   NpRigidStatic.obj
 0001:0007ceb0       ?setGlobalPose@NpRigidStatic@physx@@UAEXABVPxTransform@2@_N@Z 1007deb0 f   NpRigidStatic.obj
 0001:0007d060       ?getGlobalPose@NpRigidStatic@physx@@UBE?AVPxTransform@2@XZ 1007e060 f   NpRigidStatic.obj
 0001:0007d0d0       ??0NpRigidStatic@physx@@QAE@ABVPxTransform@1@@Z 1007e0d0 f   NpRigidStatic.obj
 0001:0007d130       ?switchToNoSim@NpRigidStatic@physx@@UAEXXZ 1007e130 f   NpRigidStatic.obj
 0001:0007d150       ?switchFromNoSim@NpRigidStatic@physx@@UAEXXZ 1007e150 f   NpRigidStatic.obj
 0001:0007d170       ?checkConstraintValidity@NpRigidStatic@physx@@QBE_NXZ 1007e170 f   NpRigidStatic.obj
 0001:0007d1c0       ?visualize@NpRigidStatic@physx@@QAEXAAVRenderOutput@Cm@2@PAVNpScene@2@@Z 1007e1c0 f   NpRigidStatic.obj
 0001:0007d480       ??0?$NpActorTemplate@VPxRigidStatic@physx@@@physx@@QAE@GV?$PxFlags@W4Enum@PxBaseFlag@physx@@G@1@PBDPAX@Z 1007e480 f i NpRigidStatic.obj
 0001:0007d4e0       ??0?$NpRigidActorTemplate@VPxRigidStatic@physx@@@physx@@QAE@GV?$PxFlags@W4Enum@PxBaseFlag@physx@@G@1@@Z 1007e4e0 f i NpRigidStatic.obj
 0001:0007d540       ??0RigidStatic@Scb@physx@@QAE@ABVPxTransform@2@@Z 1007e540 f i NpRigidStatic.obj
 0001:0007d5d0       ??1?$NpActorTemplate@VPxRigidStatic@physx@@@physx@@UAE@XZ 1007e5d0 f i NpRigidStatic.obj
 0001:0007d600       ??1?$NpRigidActorTemplate@VPxRigidStatic@physx@@@physx@@UAE@XZ 1007e600 f i NpRigidStatic.obj
 0001:0007d640       ??1PxRigidStatic@physx@@MAE@XZ 1007e640 f i NpRigidStatic.obj
 0001:0007d650       ??_G?$NpActorTemplate@VPxRigidStatic@physx@@@physx@@UAEPAXI@Z 1007e650 f i NpRigidStatic.obj
 0001:0007d650       ??_E?$NpActorTemplate@VPxRigidStatic@physx@@@physx@@UAEPAXI@Z 1007e650 f i NpRigidStatic.obj
 0001:0007d6c0       ??_E?$NpRigidActorTemplate@VPxRigidStatic@physx@@@physx@@UAEPAXI@Z 1007e6c0 f i NpRigidStatic.obj
 0001:0007d6c0       ??_G?$NpRigidActorTemplate@VPxRigidStatic@physx@@@physx@@UAEPAXI@Z 1007e6c0 f i NpRigidStatic.obj
 0001:0007d740       ??_GNpRigidStatic@physx@@UAEPAXI@Z 1007e740 f i NpRigidStatic.obj
 0001:0007d740       ??_ENpRigidStatic@physx@@UAEPAXI@Z 1007e740 f i NpRigidStatic.obj
 0001:0007d7d0       ??_GPxRigidStatic@physx@@MAEPAXI@Z 1007e7d0 f i NpRigidStatic.obj
 0001:0007d7d0       ??_EPxRigidStatic@physx@@MAEPAXI@Z 1007e7d0 f i NpRigidStatic.obj
 0001:0007d800       ?attachShape@?$NpRigidActorTemplate@VPxRigidStatic@physx@@@physx@@UAEXAAVPxShape@2@@Z 1007e800 f i NpRigidStatic.obj
 0001:0007d940       ?detachShape@?$NpRigidActorTemplate@VPxRigidStatic@physx@@@physx@@UAEXAAVPxShape@2@_N@Z 1007e940 f i NpRigidStatic.obj
 0001:0007da00       ?exportExtraData@?$NpActorTemplate@VPxRigidStatic@physx@@@physx@@UAEXAAVPxSerializationContext@2@@Z 1007ea00 f i NpRigidStatic.obj
 0001:0007da10       ?exportExtraData@?$NpRigidActorTemplate@VPxRigidStatic@physx@@@physx@@UAEXAAVPxSerializationContext@2@@Z 1007ea10 f i NpRigidStatic.obj
 0001:0007da40       ?getActorFlags@?$NpActorTemplate@VPxRigidStatic@physx@@@physx@@UBE?AV?$PxFlags@W4Enum@PxActorFlag@physx@@E@2@XZ 1007ea40 f i NpRigidStatic.obj
 0001:0007dac0       ?getAggregate@?$NpActorTemplate@VPxRigidStatic@physx@@@physx@@UBEPAVPxAggregate@2@XZ 1007eac0 f i NpRigidStatic.obj
 0001:0007dad0       ?getClientBehaviorFlags@?$NpActorTemplate@VPxRigidStatic@physx@@@physx@@UBE?AV?$PxFlags@W4Enum@PxActorClientBehaviorFlag@physx@@E@2@XZ 1007ead0 f i NpRigidStatic.obj
 0001:0007db50       ?getConcreteTypeName@PxRigidStatic@physx@@UBEPBDXZ 1007eb50 f i NpRigidStatic.obj
 0001:0007db60       ?getConstraints@?$NpRigidActorTemplate@VPxRigidStatic@physx@@@physx@@UBEIPAPAVPxConstraint@2@II@Z 1007eb60 f i NpRigidStatic.obj
 0001:0007dbc0       ?getDominanceGroup@?$NpActorTemplate@VPxRigidStatic@physx@@@physx@@UBEEXZ 1007ebc0 f i NpRigidStatic.obj
 0001:0007dc50       ?getName@?$NpActorTemplate@VPxRigidStatic@physx@@@physx@@UBEPBDXZ 1007ec50 f i NpRigidStatic.obj
 0001:0007dc90       ?getNbConstraints@?$NpRigidActorTemplate@VPxRigidStatic@physx@@@physx@@UBEIXZ 1007ec90 f i NpRigidStatic.obj
 0001:0007dce0       ?getNbShapes@?$NpRigidActorTemplate@VPxRigidStatic@physx@@@physx@@UBEIXZ 1007ece0 f i NpRigidStatic.obj
 0001:0007dd20       ?getOwnerClient@?$NpActorTemplate@VPxRigidStatic@physx@@@physx@@UBEEXZ 1007ed20 f i NpRigidStatic.obj
 0001:0007dd50       ?getScene@?$NpActorTemplate@VPxRigidStatic@physx@@@physx@@UBEPAVPxScene@2@XZ 1007ed50 f i NpRigidStatic.obj
 0001:0007dd60       ?getShapes@?$NpRigidActorTemplate@VPxRigidStatic@physx@@@physx@@UBEIPAPAVPxShape@2@II@Z 1007ed60 f i NpRigidStatic.obj
 0001:0007ddc0       ?getType@NpRigidStatic@physx@@UBE?AW4Enum@PxActorType@2@XZ 1007edc0 f i NpRigidStatic.obj
 0001:0007ddd0       ?getWorldBounds@?$NpRigidActorTemplate@VPxRigidStatic@physx@@@physx@@UBE?AVPxBounds3@2@M@Z 1007edd0 f i NpRigidStatic.obj
 0001:0007df60       ?importExtraData@?$NpRigidActorTemplate@VPxRigidStatic@physx@@@physx@@QAEXAAVPxDeserializationContext@2@@Z 1007ef60 f i NpRigidStatic.obj
 0001:0007df90       ?isKindOf@PxRigidStatic@physx@@MBE_NPBD@Z 1007ef90 f i NpRigidStatic.obj
 0001:0007e040       ?release@?$NpActorTemplate@VPxRigidStatic@physx@@@physx@@UAEXXZ 1007f040 f i NpRigidStatic.obj
 0001:0007e050       ?release@?$NpRigidActorTemplate@VPxRigidStatic@physx@@@physx@@UAEXXZ 1007f050 f i NpRigidStatic.obj
 0001:0007e0d0       ?requires@?$NpRigidActorTemplate@VPxRigidStatic@physx@@@physx@@UAEXAAVPxProcessPxBaseCallback@2@@Z 1007f0d0 f i NpRigidStatic.obj
 0001:0007e130       ?resolveReferences@?$NpActorTemplate@VPxRigidStatic@physx@@@physx@@UAEXAAVPxDeserializationContext@2@@Z 1007f130 f i NpRigidStatic.obj
 0001:0007e140       ?resolveReferences@?$NpRigidActorTemplate@VPxRigidStatic@physx@@@physx@@UAEXAAVPxDeserializationContext@2@@Z 1007f140 f i NpRigidStatic.obj
 0001:0007e1c0       ?setActor2World@RigidStatic@Scb@physx@@QAEXABVPxTransform@3@@Z 1007f1c0 f i NpRigidStatic.obj
 0001:0007e2a0       ?setActorFlag@?$NpActorTemplate@VPxRigidStatic@physx@@@physx@@UAEXW4Enum@PxActorFlag@2@_N@Z 1007f2a0 f i NpRigidStatic.obj
 0001:0007e370       ?setActorFlag@?$NpRigidActorTemplate@VPxRigidStatic@physx@@@physx@@UAEXW4Enum@PxActorFlag@2@_N@Z 1007f370 f i NpRigidStatic.obj
 0001:0007e5f0       ?setActorFlags@?$NpActorTemplate@VPxRigidStatic@physx@@@physx@@UAEXV?$PxFlags@W4Enum@PxActorFlag@physx@@E@2@@Z 1007f5f0 f i NpRigidStatic.obj
 0001:0007e650       ?setActorFlags@?$NpRigidActorTemplate@VPxRigidStatic@physx@@@physx@@UAEXV?$PxFlags@W4Enum@PxActorFlag@physx@@E@2@@Z 1007f650 f i NpRigidStatic.obj
 0001:0007e840       ?setClientBehaviorFlags@?$NpActorTemplate@VPxRigidStatic@physx@@@physx@@UAEXV?$PxFlags@W4Enum@PxActorClientBehaviorFlag@physx@@E@2@@Z 1007f840 f i NpRigidStatic.obj
 0001:0007e8a0       ?setClientBehaviorFlags@?$NpRigidActorTemplate@VPxRigidStatic@physx@@@physx@@UAEXV?$PxFlags@W4Enum@PxActorClientBehaviorFlag@physx@@E@2@@Z 1007f8a0 f i NpRigidStatic.obj
 0001:0007e930       ?setDominanceGroup@?$NpActorTemplate@VPxRigidStatic@physx@@@physx@@UAEXE@Z 1007f930 f i NpRigidStatic.obj
 0001:0007e990       ?setName@?$NpActorTemplate@VPxRigidStatic@physx@@@physx@@UAEXPBD@Z 1007f990 f i NpRigidStatic.obj
 0001:0007ea10       ?setOwnerClient@?$NpActorTemplate@VPxRigidStatic@physx@@@physx@@UAEXE@Z 1007fa10 f i NpRigidStatic.obj
 0001:0007ea80       ?switchFromNoSim@?$NpRigidActorTemplate@VPxRigidStatic@physx@@@physx@@UAEXXZ 1007fa80 f i NpRigidStatic.obj
 0001:0007ea90       ?switchToNoSim@?$NpRigidActorTemplate@VPxRigidStatic@physx@@@physx@@UAEXXZ 1007fa90 f i NpRigidStatic.obj
 0001:0007eaa0       ?updateShaderComs@?$NpRigidActorTemplate@VPxRigidStatic@physx@@@physx@@QAEXXZ 1007faa0 f i NpRigidStatic.obj
 0001:0007eb10       ?visualize@?$NpRigidActorTemplate@VPxRigidStatic@physx@@@physx@@QAEXAAVRenderOutput@Cm@2@PAVNpScene@2@@Z 1007fb10 f i NpRigidStatic.obj
 0001:0007eb30       ??0NpSceneQueries@physx@@QAE@ABVPxSceneDesc@1@@Z 1007fb30 f   NpScene.obj
 0001:0007ec90       ??1NpSceneQueries@physx@@UAE@XZ 1007fc90 f   NpScene.obj
 0001:0007ed00       ?setData@NpContactCallbackTask@physx@@QAEXPAVNpScene@2@PBUPxContactPairHeader@2@I@Z 1007fd00 f   NpScene.obj
 0001:0007ed20       ?run@NpContactCallbackTask@physx@@UAEXXZ 1007fd20 f   NpScene.obj
 0001:0007ee40       ?release@NpScene@physx@@UAEXXZ 1007fe40 f   NpScene.obj
 0001:0007eef0       ?setFlag@NpScene@physx@@UAEXW4Enum@PxSceneFlag@2@_N@Z 1007fef0 f   NpScene.obj
 0001:0007ef90       ?getFlags@NpScene@physx@@UBE?AV?$PxFlags@W4Enum@PxSceneFlag@physx@@I@2@XZ 1007ff90 f   NpScene.obj
 0001:0007eff0       ?setGravity@NpScene@physx@@UAEXABVPxVec3@2@@Z 1007fff0 f   NpScene.obj
 0001:0007f030       ?getGravity@NpScene@physx@@UBE?AVPxVec3@2@XZ 10080030 f   NpScene.obj
 0001:0007f0b0       ?setBounceThresholdVelocity@NpScene@physx@@UAEXM@Z 100800b0 f   NpScene.obj
 0001:0007f140       ?getBounceThresholdVelocity@NpScene@physx@@UBEMXZ 10080140 f   NpScene.obj
 0001:0007f1a0       ?getFrictionOffsetThreshold@NpScene@physx@@UBEMXZ 100801a0 f   NpScene.obj
 0001:0007f1b0       ?setLimits@NpScene@physx@@UAEXABVPxSceneLimits@2@@Z 100801b0 f   NpScene.obj
 0001:0007f240       ?getLimits@NpScene@physx@@UBE?AVPxSceneLimits@2@XZ 10080240 f   NpScene.obj
 0001:0007f290       ?addActor@NpScene@physx@@UAEXAAVPxActor@2@@Z 10080290 f   NpScene.obj
 0001:0007f440       ?removeActor@NpScene@physx@@UAEXAAVPxActor@2@_N@Z 10080440 f   NpScene.obj
 0001:0007f510       ?getNbConstraints@NpScene@physx@@UBEIXZ 10080510 f   NpScene.obj
 0001:0007f540       ?getConstraints@NpScene@physx@@UBEIPAPAVPxConstraint@2@II@Z 10080540 f   NpScene.obj
 0001:0007f5c0       ?addArticulation@NpScene@physx@@UAEXAAVPxArticulation@2@@Z 100805c0 f   NpScene.obj
 0001:0007f730       ?removeArticulation@NpScene@physx@@UAEXAAVPxArticulation@2@_N@Z 10080730 f   NpScene.obj
 0001:0007f800       ?getNbArticulations@NpScene@physx@@UBEIXZ 10080800 f   NpScene.obj
 0001:0007f830       ?getArticulations@NpScene@physx@@UBEIPAPAVPxArticulation@2@II@Z 10080830 f   NpScene.obj
 0001:0007f8b0       ?addAggregate@NpScene@physx@@UAEXAAVPxAggregate@2@@Z 100808b0 f   NpScene.obj
 0001:0007fa60       ?removeAggregate@NpScene@physx@@UAEXAAVPxAggregate@2@_N@Z 10080a60 f   NpScene.obj
 0001:0007fc20       ?getNbAggregates@NpScene@physx@@UBEIXZ 10080c20 f   NpScene.obj
 0001:0007fc50       ?getAggregates@NpScene@physx@@UBEIPAPAVPxAggregate@2@II@Z 10080c50 f   NpScene.obj
 0001:0007fcd0       ?addCollection@NpScene@physx@@UAEXABVPxCollection@2@@Z 10080cd0 f   NpScene.obj
 0001:0007ff40       ?setDominanceGroupPair@NpScene@physx@@UAEXEEABUPxDominanceGroupPair@2@@Z 10080f40 f   NpScene.obj
 0001:000800b0       ?getDominanceGroupPair@NpScene@physx@@UBE?AUPxDominanceGroupPair@2@EE@Z 100810b0 f   NpScene.obj
 0001:00080140       ?getNbActors@NpScene@physx@@UBEIV?$PxFlags@W4Enum@PxActorTypeFlag@physx@@G@2@@Z 10081140 f   NpScene.obj
 0001:00080280       ?getActors@NpScene@physx@@UBEIV?$PxFlags@W4Enum@PxActorTypeFlag@physx@@G@2@PAPAVPxActor@2@II@Z 10081280 f   NpScene.obj
 0001:000803d0       ?getActiveTransforms@NpScene@physx@@UAEPBUPxActiveTransform@2@AAIE@Z 100813d0 f   NpScene.obj
 0001:00080450       ?getActiveActors@NpScene@physx@@UAEPAPAVPxActor@2@AAIE@Z 10081450 f   NpScene.obj
 0001:000804d0       ?getSimulationStatistics@NpScene@physx@@UBEXAAVPxSimulationStatistics@2@@Z 100814d0 f   NpScene.obj
 0001:00080540       ?createClient@NpScene@physx@@UAEEXZ 10081540 f   NpScene.obj
 0001:000805c0       ?setClientBehaviorFlags@NpScene@physx@@UAEXEV?$PxFlags@W4Enum@PxClientBehaviorFlag@physx@@E@2@@Z 100815c0 f   NpScene.obj
 0001:00080640       ?getClientBehaviorFlags@NpScene@physx@@UBE?AV?$PxFlags@W4Enum@PxClientBehaviorFlag@physx@@E@2@E@Z 10081640 f   NpScene.obj
 0001:000806f0       ?setFrictionType@NpScene@physx@@UAEXW4Enum@PxFrictionType@2@@Z 100816f0 f   NpScene.obj
 0001:00080760       ?getFrictionType@NpScene@physx@@UBE?AW4Enum@PxFrictionType@2@XZ 10081760 f   NpScene.obj
 0001:00080790       ?setClothInterCollisionDistance@NpScene@physx@@UAEXM@Z 10081790 f   NpScene.obj
 0001:00080820       ?getClothInterCollisionDistance@NpScene@physx@@UBEMXZ 10081820 f   NpScene.obj
 0001:00080860       ?setClothInterCollisionStiffness@NpScene@physx@@UAEXM@Z 10081860 f   NpScene.obj
 0001:000808f0       ?getClothInterCollisionStiffness@NpScene@physx@@UBEMXZ 100818f0 f   NpScene.obj
 0001:00080930       ?setClothInterCollisionNbIterations@NpScene@physx@@UAEXI@Z 10081930 f   NpScene.obj
 0001:000809a0       ?getClothInterCollisionNbIterations@NpScene@physx@@UBEIXZ 100819a0 f   NpScene.obj
 0001:000809d0       ?setSimulationEventCallback@NpScene@physx@@UAEXPAVPxSimulationEventCallback@2@E@Z 100819d0 f   NpScene.obj
 0001:00080a40       ?getSimulationEventCallback@NpScene@physx@@UBEPAVPxSimulationEventCallback@2@E@Z 10081a40 f   NpScene.obj
 0001:00080a80       ?setContactModifyCallback@NpScene@physx@@UAEXPAVPxContactModifyCallback@2@@Z 10081a80 f   NpScene.obj
 0001:00080af0       ?getContactModifyCallback@NpScene@physx@@UBEPAVPxContactModifyCallback@2@XZ 10081af0 f   NpScene.obj
 0001:00080b20       ?setCCDContactModifyCallback@NpScene@physx@@UAEXPAVPxCCDContactModifyCallback@2@@Z 10081b20 f   NpScene.obj
 0001:00080b90       ?getCCDContactModifyCallback@NpScene@physx@@UBEPAVPxCCDContactModifyCallback@2@XZ 10081b90 f   NpScene.obj
 0001:00080bc0       ?setBroadPhaseCallback@NpScene@physx@@UAEXPAVPxBroadPhaseCallback@2@E@Z 10081bc0 f   NpScene.obj
 0001:00080c30       ?getBroadPhaseCallback@NpScene@physx@@UBEPAVPxBroadPhaseCallback@2@E@Z 10081c30 f   NpScene.obj
 0001:00080c70       ?setCCDMaxPasses@NpScene@physx@@UAEXI@Z 10081c70 f   NpScene.obj
 0001:00080ce0       ?getCCDMaxPasses@NpScene@physx@@UBEIXZ 10081ce0 f   NpScene.obj
 0001:00080d10       ?setFilterShaderData@NpScene@physx@@UAEXPBXI@Z 10081d10 f   NpScene.obj
 0001:00080db0       ?getFilterShaderData@NpScene@physx@@UBEPBXXZ 10081db0 f   NpScene.obj
 0001:00080de0       ?getFilterShaderDataSize@NpScene@physx@@UBEIXZ 10081de0 f   NpScene.obj
 0001:00080e10       ?getFilterShader@NpScene@physx@@UBEP6A?AV?$PxFlags@W4Enum@PxFilterFlag@physx@@G@2@IUPxFilterData@2@I0AAV?$PxFlags@W4Enum@PxPairFlag@physx@@G@2@PBXI@ZXZ 10081e10 f   NpScene.obj
 0001:00080e40       ?getFilterCallback@NpScene@physx@@UBEPAVPxSimulationFilterCallback@2@XZ 10081e40 f   NpScene.obj
 0001:00080e70       ?resetFiltering@NpScene@physx@@UAEXAAVPxActor@2@@Z 10081e70 f   NpScene.obj
 0001:00081010       ?resetFiltering@NpScene@physx@@UAEXAAVPxRigidActor@2@PBQAVPxShape@2@I@Z 10082010 f   NpScene.obj
 0001:00081190       ?getPhysics@NpScene@physx@@UAEAAVPxPhysics@2@XZ 10082190 f   NpScene.obj
 0001:000811a0       ?simulate@NpScene@physx@@UAEXMPAVPxBaseTask@2@PAXI_N@Z 100821a0 f   NpScene.obj
 0001:000811d0       ?advance@NpScene@physx@@UAEXPAVPxBaseTask@2@@Z 100821d0 f   NpScene.obj
 0001:00081300       ?collide@NpScene@physx@@UAEXMPAVPxBaseTask@2@PAXI_N@Z 10082300 f   NpScene.obj
 0001:00081330       ?checkResults@NpScene@physx@@UAE_N_N@Z 10082330 f   NpScene.obj
 0001:00081340       ?checkCollision@NpScene@physx@@UAE_N_N@Z 10082340 f   NpScene.obj
 0001:00081350       ?fetchCollision@NpScene@physx@@UAE_N_N@Z 10082350 f   NpScene.obj
 0001:000813d0       ?fetchResults@NpScene@physx@@UAE_N_NPAI@Z 100823d0 f   NpScene.obj
 0001:00081580       ?fetchResultsStart@NpScene@physx@@UAE_NAAPBUPxContactPairHeader@2@AAI_N@Z 10082580 f   NpScene.obj
 0001:000816c0       ?processCallbacks@NpScene@physx@@UAEXPAVPxBaseTask@2@@Z 100826c0 f   NpScene.obj
 0001:00081860       ?fetchResultsFinish@NpScene@physx@@UAEXPAI@Z 10082860 f   NpScene.obj
 0001:00081990       ?flushSimulation@NpScene@physx@@UAEX_N@Z 10082990 f   NpScene.obj
 0001:00081a80       ?flushQueryUpdates@NpScene@physx@@UAEXXZ 10082a80 f   NpScene.obj
 0001:00081b60       ?getRenderBuffer@NpScene@physx@@UAEABVPxRenderBuffer@2@XZ 10082b60 f   NpScene.obj
 0001:00081ba0       ?createBatchQuery@NpScene@physx@@UAEPAVPxBatchQuery@2@ABVPxBatchQueryDesc@2@@Z 10082ba0 f   NpScene.obj
 0001:00081d00       ?releaseBatchQuery@NpScene@physx@@QAEXPAVPxBatchQuery@2@@Z 10082d00 f   NpScene.obj
 0001:00081dc0       ?createVolumeCache@NpScene@physx@@UAEPAVPxVolumeCache@2@II@Z 10082dc0 f   NpScene.obj
 0001:00081e60       ?releaseVolumeCache@NpScene@physx@@QAEXPAVNpVolumeCache@2@@Z 10082e60 f   NpScene.obj
 0001:00081e90       ?setDynamicTreeRebuildRateHint@NpScene@physx@@UAEXI@Z 10082e90 f   NpScene.obj
 0001:00081ed0       ?getDynamicTreeRebuildRateHint@NpScene@physx@@UBEIXZ 10082ed0 f   NpScene.obj
 0001:00081f00       ?forceDynamicTreeRebuild@NpScene@physx@@UAEX_N0@Z 10082f00 f   NpScene.obj
 0001:00081fc0       ?sceneQueriesUpdate@NpScene@physx@@UAEXPAVPxBaseTask@2@_N@Z 10082fc0 f   NpScene.obj
 0001:00082250       ?checkQueries@NpScene@physx@@UAE_N_N@Z 10083250 f   NpScene.obj
 0001:00082260       ?fetchQueries@NpScene@physx@@UAE_N_N@Z 10083260 f   NpScene.obj
 0001:00082360       ?setSceneQueryUpdateMode@NpScene@physx@@UAEXW4Enum@PxSceneQueryUpdateMode@2@@Z 10083360 f   NpScene.obj
 0001:000823a0       ?getSceneQueryUpdateMode@NpScene@physx@@UBE?AW4Enum@PxSceneQueryUpdateMode@2@XZ 100833a0 f   NpScene.obj
 0001:000823d0       ?setSolverBatchSize@NpScene@physx@@UAEXI@Z 100833d0 f   NpScene.obj
 0001:00082450       ?getSolverBatchSize@NpScene@physx@@UBEIXZ 10083450 f   NpScene.obj
 0001:000824a0       ?setVisualizationParameter@NpScene@physx@@UAE_NW4Enum@PxVisualizationParameter@2@M@Z 100834a0 f   NpScene.obj
 0001:000825c0       ?getVisualizationParameter@NpScene@physx@@UBEMW4Enum@PxVisualizationParameter@2@@Z 100835c0 f   NpScene.obj
 0001:00082630       ?setVisualizationCullingBox@NpScene@physx@@UAEXABVPxBounds3@2@@Z 10083630 f   NpScene.obj
 0001:00082830       ?getVisualizationCullingBox@NpScene@physx@@UBE?AVPxBounds3@2@XZ 10083830 f   NpScene.obj
 0001:000828a0       ?setNbContactDataBlocks@NpScene@physx@@UAEXI@Z 100838a0 f   NpScene.obj
 0001:000828e0       ?getNbContactDataBlocksUsed@NpScene@physx@@UBEIXZ 100838e0 f   NpScene.obj
 0001:00082920       ?getMaxNbContactDataBlocksUsed@NpScene@physx@@UBEIXZ 10083920 f   NpScene.obj
 0001:00082960       ?getContactReportStreamBufferSize@NpScene@physx@@UBEIXZ 10083960 f   NpScene.obj
 0001:00082970       ?getTimestamp@NpScene@physx@@UBEIXZ 10083970 f   NpScene.obj
 0001:00082980       ?getSceneQueryStaticTimestamp@NpScene@physx@@UBEIXZ 10083980 f   NpScene.obj
 0001:00082990       ?getCpuDispatcher@NpScene@physx@@UBEPAVPxCpuDispatcher@2@XZ 10083990 f   NpScene.obj
 0001:000829a0       ?getGpuDispatcher@NpScene@physx@@UBEPAVPxGpuDispatcher@2@XZ 100839a0 f   NpScene.obj
 0001:000829b0       ?getStaticStructure@NpScene@physx@@UBE?AW4Enum@PxPruningStructureType@2@XZ 100839b0 f   NpScene.obj
 0001:000829c0       ?getDynamicStructure@NpScene@physx@@UBE?AW4Enum@PxPruningStructureType@2@XZ 100839c0 f   NpScene.obj
 0001:000829d0       ?getBroadPhaseType@NpScene@physx@@UBE?AW4Enum@PxBroadPhaseType@2@XZ 100839d0 f   NpScene.obj
 0001:00082a00       ?getBroadPhaseCaps@NpScene@physx@@UBE_NAAUPxBroadPhaseCaps@2@@Z 10083a00 f   NpScene.obj
 0001:00082a40       ?getNbBroadPhaseRegions@NpScene@physx@@UBEIXZ 10083a40 f   NpScene.obj
 0001:00082a70       ?getBroadPhaseRegions@NpScene@physx@@UBEIPAUPxBroadPhaseRegionInfo@2@II@Z 10083a70 f   NpScene.obj
 0001:00082ab0       ?addBroadPhaseRegion@NpScene@physx@@UAEIABUPxBroadPhaseRegion@2@_N@Z 10083ab0 f   NpScene.obj
 0001:00082cf0       ?removeBroadPhaseRegion@NpScene@physx@@UAE_NI@Z 10083cf0 f   NpScene.obj
 0001:00082d30       ?addActors@NpScene@physx@@UAEXPBQAVPxActor@2@I@Z 10083d30 f   NpScene.obj
 0001:00082d50       ?addActors@NpScene@physx@@UAEXABVPxPruningStructure@2@@Z 10083d50 f   NpScene.obj
 0001:00082da0       ?removeActors@NpScene@physx@@UAEXPBQAVPxActor@2@I_N@Z 10083da0 f   NpScene.obj
 0001:000832e0       ?lockRead@NpScene@physx@@UAEXPBDI@Z 100842e0 f   NpScene.obj
 0001:00083350       ?unlockRead@NpScene@physx@@UAEXXZ 10084350 f   NpScene.obj
 0001:000833d0       ?lockWrite@NpScene@physx@@UAEXPBDI@Z 100843d0 f   NpScene.obj
 0001:00083470       ?unlockWrite@NpScene@physx@@UAEXXZ 10084470 f   NpScene.obj
 0001:00083500       ?getWakeCounterResetValue@NpScene@physx@@UBEMXZ 10084500 f   NpScene.obj
 0001:00083540       ?shiftOrigin@NpScene@physx@@UAEXABVPxVec3@2@@Z 10084540 f   NpScene.obj
 0001:00083a90       ?getScenePvdClient@NpScene@physx@@UAEPAVPxPvdSceneClient@2@XZ 10084a90 f   NpScene.obj
 0001:00083aa0       ??0NpScene@physx@@QAE@ABVPxSceneDesc@1@@Z 10084aa0 f   NpScene.obj
 0001:00084060       ??1NpScene@physx@@UAE@XZ   10085060 f   NpScene.obj
 0001:000845b0       ?addActorInternal@NpScene@physx@@QAEXAAVPxActor@2@@Z 100855b0 f   NpScene.obj
 0001:000846b0       ?removeActorInternal@NpScene@physx@@QAEXAAVPxActor@2@_N1@Z 100856b0 f   NpScene.obj
 0001:00084760       ?addActorsInternal@NpScene@physx@@QAEXPIBQAVPxActor@2@IPBVPruningStructure@Sq@2@@Z 10085760 f   NpScene.obj
 0001:00084f30       ?addArticulationInternal@NpScene@physx@@QAEXAAVPxArticulation@2@@Z 10085f30 f   NpScene.obj
 0001:000854b0       ?removeArticulationInternal@NpScene@physx@@QAEXAAVPxArticulation@2@_N1@Z 100864b0 f   NpScene.obj
 0001:000856a0       ?addMaterial@NpScene@physx@@QAEXABVNpMaterial@2@@Z 100866a0 f   NpScene.obj
 0001:000856b0       ?updateMaterial@NpScene@physx@@QAEXABVNpMaterial@2@@Z 100866b0 f   NpScene.obj
 0001:000856c0       ?removeMaterial@NpScene@physx@@QAEXABVNpMaterial@2@@Z 100866c0 f   NpScene.obj
 0001:000856d0       ?executeScene@NpScene@physx@@QAEXPAVPxBaseTask@2@@Z 100866d0 f   NpScene.obj
 0001:000856f0       ?executeCollide@NpScene@physx@@QAEXPAVPxBaseTask@2@@Z 100866f0 f   NpScene.obj
 0001:00085710       ?executeAdvance@NpScene@physx@@QAEXPAVPxBaseTask@2@@Z 10086710 f   NpScene.obj
 0001:00085730       ?loadFromDesc@NpScene@physx@@QAE_NABVPxSceneDesc@2@@Z 10086730 f   NpScene.obj
 0001:00085790       ?removeFromRigidActorList@NpScene@physx@@QAEXABI@Z 10086790 f   NpScene.obj
 0001:00085800       ?addArticulationLink@NpScene@physx@@QAEXAAVNpArticulationLink@2@@Z 10086800 f   NpScene.obj
 0001:00085860       ?addArticulationLinkBody@NpScene@physx@@QAEXAAVNpArticulationLink@2@@Z 10086860 f   NpScene.obj
 0001:00085890       ?addArticulationLinkConstraint@NpScene@physx@@QAEXAAVNpArticulationLink@2@@Z 10086890 f   NpScene.obj
 0001:000858d0       ?removeArticulationLink@NpScene@physx@@QAEXAAVNpArticulationLink@2@_N@Z 100868d0 f   NpScene.obj
 0001:00085930       ?startWrite@NpScene@physx@@QAE?AW4Enum@StartWriteResult@12@_N@Z 10086930 f   NpScene.obj
 0001:00085a20       ?stopWrite@NpScene@physx@@QAEX_N@Z 10086a20 f   NpScene.obj
 0001:00085aa0       ?startRead@NpScene@physx@@QBE_NXZ 10086aa0 f   NpScene.obj
 0001:00085b60       ?stopRead@NpScene@physx@@QBEXXZ 10086b60 f   NpScene.obj
 0001:00085bc0       ?checkPositionSanity@NpScene@physx@@QBEXABVPxRigidActor@2@ABVPxTransform@2@PBD@Z 10086bc0 f   NpScene.obj
 0001:00085c50       ?addCloth@NpScene@physx@@QAEXAAVNpCloth@2@@Z 10086c50 f   NpScene.obj
 0001:00085d00       ?removeCloth@NpScene@physx@@QAEXAAVNpCloth@2@@Z 10086d00 f   NpScene.obj
 0001:00085da0       ?updatePhysXIndicator@NpScene@physx@@QAEXXZ 10086da0 f   NpScene.obj
 0001:00085e70       ?checkResultsInternal@NpScene@physx@@AAE_N_N@Z 10086e70 f   NpScene.obj
 0001:00085f00       ?checkCollisionInternal@NpScene@physx@@AAE_N_N@Z 10086f00 f   NpScene.obj
 0001:00085f90       ?checkSceneQueriesInternal@NpScene@physx@@AAE_N_N@Z 10086f90 f   NpScene.obj
 0001:00086020       ?simulateOrCollide@NpScene@physx@@AAEXMPAVPxBaseTask@2@PAXI_NPBDW4Enum@SimulationStage@Sc@2@@Z 10087020 f   NpScene.obj
 0001:00086360       ?addRigidStatic@NpScene@physx@@AAEXAAVNpRigidStatic@2@_N@Z 10087360 f   NpScene.obj
 0001:00086440       ?removeRigidStatic@NpScene@physx@@AAEXAAVNpRigidStatic@2@_N1@Z 10087440 f   NpScene.obj
 0001:00086530       ?addRigidDynamic@NpScene@physx@@AAEXAAVNpRigidDynamic@2@_N@Z 10087530 f   NpScene.obj
 0001:00086610       ?removeRigidDynamic@NpScene@physx@@AAEXAAVNpRigidDynamic@2@_N1@Z 10087610 f   NpScene.obj
 0001:00086700       ?addParticleSystem@NpScene@physx@@AAEXAAVNpParticleSystem@2@@Z 10087700 f   NpScene.obj
 0001:000867e0       ?removeParticleSystem@NpScene@physx@@AAEXAAVNpParticleSystem@2@@Z 100877e0 f   NpScene.obj
 0001:000868b0       ?addParticleFluid@NpScene@physx@@AAEXAAVNpParticleFluid@2@@Z 100878b0 f   NpScene.obj
 0001:00086960       ?removeParticleFluid@NpScene@physx@@AAEXAAVNpParticleFluid@2@@Z 10087960 f   NpScene.obj
 0001:00086a00       ?visualize@NpScene@physx@@AAEXXZ 10087a00 f   NpScene.obj
 0001:00086df0       ?updateDirtyShaders@NpScene@physx@@AAEXXZ 10087df0 f   NpScene.obj
 0001:00086e90       ?fireOutOfBoundsCallbacks@NpScene@physx@@AAEXXZ 10087e90 f   NpScene.obj
 0001:00087010       ?fetchResultsPreContactCallbacks@NpScene@physx@@AAEXXZ 10088010 f   NpScene.obj
 0001:000870d0       ?fetchResultsPostContactCallbacks@NpScene@physx@@AAEXXZ 100880d0 f   NpScene.obj
 0001:00087370       ?updateScbStateAndSetupSq@NpScene@physx@@AAEXABVPxRigidActor@2@AAVActor@Scb@2@AAVNpShapeManager@2@_NPBVPxBounds3@2@3@Z 10088370 f   NpScene.obj
 0001:00089690       ??$allocArrayBuffer@PAVShape@Scb@physx@@@Scene@Scb@physx@@AAEPAPAVShape@12@AAV?$Array@PAVShape@Scb@physx@@VNamedAllocator@shdfnd@3@@shdfnd@2@IAAI@Z 1008a690 f i NpScene.obj
 0001:000896d0       ??$append@UPxDebugLine@physx@@@RenderBuffer@Cm@physx@@AAEXAAV?$Array@UPxDebugLine@physx@@VNamedAllocator@shdfnd@2@@shdfnd@2@PBUPxDebugLine@2@I@Z 1008a6d0 f i NpScene.obj
 0001:000897a0       ??$append@UPxDebugPoint@physx@@@RenderBuffer@Cm@physx@@AAEXAAV?$Array@UPxDebugPoint@physx@@VNamedAllocator@shdfnd@2@@shdfnd@2@PBUPxDebugPoint@2@I@Z 1008a7a0 f i NpScene.obj
 0001:00089840       ??$append@UPxDebugText@physx@@@RenderBuffer@Cm@physx@@AAEXAAV?$Array@UPxDebugText@physx@@VNamedAllocator@shdfnd@2@@shdfnd@2@PBUPxDebugText@2@I@Z 1008a840 f i NpScene.obj
 0001:00089910       ??$append@UPxDebugTriangle@physx@@@RenderBuffer@Cm@physx@@AAEXAAV?$Array@UPxDebugTriangle@physx@@VNamedAllocator@shdfnd@2@@shdfnd@2@PBUPxDebugTriangle@2@I@Z 1008a910 f i NpScene.obj
 0001:00089a20       ??0?$InlineArray@PAVShapeSim@Sc@physx@@$0EA@VNamedAllocator@shdfnd@3@@shdfnd@physx@@QAE@ABVNamedAllocator@12@@Z 1008aa20 f i NpScene.obj
 0001:00089b10       ??0?$InlineArray@VPxBounds3@physx@@$07VNamedAllocator@shdfnd@2@@shdfnd@physx@@QAE@ABVNamedAllocator@12@@Z 1008ab10 f i NpScene.obj
 0001:00089c00       ??0Iter@?$HashBase@PAVNpVolumeCache@physx@@PAV12@U?$Hash@PAVNpVolumeCache@physx@@@shdfnd@2@UGetKey@?$HashSetBase@PAVNpVolumeCache@physx@@U?$Hash@PAVNpVolumeCache@physx@@@shdfnd@2@VNonTrackingAllocator@42@$0A@@internal@42@VNonTrackingAllocator@42@$0A@@internal@shdfnd@physx@@QAE@AAV1234@@Z 1008ac00 f i NpScene.obj
 0001:00089c70       ??0RenderBuffer@Cm@physx@@QAE@XZ 1008ac70 f i NpScene.obj
 0001:00089de0       ??1?$Array@IVNamedAllocator@shdfnd@physx@@@shdfnd@physx@@QAE@XZ 1008ade0 f i NpScene.obj
 0001:00089e10       ??1?$PoolBase@U?$Block@E$0BAA@@Scene@Sc@physx@@VNamedAllocator@shdfnd@4@@shdfnd@physx@@QAE@XZ 1008ae10 f i NpScene.obj
 0001:00089f00       ??1?$PoolBase@U?$Block@E$0BIA@@Scene@Sc@physx@@VNamedAllocator@shdfnd@4@@shdfnd@physx@@QAE@XZ 1008af00 f i NpScene.obj
 0001:00089ff0       ??1?$PoolBase@U?$Block@E$0IA@@Scene@Sc@physx@@VNamedAllocator@shdfnd@4@@shdfnd@physx@@QAE@XZ 1008aff0 f i NpScene.obj
 0001:0008a0e0       ??1?$PoolBase@U?$Block@PAX$07@Scene@Sc@physx@@VNamedAllocator@shdfnd@4@@shdfnd@physx@@QAE@XZ 1008b0e0 f i NpScene.obj
 0001:0008a1d0       ??1?$PoolBase@U?$Block@PAX$0BA@@Scene@Sc@physx@@VNamedAllocator@shdfnd@4@@shdfnd@physx@@QAE@XZ 1008b1d0 f i NpScene.obj
 0001:0008a2c0       ??1?$PoolBase@U?$Block@PAX$0CA@@Scene@Sc@physx@@VNamedAllocator@shdfnd@4@@shdfnd@physx@@QAE@XZ 1008b2c0 f i NpScene.obj
 0001:0008a3b0       ??1FanoutTask@Cm@physx@@UAE@XZ 1008b3b0 f i NpScene.obj
 0001:0008a470       ??1FlushPool@Cm@physx@@QAE@XZ 1008b470 f i NpScene.obj
 0001:0008a500       ??1PvdSceneQueryCollector@Vd@physx@@QAE@XZ 1008b500 f i NpScene.obj
 0001:0008a6a0       ??1PxRenderBuffer@physx@@UAE@XZ 1008b6a0 f i NpScene.obj
 0001:0008a6b0       ??1PxScene@physx@@MAE@XZ   1008b6b0 f i NpScene.obj
 0001:0008a6c0       ??1RenderBuffer@Cm@physx@@UAE@XZ 1008b6c0 f i NpScene.obj
 0001:0008a7a0       ??1Scene@Sc@physx@@QAE@XZ  1008b7a0 f i NpScene.obj
 0001:0008b520       ??1Scene@Scb@physx@@QAE@XZ 1008c520 f i NpScene.obj
 0001:0008b790       ??1SqRefFinder@Sc@physx@@UAE@XZ 1008c790 f i NpScene.obj
 0001:0008b7a0       ??_E?$DelegateTask@VNpScene@physx@@$H?executeAdvance@12@QAEXPAVPxBaseTask@2@@ZA@@Cm@physx@@UAEPAXI@Z 1008c7a0 f i NpScene.obj
 0001:0008b7a0       ??_G?$DelegateTask@VNpScene@physx@@$H?executeAdvance@12@QAEXPAVPxBaseTask@2@@ZA@@Cm@physx@@UAEPAXI@Z 1008c7a0 f i NpScene.obj
 0001:0008b800       ??_G?$DelegateTask@VNpScene@physx@@$H?executeCollide@12@QAEXPAVPxBaseTask@2@@ZA@@Cm@physx@@UAEPAXI@Z 1008c800 f i NpScene.obj
 0001:0008b800       ??_E?$DelegateTask@VNpScene@physx@@$H?executeCollide@12@QAEXPAVPxBaseTask@2@@ZA@@Cm@physx@@UAEPAXI@Z 1008c800 f i NpScene.obj
 0001:0008b860       ??_G?$DelegateTask@VNpScene@physx@@$H?executeScene@12@QAEXPAVPxBaseTask@2@@ZA@@Cm@physx@@UAEPAXI@Z 1008c860 f i NpScene.obj
 0001:0008b860       ??_E?$DelegateTask@VNpScene@physx@@$H?executeScene@12@QAEXPAVPxBaseTask@2@@ZA@@Cm@physx@@UAEPAXI@Z 1008c860 f i NpScene.obj
 0001:0008b8c0       ??_E?$DelegateTask@VNpSceneQueries@physx@@$1?sceneQueriesDynamicPrunerUpdate@12@QAEXPAVPxBaseTask@2@@Z@Cm@physx@@UAEPAXI@Z 1008c8c0 f i NpScene.obj
 0001:0008b8c0       ??_G?$DelegateTask@VNpSceneQueries@physx@@$1?sceneQueriesDynamicPrunerUpdate@12@QAEXPAVPxBaseTask@2@@Z@Cm@physx@@UAEPAXI@Z 1008c8c0 f i NpScene.obj
 0001:0008b920       ??_G?$DelegateTask@VNpSceneQueries@physx@@$1?sceneQueriesStaticPrunerUpdate@12@QAEXPAVPxBaseTask@2@@Z@Cm@physx@@UAEPAXI@Z 1008c920 f i NpScene.obj
 0001:0008b920       ??_E?$DelegateTask@VNpSceneQueries@physx@@$1?sceneQueriesStaticPrunerUpdate@12@QAEXPAVPxBaseTask@2@@Z@Cm@physx@@UAEPAXI@Z 1008c920 f i NpScene.obj
 0001:0008b980       ??_GNpContactCallbackTask@physx@@UAEPAXI@Z 1008c980 f i NpScene.obj
 0001:0008b980       ??_ENpContactCallbackTask@physx@@UAEPAXI@Z 1008c980 f i NpScene.obj
 0001:0008b9c0       ??_GNpScene@physx@@UAEPAXI@Z 1008c9c0 f i NpScene.obj
 0001:0008b9c0       ??_ENpScene@physx@@UAEPAXI@Z 1008c9c0 f i NpScene.obj
 0001:0008ba20       ??_GNpSceneQueries@physx@@UAEPAXI@Z 1008ca20 f i NpScene.obj
 0001:0008ba20       ??_ENpSceneQueries@physx@@UAEPAXI@Z 1008ca20 f i NpScene.obj
 0001:0008ba50       ??_EPxLightCpuTask@physx@@UAEPAXI@Z 1008ca50 f i NpScene.obj
 0001:0008ba50       ??_GPxLightCpuTask@physx@@UAEPAXI@Z 1008ca50 f i NpScene.obj
 0001:0008ba90       ??_EPxRenderBuffer@physx@@UAEPAXI@Z 1008ca90 f i NpScene.obj
 0001:0008ba90       ??_GPxRenderBuffer@physx@@UAEPAXI@Z 1008ca90 f i NpScene.obj
 0001:0008bac0       ??_GPxScene@physx@@MAEPAXI@Z 1008cac0 f i NpScene.obj
 0001:0008bac0       ??_EPxScene@physx@@MAEPAXI@Z 1008cac0 f i NpScene.obj
 0001:0008baf0       ??_GRenderBuffer@Cm@physx@@UAEPAXI@Z 1008caf0 f i NpScene.obj
 0001:0008baf0       ??_ERenderBuffer@Cm@physx@@UAEPAXI@Z 1008caf0 f i NpScene.obj
 0001:0008bb50       ??_ESceneCompletion@NpScene@physx@@UAEPAXI@Z 1008cb50 f i NpScene.obj
 0001:0008bb50       ??_GSceneCompletion@NpScene@physx@@UAEPAXI@Z 1008cb50 f i NpScene.obj
 0001:0008bb90       ??_GSqRefFinder@@UAEPAXI@Z 1008cb90 f i NpScene.obj
 0001:0008bb90       ??_ESqRefFinder@@UAEPAXI@Z 1008cb90 f i NpScene.obj
 0001:0008bbc0       ??_GSqRefFinder@Sc@physx@@UAEPAXI@Z 1008cbc0 f i NpScene.obj
 0001:0008bbc0       ??_ESqRefFinder@Sc@physx@@UAEPAXI@Z 1008cbc0 f i NpScene.obj
 0001:0008bbf0       ??_GTask@Cm@physx@@UAEPAXI@Z 1008cbf0 f i NpScene.obj
 0001:0008bbf0       ??_ETask@Cm@physx@@UAEPAXI@Z 1008cbf0 f i NpScene.obj
 0001:0008bc30       ?addReference@PxLightCpuTask@physx@@UAEXXZ 1008cc30 f i NpScene.obj
 0001:0008bc40       ?allocate@?$Array@VPxBounds3@physx@@V?$InlineAllocator@$0MA@VNamedAllocator@shdfnd@physx@@@shdfnd@2@@shdfnd@physx@@IAEPAVPxBounds3@3@I@Z 1008cc40 f i NpScene.obj
 0001:0008bcd0       ?append@RenderBuffer@Cm@physx@@UAEXABVPxRenderBuffer@3@@Z 1008ccd0 f i NpScene.obj
 0001:0008bd70       ?clear@RenderBuffer@Cm@physx@@UAEXXZ 1008cd70 f i NpScene.obj
 0001:0008bda0       ?copy@?$Array@UPxDebugPoint@physx@@VNamedAllocator@shdfnd@2@@shdfnd@physx@@KAXPAUPxDebugPoint@3@0PBU43@@Z 1008cda0 f i NpScene.obj
 0001:0008be10       ?copy@?$Array@UPxDebugText@physx@@VNamedAllocator@shdfnd@2@@shdfnd@physx@@KAXPAUPxDebugText@3@0PBU43@@Z 1008ce10 f i NpScene.obj
 0001:0008be90       ?copy@?$Array@UPxDebugTriangle@physx@@VNamedAllocator@shdfnd@2@@shdfnd@physx@@KAXPAUPxDebugTriangle@3@0PBU43@@Z 1008ce90 f i NpScene.obj
 0001:0008bf30       ?copy@?$Array@VPxBounds3@physx@@V?$InlineAllocator@$0MA@VNamedAllocator@shdfnd@physx@@@shdfnd@2@@shdfnd@physx@@KAXPAVPxBounds3@3@0PBV43@@Z 1008cf30 f i NpScene.obj
 0001:0008bfb0       ?create@?$HashBase@PAVNpVolumeCache@physx@@PAV12@U?$Hash@PAVNpVolumeCache@physx@@@shdfnd@2@UGetKey@?$HashSetBase@PAVNpVolumeCache@physx@@U?$Hash@PAVNpVolumeCache@physx@@@shdfnd@2@VNonTrackingAllocator@42@$0A@@internal@42@VNonTrackingAllocator@42@$0A@@internal@shdfnd@physx@@QAEPAPAVNpVolumeCache@4@ABQAV54@AA_N@Z 1008cfb0 f i NpScene.obj
 0001:0008c130       ?create@?$HashBase@PAVPxAggregate@physx@@PAV12@U?$Hash@PAVPxAggregate@physx@@@shdfnd@2@UGetKey@?$HashSetBase@PAVPxAggregate@physx@@U?$Hash@PAVPxAggregate@physx@@@shdfnd@2@VNonTrackingAllocator@42@$00@internal@42@VNonTrackingAllocator@42@$00@internal@shdfnd@physx@@QAEPAPAVPxAggregate@4@ABQAV54@AA_N@Z 1008d130 f i NpScene.obj
 0001:0008c2b0       ?create@?$HashBase@PAVPxArticulation@physx@@PAV12@U?$Hash@PAVPxArticulation@physx@@@shdfnd@2@UGetKey@?$HashSetBase@PAVPxArticulation@physx@@U?$Hash@PAVPxArticulation@physx@@@shdfnd@2@VNonTrackingAllocator@42@$00@internal@42@VNonTrackingAllocator@42@$00@internal@shdfnd@physx@@QAEPAPAVPxArticulation@4@ABQAV54@AA_N@Z 1008d2b0 f i NpScene.obj
 0001:0008c430       ?create@?$HashBase@PAVPxCloth@physx@@PAV12@U?$Hash@PAVPxCloth@physx@@@shdfnd@2@UGetKey@?$HashSetBase@PAVPxCloth@physx@@U?$Hash@PAVPxCloth@physx@@@shdfnd@2@VNonTrackingAllocator@42@$00@internal@42@VNonTrackingAllocator@42@$00@internal@shdfnd@physx@@QAEPAPAVPxCloth@4@ABQAV54@AA_N@Z 1008d430 f i NpScene.obj
 0001:0008c5b0       ?create@?$HashBase@PAVPxParticleBase@physx@@PAV12@U?$Hash@PAVPxParticleBase@physx@@@shdfnd@2@UGetKey@?$HashSetBase@PAVPxParticleBase@physx@@U?$Hash@PAVPxParticleBase@physx@@@shdfnd@2@VNonTrackingAllocator@42@$00@internal@42@VNonTrackingAllocator@42@$00@internal@shdfnd@physx@@QAEPAPAVPxParticleBase@4@ABQAV54@AA_N@Z 1008d5b0 f i NpScene.obj
 0001:0008c730       ?createClient@Scene@Scb@physx@@QAEEXZ 1008d730 f i NpScene.obj
 0001:0008c7b0       ?disposeElements@?$PoolBase@U?$Block@E$0BAA@@Scene@Sc@physx@@VNamedAllocator@shdfnd@4@@shdfnd@physx@@IAEXXZ 1008d7b0 f i NpScene.obj
 0001:0008c950       ?disposeElements@?$PoolBase@U?$Block@E$0BIA@@Scene@Sc@physx@@VNamedAllocator@shdfnd@4@@shdfnd@physx@@IAEXXZ 1008d950 f i NpScene.obj
 0001:0008caf0       ?disposeElements@?$PoolBase@U?$Block@E$0IA@@Scene@Sc@physx@@VNamedAllocator@shdfnd@4@@shdfnd@physx@@IAEXXZ 1008daf0 f i NpScene.obj
 0001:0008cc90       ?disposeElements@?$PoolBase@U?$Block@PAX$07@Scene@Sc@physx@@VNamedAllocator@shdfnd@4@@shdfnd@physx@@IAEXXZ 1008dc90 f i NpScene.obj
 0001:0008ce30       ?disposeElements@?$PoolBase@U?$Block@PAX$0BA@@Scene@Sc@physx@@VNamedAllocator@shdfnd@4@@shdfnd@physx@@IAEXXZ 1008de30 f i NpScene.obj
 0001:0008cfd0       ?disposeElements@?$PoolBase@U?$Block@PAX$0CA@@Scene@Sc@physx@@VNamedAllocator@shdfnd@4@@shdfnd@physx@@IAEXXZ 1008dfd0 f i NpScene.obj
 0001:0008d170       ?erase@?$HashBase@PAVNpVolumeCache@physx@@PAV12@U?$Hash@PAVNpVolumeCache@physx@@@shdfnd@2@UGetKey@?$HashSetBase@PAVNpVolumeCache@physx@@U?$Hash@PAVNpVolumeCache@physx@@@shdfnd@2@VNonTrackingAllocator@42@$0A@@internal@42@VNonTrackingAllocator@42@$0A@@internal@shdfnd@physx@@QAE_NABQAVNpVolumeCache@4@@Z 1008e170 f i NpScene.obj
 0001:0008d240       ?erase@?$HashBase@PAVPxCloth@physx@@PAV12@U?$Hash@PAVPxCloth@physx@@@shdfnd@2@UGetKey@?$HashSetBase@PAVPxCloth@physx@@U?$Hash@PAVPxCloth@physx@@@shdfnd@2@VNonTrackingAllocator@42@$00@internal@42@VNonTrackingAllocator@42@$00@internal@shdfnd@physx@@QAE_NABQAVPxCloth@4@@Z 1008e240 f i NpScene.obj
 0001:0008d320       ?find@SqRefFinder@@UAEIPBVPxRigidBody@physx@@PBVPxShape@3@@Z 1008e320 f i NpScene.obj
 0001:0008d350       ?flush@NpScene@physx@@UAEX_N@Z 1008e350 f i NpScene.obj
 0001:0008d360       ?flush@Scene@Scb@physx@@QAEX_N@Z 1008e360 f i NpScene.obj
 0001:0008d420       ?freeListAdd@?$HashBase@PAVNpVolumeCache@physx@@PAV12@U?$Hash@PAVNpVolumeCache@physx@@@shdfnd@2@UGetKey@?$HashSetBase@PAVNpVolumeCache@physx@@U?$Hash@PAVNpVolumeCache@physx@@@shdfnd@2@VNonTrackingAllocator@42@$0A@@internal@42@VNonTrackingAllocator@42@$0A@@internal@shdfnd@physx@@AAEXII@Z 1008e420 f i NpScene.obj
 0001:0008d520       ?getDominanceGroupPair@Scene@Scb@physx@@QBE?AUPxDominanceGroupPair@3@EE@Z 1008e520 f i NpScene.obj
 0001:0008d5a0       ?getDominancePair@SceneBuffer@Scb@physx@@QBE_NIIAAUPxDominanceGroupPair@3@@Z 1008e5a0 f i NpScene.obj
 0001:0008d650       ?getLines@RenderBuffer@Cm@physx@@UBEPBUPxDebugLine@3@XZ 1008e650 f i NpScene.obj
 0001:0008d660       ?getName@?$DelegateTask@VNpScene@physx@@$H?executeAdvance@12@QAEXPAVPxBaseTask@2@@ZA@@Cm@physx@@UBEPBDXZ 1008e660 f i NpScene.obj
 0001:0008d670       ?getName@?$DelegateTask@VNpScene@physx@@$H?executeCollide@12@QAEXPAVPxBaseTask@2@@ZA@@Cm@physx@@UBEPBDXZ 1008e670 f i NpScene.obj
 0001:0008d680       ?getName@?$DelegateTask@VNpScene@physx@@$H?executeScene@12@QAEXPAVPxBaseTask@2@@ZA@@Cm@physx@@UBEPBDXZ 1008e680 f i NpScene.obj
 0001:0008d690       ?getName@?$DelegateTask@VNpSceneQueries@physx@@$1?sceneQueriesDynamicPrunerUpdate@12@QAEXPAVPxBaseTask@2@@Z@Cm@physx@@UBEPBDXZ 1008e690 f i NpScene.obj
 0001:0008d6a0       ?getName@?$DelegateTask@VNpSceneQueries@physx@@$1?sceneQueriesStaticPrunerUpdate@12@QAEXPAVPxBaseTask@2@@Z@Cm@physx@@UBEPBDXZ 1008e6a0 f i NpScene.obj
 0001:0008d6b0       ?getName@NpContactCallbackTask@physx@@UBEPBDXZ 1008e6b0 f i NpScene.obj
 0001:0008d6c0       ?getName@SceneCompletion@NpScene@physx@@UBEPBDXZ 1008e6c0 f i NpScene.obj
 0001:0008d6d0       ?getNbLines@RenderBuffer@Cm@physx@@UBEIXZ 1008e6d0 f i NpScene.obj
 0001:0008d6e0       ?getNbPoints@RenderBuffer@Cm@physx@@UBEIXZ 1008e6e0 f i NpScene.obj
 0001:0008d6f0       ?getNbTexts@RenderBuffer@Cm@physx@@UBEIXZ 1008e6f0 f i NpScene.obj
 0001:0008d700       ?getNbTriangles@RenderBuffer@Cm@physx@@UBEIXZ 1008e700 f i NpScene.obj
 0001:0008d710       ?getPoints@RenderBuffer@Cm@physx@@UBEPBUPxDebugPoint@3@XZ 1008e710 f i NpScene.obj
 0001:0008d720       ?getReference@PxLightCpuTask@physx@@UBEHXZ 1008e720 f i NpScene.obj
 0001:0008d730       ?getTaskManager@NpScene@physx@@UAEPAVPxTaskManager@2@XZ 1008e730 f i NpScene.obj
 0001:0008d740       ?getTaskManager@NpScene@physx@@UBEPAVPxTaskManager@2@XZ 1008e740 f i NpScene.obj
 0001:0008d750       ?getTexts@RenderBuffer@Cm@physx@@UBEPBUPxDebugText@3@XZ 1008e750 f i NpScene.obj
 0001:0008d760       ?getTriangles@RenderBuffer@Cm@physx@@UBEPBUPxDebugTriangle@3@XZ 1008e760 f i NpScene.obj
 0001:0008d770       ?growAndPushBack@?$Array@PAVNpBatchQuery@physx@@VNamedAllocator@shdfnd@2@@shdfnd@physx@@IAEAAPAVNpBatchQuery@3@ABQAV43@@Z 1008e770 f i NpScene.obj
 0001:0008d860       ?growAndPushBack@?$Array@PAVNpVolumeCache@physx@@VNamedAllocator@shdfnd@2@@shdfnd@physx@@IAEAAPAVNpVolumeCache@3@ABQAV43@@Z 1008e860 f i NpScene.obj
 0001:0008d950       ?growAndPushBack@?$Array@PAVPxActor@physx@@VNamedAllocator@shdfnd@2@@shdfnd@physx@@IAEAAPAVPxActor@3@ABQAV43@@Z 1008e950 f i NpScene.obj
 0001:0008da40       ?growAndPushBack@?$Array@PAVPxRigidActor@physx@@VNamedAllocator@shdfnd@2@@shdfnd@physx@@IAEAAPAVPxRigidActor@3@ABQAV43@@Z 1008ea40 f i NpScene.obj
 0001:0008db30       ?growAndPushBack@?$Array@UPxDebugLine@physx@@VNamedAllocator@shdfnd@2@@shdfnd@physx@@IAEAAUPxDebugLine@3@ABU43@@Z 1008eb30 f i NpScene.obj
 0001:0008dc50       ?growAndPushBack@?$Array@UPxDebugPoint@physx@@VNamedAllocator@shdfnd@2@@shdfnd@physx@@IAEAAUPxDebugPoint@3@ABU43@@Z 1008ec50 f i NpScene.obj
 0001:0008dd50       ?growAndPushBack@?$Array@UPxDebugText@physx@@VNamedAllocator@shdfnd@2@@shdfnd@physx@@IAEAAUPxDebugText@3@ABU43@@Z 1008ed50 f i NpScene.obj
 0001:0008de70       ?growAndPushBack@?$Array@UPxDebugTriangle@physx@@VNamedAllocator@shdfnd@2@@shdfnd@physx@@IAEAAUPxDebugTriangle@3@ABU43@@Z 1008ee70 f i NpScene.obj
 0001:0008dfc0       ?isAddedShape@RigidObject@Scb@physx@@QAE_NAAVShape@23@@Z 1008efc0 f i NpScene.obj
 0001:0008e050       ?recreate@?$Array@GVNamedAllocator@shdfnd@physx@@@shdfnd@physx@@IAEXI@Z 1008f050 f i NpScene.obj
 0001:0008e100       ?recreate@?$Array@PAVNpVolumeCache@physx@@VNamedAllocator@shdfnd@2@@shdfnd@physx@@IAEXI@Z 1008f100 f i NpScene.obj
 0001:0008e1c0       ?recreate@?$Array@PAVPxRigidActor@physx@@VNamedAllocator@shdfnd@2@@shdfnd@physx@@IAEXI@Z 1008f1c0 f i NpScene.obj
 0001:0008e280       ?recreate@?$Array@PAVShape@Scb@physx@@VNamedAllocator@shdfnd@3@@shdfnd@physx@@IAEXI@Z 1008f280 f i NpScene.obj
 0001:0008e340       ?recreate@?$Array@UPxDebugPoint@physx@@VNamedAllocator@shdfnd@2@@shdfnd@physx@@IAEXI@Z 1008f340 f i NpScene.obj
 0001:0008e3f0       ?recreate@?$Array@UPxDebugText@physx@@VNamedAllocator@shdfnd@2@@shdfnd@physx@@IAEXI@Z 1008f3f0 f i NpScene.obj
 0001:0008e4a0       ?recreate@?$Array@UPxDebugTriangle@physx@@VNamedAllocator@shdfnd@2@@shdfnd@physx@@IAEXI@Z 1008f4a0 f i NpScene.obj
 0001:0008e550       ?recreate@?$Array@VPxBounds3@physx@@V?$InlineAllocator@$0MA@VNamedAllocator@shdfnd@physx@@@shdfnd@2@@shdfnd@physx@@IAEXI@Z 1008f550 f i NpScene.obj
 0001:0008e5f0       ?release@PxLightCpuTask@physx@@UAEXXZ 1008f5f0 f i NpScene.obj
 0001:0008e600       ?release@SceneCompletion@NpScene@physx@@UAEXXZ 1008f600 f i NpScene.obj
 0001:0008e630       ?removeReference@PxLightCpuTask@physx@@UAEXXZ 1008f630 f i NpScene.obj
 0001:0008e640       ?replaceWithLast@?$HashBase@PAVPxCloth@physx@@PAV12@U?$Hash@PAVPxCloth@physx@@@shdfnd@2@UGetKey@?$HashSetBase@PAVPxCloth@physx@@U?$Hash@PAVPxCloth@physx@@@shdfnd@2@VNonTrackingAllocator@42@$00@internal@42@VNonTrackingAllocator@42@$00@internal@shdfnd@physx@@AAEXI@Z 1008f640 f i NpScene.obj
 0001:0008e6f0       ?reserveInternal@?$HashBase@PAVNpVolumeCache@physx@@PAV12@U?$Hash@PAVNpVolumeCache@physx@@@shdfnd@2@UGetKey@?$HashSetBase@PAVNpVolumeCache@physx@@U?$Hash@PAVNpVolumeCache@physx@@@shdfnd@2@VNonTrackingAllocator@42@$0A@@internal@42@VNonTrackingAllocator@42@$0A@@internal@shdfnd@physx@@AAEXI@Z 1008f6f0 f i NpScene.obj
 0001:0008e9e0       ?reserveInternal@?$HashBase@PAVPxAggregate@physx@@PAV12@U?$Hash@PAVPxAggregate@physx@@@shdfnd@2@UGetKey@?$HashSetBase@PAVPxAggregate@physx@@U?$Hash@PAVPxAggregate@physx@@@shdfnd@2@VNonTrackingAllocator@42@$00@internal@42@VNonTrackingAllocator@42@$00@internal@shdfnd@physx@@AAEXI@Z 1008f9e0 f i NpScene.obj
 0001:0008ebd0       ?reserveInternal@?$HashBase@PAVPxArticulation@physx@@PAV12@U?$Hash@PAVPxArticulation@physx@@@shdfnd@2@UGetKey@?$HashSetBase@PAVPxArticulation@physx@@U?$Hash@PAVPxArticulation@physx@@@shdfnd@2@VNonTrackingAllocator@42@$00@internal@42@VNonTrackingAllocator@42@$00@internal@shdfnd@physx@@AAEXI@Z 1008fbd0 f i NpScene.obj
 0001:0008edc0       ?reserveInternal@?$HashBase@PAVPxCloth@physx@@PAV12@U?$Hash@PAVPxCloth@physx@@@shdfnd@2@UGetKey@?$HashSetBase@PAVPxCloth@physx@@U?$Hash@PAVPxCloth@physx@@@shdfnd@2@VNonTrackingAllocator@42@$00@internal@42@VNonTrackingAllocator@42@$00@internal@shdfnd@physx@@AAEXI@Z 1008fdc0 f i NpScene.obj
 0001:0008efb0       ?reserveInternal@?$HashBase@PAVPxParticleBase@physx@@PAV12@U?$Hash@PAVPxParticleBase@physx@@@shdfnd@2@UGetKey@?$HashSetBase@PAVPxParticleBase@physx@@U?$Hash@PAVPxParticleBase@physx@@@shdfnd@2@VNonTrackingAllocator@42@$00@internal@42@VNonTrackingAllocator@42@$00@internal@shdfnd@physx@@AAEXI@Z 1008ffb0 f i NpScene.obj
 0001:0008f1a0       ?resetFiltering@?$NpRigidActorTemplate@VPxArticulationLink@physx@@@physx@@QAE_NAAVRigidObject@Scb@2@PBQAVPxShape@2@I@Z 100901a0 f i NpScene.obj
 0001:0008f4e0       ?resetFiltering@?$NpRigidActorTemplate@VPxRigidDynamic@physx@@@physx@@QAE_NAAVRigidObject@Scb@2@PBQAVPxShape@2@I@Z 100904e0 f i NpScene.obj
 0001:0008f820       ?resetFiltering@?$NpRigidActorTemplate@VPxRigidStatic@physx@@@physx@@QAE_NAAVRigidObject@Scb@2@PBQAVPxShape@2@I@Z 10090820 f i NpScene.obj
 0001:0008fb60       ?resetFiltering@ParticleSystem@Scb@physx@@QAEXXZ 10090b60 f i NpScene.obj
 0001:0008fbe0       ?resetFiltering@RigidObject@Scb@physx@@QAEXPBQAVShape@23@I@Z 10090be0 f i NpScene.obj
 0001:0008fe70       ?resize@?$Array@GVNamedAllocator@shdfnd@physx@@@shdfnd@physx@@QAEXIABG@Z 10090e70 f i NpScene.obj
 0001:0008fed0       ?resize@?$Array@PAVShape@Scb@physx@@VNamedAllocator@shdfnd@3@@shdfnd@physx@@QAEXIABQAVShape@Scb@3@@Z 10090ed0 f i NpScene.obj
 0001:0008ff30       ?resizeUninitialized@?$Array@VPxBounds3@physx@@V?$InlineAllocator@$0MA@VNamedAllocator@shdfnd@physx@@@shdfnd@2@@shdfnd@physx@@QAEXI@Z 10090f30 f i NpScene.obj
 0001:0008ff70       ?run@Task@Cm@physx@@UAEXXZ 10090f70 f i NpScene.obj
 0001:0008ffb0       ?runInternal@?$DelegateTask@VNpScene@physx@@$H?executeAdvance@12@QAEXPAVPxBaseTask@2@@ZA@@Cm@physx@@UAEXXZ 10090fb0 f i NpScene.obj
 0001:0008ffc0       ?runInternal@?$DelegateTask@VNpScene@physx@@$H?executeCollide@12@QAEXPAVPxBaseTask@2@@ZA@@Cm@physx@@UAEXXZ 10090fc0 f i NpScene.obj
 0001:0008ffd0       ?runInternal@?$DelegateTask@VNpScene@physx@@$H?executeScene@12@QAEXPAVPxBaseTask@2@@ZA@@Cm@physx@@UAEXXZ 10090fd0 f i NpScene.obj
 0001:0008ffe0       ?runInternal@?$DelegateTask@VNpSceneQueries@physx@@$1?sceneQueriesDynamicPrunerUpdate@12@QAEXPAVPxBaseTask@2@@Z@Cm@physx@@UAEXXZ 10090fe0 f i NpScene.obj
 0001:0008fff0       ?runInternal@?$DelegateTask@VNpSceneQueries@physx@@$1?sceneQueriesStaticPrunerUpdate@12@QAEXPAVPxBaseTask@2@@Z@Cm@physx@@UAEXXZ 10090ff0 f i NpScene.obj
 0001:00090000       ?runInternal@SceneCompletion@NpScene@physx@@UAEXXZ 10091000 f i NpScene.obj
 0001:00090010       ?setClientBehaviorFlags@Scene@Scb@physx@@QAEXEV?$PxFlags@W4Enum@PxClientBehaviorFlag@physx@@E@3@@Z 10091010 f i NpScene.obj
 0001:00090090       ?setContinuation@PxLightCpuTask@physx@@QAEXAAVPxTaskManager@2@PAVPxBaseTask@2@@Z 10091090 f i NpScene.obj
 0001:000900c0       ?setContinuation@PxLightCpuTask@physx@@QAEXPAVPxBaseTask@2@@Z 100910c0 f i NpScene.obj
 0001:00090100       ?setDominanceGroupPair@Scene@Scb@physx@@QAEXEEABUPxDominanceGroupPair@3@@Z 10091100 f i NpScene.obj
 0001:00090180       ?setDominancePair@SceneBuffer@Scb@physx@@QAEXIIABUPxDominanceGroupPair@3@@Z 10091180 f i NpScene.obj
 0001:00090250       ?setFlags@Scene@Scb@physx@@QAEXV?$PxFlags@W4Enum@PxSceneFlag@physx@@I@3@@Z 10091250 f i NpScene.obj
 0001:000902e0       ?setGravity@Scene@Scb@physx@@QAEXABVPxVec3@3@@Z 100912e0 f i NpScene.obj
 0001:00090380       ?shift@RenderBuffer@Cm@physx@@QAEXABVPxVec3@3@@Z 10091380 f i NpScene.obj
 0001:000905b0       ?raycast@NpSceneQueries@physx@@UBE_NABVPxVec3@2@0MAAU?$PxHitCallback@UPxRaycastHit@physx@@@2@V?$PxFlags@W4Enum@PxHitFlag@physx@@G@2@ABUPxQueryFilterData@2@PAVPxQueryFilterCallback@2@PBUPxQueryCache@2@@Z 100915b0 f   NpSceneQueries.obj
 0001:000906b0       ?sweep@NpSceneQueries@physx@@UBE_NABVPxGeometry@2@ABVPxTransform@2@ABVPxVec3@2@MAAU?$PxHitCallback@UPxSweepHit@physx@@@2@V?$PxFlags@W4Enum@PxHitFlag@physx@@G@2@ABUPxQueryFilterData@2@PAVPxQueryFilterCallback@2@PBUPxQueryCache@2@M@Z 100916b0 f   NpSceneQueries.obj
 0001:000908b0       ?overlap@NpSceneQueries@physx@@UBE_NABVPxGeometry@2@ABVPxTransform@2@AAU?$PxHitCallback@UPxOverlapHit@physx@@@2@ABUPxQueryFilterData@2@PAVPxQueryFilterCallback@2@@Z 100918b0 f   NpSceneQueries.obj
 0001:000909a0       ?sceneQueriesStaticPrunerUpdate@NpSceneQueries@physx@@QAEXPAVPxBaseTask@2@@Z 100919a0 f   NpSceneQueries.obj
 0001:00090a20       ?sceneQueriesDynamicPrunerUpdate@NpSceneQueries@physx@@QAEXPAVPxBaseTask@2@@Z 10091a20 f   NpSceneQueries.obj
 0001:00090dd0       ??$multiQuery@UPxOverlapHit@physx@@@NpSceneQueries@physx@@QBE_NABUMultiQueryInput@1@AAU?$PxHitCallback@UPxOverlapHit@physx@@@1@V?$PxFlags@W4Enum@PxHitFlag@physx@@G@1@PBUPxQueryCache@1@ABUPxQueryFilterData@1@PAVPxQueryFilterCallback@1@PAUBatchQueryFilterData@1@@Z 10091dd0 f i NpSceneQueries.obj
 0001:00091110       ??$multiQuery@UPxRaycastHit@physx@@@NpSceneQueries@physx@@QBE_NABUMultiQueryInput@1@AAU?$PxHitCallback@UPxRaycastHit@physx@@@1@V?$PxFlags@W4Enum@PxHitFlag@physx@@G@1@PBUPxQueryCache@1@ABUPxQueryFilterData@1@PAVPxQueryFilterCallback@1@PAUBatchQueryFilterData@1@@Z 10092110 f i NpSceneQueries.obj
 0001:00091630       ??$multiQuery@UPxSweepHit@physx@@@NpSceneQueries@physx@@QBE_NABUMultiQueryInput@1@AAU?$PxHitCallback@UPxSweepHit@physx@@@1@V?$PxFlags@W4Enum@PxHitFlag@physx@@G@1@PBUPxQueryCache@1@ABUPxQueryFilterData@1@PAVPxQueryFilterCallback@1@PAUBatchQueryFilterData@1@@Z 10092630 f i NpSceneQueries.obj
 0001:00091bf0       ??0?$CapturePvdOnReturn@UPxOverlapHit@physx@@@@QAE@PBVNpSceneQueries@physx@@ABUMultiQueryInput@2@V?$PxFlags@W4Enum@PxHitFlag@physx@@G@2@PBUPxQueryCache@2@ABUPxQueryFilterData@2@PAVPxQueryFilterCallback@2@PAUBatchQueryFilterData@2@AAU?$PxHitCallback@UPxOverlapHit@physx@@@2@@Z 10092bf0 f i NpSceneQueries.obj
 0001:00091cd0       ??0?$CapturePvdOnReturn@UPxRaycastHit@physx@@@@QAE@PBVNpSceneQueries@physx@@ABUMultiQueryInput@2@V?$PxFlags@W4Enum@PxHitFlag@physx@@G@2@PBUPxQueryCache@2@ABUPxQueryFilterData@2@PAVPxQueryFilterCallback@2@PAUBatchQueryFilterData@2@AAU?$PxHitCallback@UPxRaycastHit@physx@@@2@@Z 10092cd0 f i NpSceneQueries.obj
 0001:00091dd0       ??0?$CapturePvdOnReturn@UPxSweepHit@physx@@@@QAE@PBVNpSceneQueries@physx@@ABUMultiQueryInput@2@V?$PxFlags@W4Enum@PxHitFlag@physx@@G@2@PBUPxQueryCache@2@ABUPxQueryFilterData@2@PAVPxQueryFilterCallback@2@PAUBatchQueryFilterData@2@AAU?$PxHitCallback@UPxSweepHit@physx@@@2@@Z 10092dd0 f i NpSceneQueries.obj
 0001:00091ed0       ??0?$MultiQueryCallback@UPxOverlapHit@physx@@@@QAE@ABVNpSceneQueries@physx@@ABUMultiQueryInput@2@_NAAU?$PxHitCallback@UPxOverlapHit@physx@@@2@V?$PxFlags@W4Enum@PxHitFlag@physx@@G@2@ABUPxQueryFilterData@2@PAVPxQueryFilterCallback@2@MPAUBatchQueryFilterData@2@@Z 10092ed0 f i NpSceneQueries.obj
 0001:00091f90       ??0?$MultiQueryCallback@UPxRaycastHit@physx@@@@QAE@ABVNpSceneQueries@physx@@ABUMultiQueryInput@2@_NAAU?$PxHitCallback@UPxRaycastHit@physx@@@2@V?$PxFlags@W4Enum@PxHitFlag@physx@@G@2@ABUPxQueryFilterData@2@PAVPxQueryFilterCallback@2@MPAUBatchQueryFilterData@2@@Z 10092f90 f i NpSceneQueries.obj
 0001:00092050       ??0?$MultiQueryCallback@UPxSweepHit@physx@@@@QAE@ABVNpSceneQueries@physx@@ABUMultiQueryInput@2@_NAAU?$PxHitCallback@UPxSweepHit@physx@@@2@V?$PxFlags@W4Enum@PxHitFlag@physx@@G@2@ABUPxQueryFilterData@2@PAVPxQueryFilterCallback@2@MPAUBatchQueryFilterData@2@@Z 10093050 f i NpSceneQueries.obj
 0001:00092110       ??0?$PxHitBuffer@UPxRaycastHit@physx@@@physx@@QAE@PAUPxRaycastHit@1@I@Z 10093110 f i NpSceneQueries.obj
 0001:00092190       ??0?$PxHitBuffer@UPxSweepHit@physx@@@physx@@QAE@PAUPxSweepHit@1@I@Z 10093190 f i NpSceneQueries.obj
 0001:00092200       ??0Capsule@Gu@physx@@QAE@ABVPxVec3@2@0M@Z 10093200 f i NpSceneQueries.obj
 0001:00092250       ??0PxOverlapHit@physx@@QAE@XZ 10093250 f i NpSceneQueries.obj
 0001:00092270       ??0PxRaycastHit@physx@@QAE@ABU01@@Z 10093270 f i NpSceneQueries.obj
 0001:00092300       ??0PxRaycastHit@physx@@QAE@XZ 10093300 f i NpSceneQueries.obj
 0001:00092350       ??0PxSweepHit@physx@@QAE@ABU01@@Z 10093350 f i NpSceneQueries.obj
 0001:000923c0       ??0PxSweepHit@physx@@QAE@XZ 100933c0 f i NpSceneQueries.obj
 0001:00092410       ??1?$CapturePvdOnReturn@UPxOverlapHit@physx@@@@UAE@XZ 10093410 f i NpSceneQueries.obj
 0001:000925b0       ??1?$CapturePvdOnReturn@UPxRaycastHit@physx@@@@UAE@XZ 100935b0 f i NpSceneQueries.obj
 0001:00092770       ??1?$CapturePvdOnReturn@UPxSweepHit@physx@@@@UAE@XZ 10093770 f i NpSceneQueries.obj
 0001:00092930       ??1?$IssueCallbacksOnReturn@UPxOverlapHit@physx@@@@QAE@XZ 10093930 f i NpSceneQueries.obj
 0001:000929a0       ??1?$IssueCallbacksOnReturn@UPxRaycastHit@physx@@@@QAE@XZ 100939a0 f i NpSceneQueries.obj
 0001:00092a20       ??1?$IssueCallbacksOnReturn@UPxSweepHit@physx@@@@QAE@XZ 10093a20 f i NpSceneQueries.obj
 0001:00092aa0       ??1PrunerCallback@Sq@physx@@UAE@XZ 10093aa0 f i NpSceneQueries.obj
 0001:00092ab0       ??4PxBounds3@physx@@QAEAAV01@ABV01@@Z 10093ab0 f i NpSceneQueries.obj
 0001:00092af0       ??4PxSweepHit@physx@@QAEAAU01@ABU01@@Z 10093af0 f i NpSceneQueries.obj
 0001:00092b60       ??_E?$CapturePvdOnReturn@UPxOverlapHit@physx@@@@UAEPAXI@Z 10093b60 f i NpSceneQueries.obj
 0001:00092b60       ??_G?$CapturePvdOnReturn@UPxOverlapHit@physx@@@@UAEPAXI@Z 10093b60 f i NpSceneQueries.obj
 0001:00092b90       ??_E?$CapturePvdOnReturn@UPxRaycastHit@physx@@@@UAEPAXI@Z 10093b90 f i NpSceneQueries.obj
 0001:00092b90       ??_G?$CapturePvdOnReturn@UPxRaycastHit@physx@@@@UAEPAXI@Z 10093b90 f i NpSceneQueries.obj
 0001:00092bc0       ??_E?$CapturePvdOnReturn@UPxSweepHit@physx@@@@UAEPAXI@Z 10093bc0 f i NpSceneQueries.obj
 0001:00092bc0       ??_G?$CapturePvdOnReturn@UPxSweepHit@physx@@@@UAEPAXI@Z 10093bc0 f i NpSceneQueries.obj
 0001:00092bf0       ??_E?$MultiQueryCallback@UPxOverlapHit@physx@@@@UAEPAXI@Z 10093bf0 f i NpSceneQueries.obj
 0001:00092bf0       ??_G?$MultiQueryCallback@UPxOverlapHit@physx@@@@UAEPAXI@Z 10093bf0 f i NpSceneQueries.obj
 0001:00092c20       ??_E?$MultiQueryCallback@UPxRaycastHit@physx@@@@UAEPAXI@Z 10093c20 f i NpSceneQueries.obj
 0001:00092c20       ??_G?$MultiQueryCallback@UPxRaycastHit@physx@@@@UAEPAXI@Z 10093c20 f i NpSceneQueries.obj
 0001:00092c50       ??_G?$MultiQueryCallback@UPxSweepHit@physx@@@@UAEPAXI@Z 10093c50 f i NpSceneQueries.obj
 0001:00092c50       ??_E?$MultiQueryCallback@UPxSweepHit@physx@@@@UAEPAXI@Z 10093c50 f i NpSceneQueries.obj
 0001:00092c80       ??_EPrunerCallback@Sq@physx@@UAEPAXI@Z 10093c80 f i NpSceneQueries.obj
 0001:00092c80       ??_GPrunerCallback@Sq@physx@@UAEPAXI@Z 10093c80 f i NpSceneQueries.obj
 0001:00092cb0       ?copy@?$Array@UPxRaycastHit@physx@@VNamedAllocator@shdfnd@2@@shdfnd@physx@@KAXPAUPxRaycastHit@3@0PBU43@@Z 10093cb0 f i NpSceneQueries.obj
 0001:00092d70       ?copy@?$Array@UPxSweepHit@physx@@VNamedAllocator@shdfnd@2@@shdfnd@physx@@KAXPAUPxSweepHit@3@0PBU43@@Z 10093d70 f i NpSceneQueries.obj
 0001:00092e10       ?growAndPushBack@?$Array@UPxOverlapHit@physx@@VNamedAllocator@shdfnd@2@@shdfnd@physx@@IAEAAUPxOverlapHit@3@ABU43@@Z 10093e10 f i NpSceneQueries.obj
 0001:00092f10       ?growAndPushBack@?$Array@UPxRaycastHit@physx@@VNamedAllocator@shdfnd@2@@shdfnd@physx@@IAEAAUPxRaycastHit@3@ABU43@@Z 10093f10 f i NpSceneQueries.obj
 0001:00092ff0       ?growAndPushBack@?$Array@UPxSweepHit@physx@@VNamedAllocator@shdfnd@2@@shdfnd@physx@@IAEAAUPxSweepHit@3@ABU43@@Z 10093ff0 f i NpSceneQueries.obj
 0001:00093140       ?invoke@?$MultiQueryCallback@UPxOverlapHit@physx@@@@UAE_NAAMABUPrunerPayload@Sq@physx@@@Z 10094140 f i NpSceneQueries.obj
 0001:00093760       ?invoke@?$MultiQueryCallback@UPxRaycastHit@physx@@@@UAE_NAAMABUPrunerPayload@Sq@physx@@@Z 10094760 f i NpSceneQueries.obj
 0001:000940e0       ?invoke@?$MultiQueryCallback@UPxSweepHit@physx@@@@UAE_NAAMABUPrunerPayload@Sq@physx@@@Z 100950e0 f i NpSceneQueries.obj
 0001:00095040       ?processTouches@?$CapturePvdOnReturn@UPxOverlapHit@physx@@@@UAE_NPBUPxOverlapHit@physx@@I@Z 10096040 f i NpSceneQueries.obj
 0001:000950c0       ?processTouches@?$CapturePvdOnReturn@UPxRaycastHit@physx@@@@UAE_NPBUPxRaycastHit@physx@@I@Z 100960c0 f i NpSceneQueries.obj
 0001:000951c0       ?processTouches@?$CapturePvdOnReturn@UPxSweepHit@physx@@@@UAE_NPBUPxSweepHit@physx@@I@Z 100961c0 f i NpSceneQueries.obj
 0001:00095290       _PxRegisterPhysicsSerializers 10096290 f   NpSerializerAdapter.obj
 0001:00095740       _PxUnregisterPhysicsSerializers 10096740 f   NpSerializerAdapter.obj
 0001:00095c20       ??1PxProcessPxBaseCallback@physx@@UAE@XZ 10096c20 f i NpSerializerAdapter.obj
 0001:00095c30       ??1PxSerializer@physx@@UAE@XZ 10096c30 f i NpSerializerAdapter.obj
 0001:00095c40       ??_E?$PxSerializerDefaultAdapter@VBV4TriangleMesh@Gu@physx@@@physx@@UAEPAXI@Z 10096c40 f i NpSerializerAdapter.obj
 0001:00095c40       ??_G?$PxSerializerDefaultAdapter@VBV4TriangleMesh@Gu@physx@@@physx@@UAEPAXI@Z 10096c40 f i NpSerializerAdapter.obj
 0001:00095c70       ??_E?$PxSerializerDefaultAdapter@VConvexMesh@Gu@physx@@@physx@@UAEPAXI@Z 10096c70 f i NpSerializerAdapter.obj
 0001:00095c70       ??_G?$PxSerializerDefaultAdapter@VConvexMesh@Gu@physx@@@physx@@UAEPAXI@Z 10096c70 f i NpSerializerAdapter.obj
 0001:00095ca0       ??_G?$PxSerializerDefaultAdapter@VHeightField@Gu@physx@@@physx@@UAEPAXI@Z 10096ca0 f i NpSerializerAdapter.obj
 0001:00095ca0       ??_E?$PxSerializerDefaultAdapter@VHeightField@Gu@physx@@@physx@@UAEPAXI@Z 10096ca0 f i NpSerializerAdapter.obj
 0001:00095cd0       ??_E?$PxSerializerDefaultAdapter@VNpAggregate@physx@@@physx@@UAEPAXI@Z 10096cd0 f i NpSerializerAdapter.obj
 0001:00095cd0       ??_G?$PxSerializerDefaultAdapter@VNpAggregate@physx@@@physx@@UAEPAXI@Z 10096cd0 f i NpSerializerAdapter.obj
 0001:00095d00       ??_E?$PxSerializerDefaultAdapter@VNpArticulation@physx@@@physx@@UAEPAXI@Z 10096d00 f i NpSerializerAdapter.obj
 0001:00095d00       ??_G?$PxSerializerDefaultAdapter@VNpArticulation@physx@@@physx@@UAEPAXI@Z 10096d00 f i NpSerializerAdapter.obj
 0001:00095d30       ??_G?$PxSerializerDefaultAdapter@VNpArticulationJoint@physx@@@physx@@UAEPAXI@Z 10096d30 f i NpSerializerAdapter.obj
 0001:00095d30       ??_E?$PxSerializerDefaultAdapter@VNpArticulationJoint@physx@@@physx@@UAEPAXI@Z 10096d30 f i NpSerializerAdapter.obj
 0001:00095d60       ??_G?$PxSerializerDefaultAdapter@VNpArticulationLink@physx@@@physx@@UAEPAXI@Z 10096d60 f i NpSerializerAdapter.obj
 0001:00095d60       ??_E?$PxSerializerDefaultAdapter@VNpArticulationLink@physx@@@physx@@UAEPAXI@Z 10096d60 f i NpSerializerAdapter.obj
 0001:00095d90       ??_E?$PxSerializerDefaultAdapter@VNpCloth@physx@@@physx@@UAEPAXI@Z 10096d90 f i NpSerializerAdapter.obj
 0001:00095d90       ??_G?$PxSerializerDefaultAdapter@VNpCloth@physx@@@physx@@UAEPAXI@Z 10096d90 f i NpSerializerAdapter.obj
 0001:00095dc0       ??_E?$PxSerializerDefaultAdapter@VNpClothFabric@physx@@@physx@@UAEPAXI@Z 10096dc0 f i NpSerializerAdapter.obj
 0001:00095dc0       ??_G?$PxSerializerDefaultAdapter@VNpClothFabric@physx@@@physx@@UAEPAXI@Z 10096dc0 f i NpSerializerAdapter.obj
 0001:00095df0       ??_G?$PxSerializerDefaultAdapter@VNpConstraint@physx@@@physx@@UAEPAXI@Z 10096df0 f i NpSerializerAdapter.obj
 0001:00095df0       ??_E?$PxSerializerDefaultAdapter@VNpConstraint@physx@@@physx@@UAEPAXI@Z 10096df0 f i NpSerializerAdapter.obj
 0001:00095e20       ??_G?$PxSerializerDefaultAdapter@VNpMaterial@physx@@@physx@@UAEPAXI@Z 10096e20 f i NpSerializerAdapter.obj
 0001:00095e20       ??_E?$PxSerializerDefaultAdapter@VNpMaterial@physx@@@physx@@UAEPAXI@Z 10096e20 f i NpSerializerAdapter.obj
 0001:00095e50       ??_E?$PxSerializerDefaultAdapter@VNpParticleFluid@physx@@@physx@@UAEPAXI@Z 10096e50 f i NpSerializerAdapter.obj
 0001:00095e50       ??_G?$PxSerializerDefaultAdapter@VNpParticleFluid@physx@@@physx@@UAEPAXI@Z 10096e50 f i NpSerializerAdapter.obj
 0001:00095e80       ??_E?$PxSerializerDefaultAdapter@VNpParticleSystem@physx@@@physx@@UAEPAXI@Z 10096e80 f i NpSerializerAdapter.obj
 0001:00095e80       ??_G?$PxSerializerDefaultAdapter@VNpParticleSystem@physx@@@physx@@UAEPAXI@Z 10096e80 f i NpSerializerAdapter.obj
 0001:00095eb0       ??_E?$PxSerializerDefaultAdapter@VNpRigidDynamic@physx@@@physx@@UAEPAXI@Z 10096eb0 f i NpSerializerAdapter.obj
 0001:00095eb0       ??_G?$PxSerializerDefaultAdapter@VNpRigidDynamic@physx@@@physx@@UAEPAXI@Z 10096eb0 f i NpSerializerAdapter.obj
 0001:00095ee0       ??_G?$PxSerializerDefaultAdapter@VNpRigidStatic@physx@@@physx@@UAEPAXI@Z 10096ee0 f i NpSerializerAdapter.obj
 0001:00095ee0       ??_E?$PxSerializerDefaultAdapter@VNpRigidStatic@physx@@@physx@@UAEPAXI@Z 10096ee0 f i NpSerializerAdapter.obj
 0001:00095f10       ??_G?$PxSerializerDefaultAdapter@VNpShape@physx@@@physx@@UAEPAXI@Z 10096f10 f i NpSerializerAdapter.obj
 0001:00095f10       ??_E?$PxSerializerDefaultAdapter@VNpShape@physx@@@physx@@UAEPAXI@Z 10096f10 f i NpSerializerAdapter.obj
 0001:00095f40       ??_E?$PxSerializerDefaultAdapter@VPruningStructure@Sq@physx@@@physx@@UAEPAXI@Z 10096f40 f i NpSerializerAdapter.obj
 0001:00095f40       ??_G?$PxSerializerDefaultAdapter@VPruningStructure@Sq@physx@@@physx@@UAEPAXI@Z 10096f40 f i NpSerializerAdapter.obj
 0001:00095f70       ??_G?$PxSerializerDefaultAdapter@VRTreeTriangleMesh@Gu@physx@@@physx@@UAEPAXI@Z 10096f70 f i NpSerializerAdapter.obj
 0001:00095f70       ??_E?$PxSerializerDefaultAdapter@VRTreeTriangleMesh@Gu@physx@@@physx@@UAEPAXI@Z 10096f70 f i NpSerializerAdapter.obj
 0001:00095fa0       ??_EPxProcessPxBaseCallback@physx@@UAEPAXI@Z 10096fa0 f i NpSerializerAdapter.obj
 0001:00095fa0       ??_GPxProcessPxBaseCallback@physx@@UAEPAXI@Z 10096fa0 f i NpSerializerAdapter.obj
 0001:00095fd0       ??_EPxSerializer@physx@@UAEPAXI@Z 10096fd0 f i NpSerializerAdapter.obj
 0001:00095fd0       ??_GPxSerializer@physx@@UAEPAXI@Z 10096fd0 f i NpSerializerAdapter.obj
 0001:00096000       ??_GRequiresCallback@?1??registerReferences@?$PxSerializerDefaultAdapter@VBV4TriangleMesh@Gu@physx@@@physx@@UBEXAAVPxBase@3@AAVPxSerializationContext@3@@Z@UAEPAXI@Z 10097000 f i NpSerializerAdapter.obj
 0001:00096000       ??_ERequiresCallback@?1??registerReferences@?$PxSerializerDefaultAdapter@VBV4TriangleMesh@Gu@physx@@@physx@@UBEXAAVPxBase@3@AAVPxSerializationContext@3@@Z@UAEPAXI@Z 10097000 f i NpSerializerAdapter.obj
 0001:00096030       ??_GRequiresCallback@?1??registerReferences@?$PxSerializerDefaultAdapter@VConvexMesh@Gu@physx@@@physx@@UBEXAAVPxBase@3@AAVPxSerializationContext@3@@Z@UAEPAXI@Z 10097030 f i NpSerializerAdapter.obj
 0001:00096030       ??_ERequiresCallback@?1??registerReferences@?$PxSerializerDefaultAdapter@VConvexMesh@Gu@physx@@@physx@@UBEXAAVPxBase@3@AAVPxSerializationContext@3@@Z@UAEPAXI@Z 10097030 f i NpSerializerAdapter.obj
 0001:00096060       ??_ERequiresCallback@?1??registerReferences@?$PxSerializerDefaultAdapter@VHeightField@Gu@physx@@@physx@@UBEXAAVPxBase@3@AAVPxSerializationContext@3@@Z@UAEPAXI@Z 10097060 f i NpSerializerAdapter.obj
 0001:00096060       ??_GRequiresCallback@?1??registerReferences@?$PxSerializerDefaultAdapter@VHeightField@Gu@physx@@@physx@@UBEXAAVPxBase@3@AAVPxSerializationContext@3@@Z@UAEPAXI@Z 10097060 f i NpSerializerAdapter.obj
 0001:00096090       ??_GRequiresCallback@?1??registerReferences@?$PxSerializerDefaultAdapter@VNpAggregate@physx@@@physx@@UBEXAAVPxBase@3@AAVPxSerializationContext@3@@Z@UAEPAXI@Z 10097090 f i NpSerializerAdapter.obj
 0001:00096090       ??_ERequiresCallback@?1??registerReferences@?$PxSerializerDefaultAdapter@VNpAggregate@physx@@@physx@@UBEXAAVPxBase@3@AAVPxSerializationContext@3@@Z@UAEPAXI@Z 10097090 f i NpSerializerAdapter.obj
 0001:000960c0       ??_ERequiresCallback@?1??registerReferences@?$PxSerializerDefaultAdapter@VNpArticulation@physx@@@physx@@UBEXAAVPxBase@3@AAVPxSerializationContext@3@@Z@UAEPAXI@Z 100970c0 f i NpSerializerAdapter.obj
 0001:000960c0       ??_GRequiresCallback@?1??registerReferences@?$PxSerializerDefaultAdapter@VNpArticulation@physx@@@physx@@UBEXAAVPxBase@3@AAVPxSerializationContext@3@@Z@UAEPAXI@Z 100970c0 f i NpSerializerAdapter.obj
 0001:000960f0       ??_ERequiresCallback@?1??registerReferences@?$PxSerializerDefaultAdapter@VNpArticulationJoint@physx@@@physx@@UBEXAAVPxBase@3@AAVPxSerializationContext@3@@Z@UAEPAXI@Z 100970f0 f i NpSerializerAdapter.obj
 0001:000960f0       ??_GRequiresCallback@?1??registerReferences@?$PxSerializerDefaultAdapter@VNpArticulationJoint@physx@@@physx@@UBEXAAVPxBase@3@AAVPxSerializationContext@3@@Z@UAEPAXI@Z 100970f0 f i NpSerializerAdapter.obj
 0001:00096120       ??_ERequiresCallback@?1??registerReferences@?$PxSerializerDefaultAdapter@VNpArticulationLink@physx@@@physx@@UBEXAAVPxBase@3@AAVPxSerializationContext@3@@Z@UAEPAXI@Z 10097120 f i NpSerializerAdapter.obj
 0001:00096120       ??_GRequiresCallback@?1??registerReferences@?$PxSerializerDefaultAdapter@VNpArticulationLink@physx@@@physx@@UBEXAAVPxBase@3@AAVPxSerializationContext@3@@Z@UAEPAXI@Z 10097120 f i NpSerializerAdapter.obj
 0001:00096150       ??_ERequiresCallback@?1??registerReferences@?$PxSerializerDefaultAdapter@VNpCloth@physx@@@physx@@UBEXAAVPxBase@3@AAVPxSerializationContext@3@@Z@UAEPAXI@Z 10097150 f i NpSerializerAdapter.obj
 0001:00096150       ??_GRequiresCallback@?1??registerReferences@?$PxSerializerDefaultAdapter@VNpCloth@physx@@@physx@@UBEXAAVPxBase@3@AAVPxSerializationContext@3@@Z@UAEPAXI@Z 10097150 f i NpSerializerAdapter.obj
 0001:00096180       ??_GRequiresCallback@?1??registerReferences@?$PxSerializerDefaultAdapter@VNpClothFabric@physx@@@physx@@UBEXAAVPxBase@3@AAVPxSerializationContext@3@@Z@UAEPAXI@Z 10097180 f i NpSerializerAdapter.obj
 0001:00096180       ??_ERequiresCallback@?1??registerReferences@?$PxSerializerDefaultAdapter@VNpClothFabric@physx@@@physx@@UBEXAAVPxBase@3@AAVPxSerializationContext@3@@Z@UAEPAXI@Z 10097180 f i NpSerializerAdapter.obj
 0001:000961b0       ??_ERequiresCallback@?1??registerReferences@?$PxSerializerDefaultAdapter@VNpConstraint@physx@@@physx@@UBEXAAVPxBase@3@AAVPxSerializationContext@3@@Z@UAEPAXI@Z 100971b0 f i NpSerializerAdapter.obj
 0001:000961b0       ??_GRequiresCallback@?1??registerReferences@?$PxSerializerDefaultAdapter@VNpConstraint@physx@@@physx@@UBEXAAVPxBase@3@AAVPxSerializationContext@3@@Z@UAEPAXI@Z 100971b0 f i NpSerializerAdapter.obj
 0001:000961e0       ??_ERequiresCallback@?1??registerReferences@?$PxSerializerDefaultAdapter@VNpMaterial@physx@@@physx@@UBEXAAVPxBase@3@AAVPxSerializationContext@3@@Z@UAEPAXI@Z 100971e0 f i NpSerializerAdapter.obj
 0001:000961e0       ??_GRequiresCallback@?1??registerReferences@?$PxSerializerDefaultAdapter@VNpMaterial@physx@@@physx@@UBEXAAVPxBase@3@AAVPxSerializationContext@3@@Z@UAEPAXI@Z 100971e0 f i NpSerializerAdapter.obj
 0001:00096210       ??_GRequiresCallback@?1??registerReferences@?$PxSerializerDefaultAdapter@VNpParticleFluid@physx@@@physx@@UBEXAAVPxBase@3@AAVPxSerializationContext@3@@Z@UAEPAXI@Z 10097210 f i NpSerializerAdapter.obj
 0001:00096210       ??_ERequiresCallback@?1??registerReferences@?$PxSerializerDefaultAdapter@VNpParticleFluid@physx@@@physx@@UBEXAAVPxBase@3@AAVPxSerializationContext@3@@Z@UAEPAXI@Z 10097210 f i NpSerializerAdapter.obj
 0001:00096240       ??_GRequiresCallback@?1??registerReferences@?$PxSerializerDefaultAdapter@VNpParticleSystem@physx@@@physx@@UBEXAAVPxBase@3@AAVPxSerializationContext@3@@Z@UAEPAXI@Z 10097240 f i NpSerializerAdapter.obj
 0001:00096240       ??_ERequiresCallback@?1??registerReferences@?$PxSerializerDefaultAdapter@VNpParticleSystem@physx@@@physx@@UBEXAAVPxBase@3@AAVPxSerializationContext@3@@Z@UAEPAXI@Z 10097240 f i NpSerializerAdapter.obj
 0001:00096270       ??_ERequiresCallback@?1??registerReferences@?$PxSerializerDefaultAdapter@VNpRigidDynamic@physx@@@physx@@UBEXAAVPxBase@3@AAVPxSerializationContext@3@@Z@UAEPAXI@Z 10097270 f i NpSerializerAdapter.obj
 0001:00096270       ??_GRequiresCallback@?1??registerReferences@?$PxSerializerDefaultAdapter@VNpRigidDynamic@physx@@@physx@@UBEXAAVPxBase@3@AAVPxSerializationContext@3@@Z@UAEPAXI@Z 10097270 f i NpSerializerAdapter.obj
 0001:000962a0       ??_GRequiresCallback@?1??registerReferences@?$PxSerializerDefaultAdapter@VNpRigidStatic@physx@@@physx@@UBEXAAVPxBase@3@AAVPxSerializationContext@3@@Z@UAEPAXI@Z 100972a0 f i NpSerializerAdapter.obj
 0001:000962a0       ??_ERequiresCallback@?1??registerReferences@?$PxSerializerDefaultAdapter@VNpRigidStatic@physx@@@physx@@UBEXAAVPxBase@3@AAVPxSerializationContext@3@@Z@UAEPAXI@Z 100972a0 f i NpSerializerAdapter.obj
 0001:000962d0       ??_ERequiresCallback@?1??registerReferences@?$PxSerializerDefaultAdapter@VNpShape@physx@@@physx@@UBEXAAVPxBase@3@AAVPxSerializationContext@3@@Z@UAEPAXI@Z 100972d0 f i NpSerializerAdapter.obj
 0001:000962d0       ??_GRequiresCallback@?1??registerReferences@?$PxSerializerDefaultAdapter@VNpShape@physx@@@physx@@UBEXAAVPxBase@3@AAVPxSerializationContext@3@@Z@UAEPAXI@Z 100972d0 f i NpSerializerAdapter.obj
 0001:00096300       ??_ERequiresCallback@?1??registerReferences@?$PxSerializerDefaultAdapter@VPruningStructure@Sq@physx@@@physx@@UBEXAAVPxBase@3@AAVPxSerializationContext@3@@Z@UAEPAXI@Z 10097300 f i NpSerializerAdapter.obj
 0001:00096300       ??_GRequiresCallback@?1??registerReferences@?$PxSerializerDefaultAdapter@VPruningStructure@Sq@physx@@@physx@@UBEXAAVPxBase@3@AAVPxSerializationContext@3@@Z@UAEPAXI@Z 10097300 f i NpSerializerAdapter.obj
 0001:00096330       ??_ERequiresCallback@?1??registerReferences@?$PxSerializerDefaultAdapter@VRTreeTriangleMesh@Gu@physx@@@physx@@UBEXAAVPxBase@3@AAVPxSerializationContext@3@@Z@UAEPAXI@Z 10097330 f i NpSerializerAdapter.obj
 0001:00096330       ??_GRequiresCallback@?1??registerReferences@?$PxSerializerDefaultAdapter@VRTreeTriangleMesh@Gu@physx@@@physx@@UBEXAAVPxBase@3@AAVPxSerializationContext@3@@Z@UAEPAXI@Z 10097330 f i NpSerializerAdapter.obj
 0001:00096360       ?createObject@?$PxSerializerDefaultAdapter@VBV4TriangleMesh@Gu@physx@@@physx@@UBEPAVPxBase@2@AAPAEAAVPxDeserializationContext@2@@Z 10097360 f i NpSerializerAdapter.obj
 0001:00096380       ?createObject@?$PxSerializerDefaultAdapter@VConvexMesh@Gu@physx@@@physx@@UBEPAVPxBase@2@AAPAEAAVPxDeserializationContext@2@@Z 10097380 f i NpSerializerAdapter.obj
 0001:000963a0       ?createObject@?$PxSerializerDefaultAdapter@VHeightField@Gu@physx@@@physx@@UBEPAVPxBase@2@AAPAEAAVPxDeserializationContext@2@@Z 100973a0 f i NpSerializerAdapter.obj
 0001:000963c0       ?createObject@?$PxSerializerDefaultAdapter@VNpAggregate@physx@@@physx@@UBEPAVPxBase@2@AAPAEAAVPxDeserializationContext@2@@Z 100973c0 f i NpSerializerAdapter.obj
 0001:000963e0       ?createObject@?$PxSerializerDefaultAdapter@VNpArticulation@physx@@@physx@@UBEPAVPxBase@2@AAPAEAAVPxDeserializationContext@2@@Z 100973e0 f i NpSerializerAdapter.obj
 0001:00096400       ?createObject@?$PxSerializerDefaultAdapter@VNpArticulationJoint@physx@@@physx@@UBEPAVPxBase@2@AAPAEAAVPxDeserializationContext@2@@Z 10097400 f i NpSerializerAdapter.obj
 0001:00096420       ?createObject@?$PxSerializerDefaultAdapter@VNpArticulationLink@physx@@@physx@@UBEPAVPxBase@2@AAPAEAAVPxDeserializationContext@2@@Z 10097420 f i NpSerializerAdapter.obj
 0001:00096440       ?createObject@?$PxSerializerDefaultAdapter@VNpCloth@physx@@@physx@@UBEPAVPxBase@2@AAPAEAAVPxDeserializationContext@2@@Z 10097440 f i NpSerializerAdapter.obj
 0001:00096460       ?createObject@?$PxSerializerDefaultAdapter@VNpClothFabric@physx@@@physx@@UBEPAVPxBase@2@AAPAEAAVPxDeserializationContext@2@@Z 10097460 f i NpSerializerAdapter.obj
 0001:00096480       ?createObject@?$PxSerializerDefaultAdapter@VNpConstraint@physx@@@physx@@UBEPAVPxBase@2@AAPAEAAVPxDeserializationContext@2@@Z 10097480 f i NpSerializerAdapter.obj
 0001:000964a0       ?createObject@?$PxSerializerDefaultAdapter@VNpMaterial@physx@@@physx@@UBEPAVPxBase@2@AAPAEAAVPxDeserializationContext@2@@Z 100974a0 f i NpSerializerAdapter.obj
 0001:000964c0       ?createObject@?$PxSerializerDefaultAdapter@VNpParticleFluid@physx@@@physx@@UBEPAVPxBase@2@AAPAEAAVPxDeserializationContext@2@@Z 100974c0 f i NpSerializerAdapter.obj
 0001:000964e0       ?createObject@?$PxSerializerDefaultAdapter@VNpParticleSystem@physx@@@physx@@UBEPAVPxBase@2@AAPAEAAVPxDeserializationContext@2@@Z 100974e0 f i NpSerializerAdapter.obj
 0001:00096500       ?createObject@?$PxSerializerDefaultAdapter@VNpRigidDynamic@physx@@@physx@@UBEPAVPxBase@2@AAPAEAAVPxDeserializationContext@2@@Z 10097500 f i NpSerializerAdapter.obj
 0001:00096520       ?createObject@?$PxSerializerDefaultAdapter@VNpRigidStatic@physx@@@physx@@UBEPAVPxBase@2@AAPAEAAVPxDeserializationContext@2@@Z 10097520 f i NpSerializerAdapter.obj
 0001:00096540       ?createObject@?$PxSerializerDefaultAdapter@VNpShape@physx@@@physx@@UBEPAVPxBase@2@AAPAEAAVPxDeserializationContext@2@@Z 10097540 f i NpSerializerAdapter.obj
 0001:00096560       ?createObject@?$PxSerializerDefaultAdapter@VPruningStructure@Sq@physx@@@physx@@UBEPAVPxBase@2@AAPAEAAVPxDeserializationContext@2@@Z 10097560 f i NpSerializerAdapter.obj
 0001:00096580       ?createObject@?$PxSerializerDefaultAdapter@VRTreeTriangleMesh@Gu@physx@@@physx@@UBEPAVPxBase@2@AAPAEAAVPxDeserializationContext@2@@Z 10097580 f i NpSerializerAdapter.obj
 0001:000965a0       ?exportData@?$PxSerializerDefaultAdapter@VBV4TriangleMesh@Gu@physx@@@physx@@UBEXAAVPxBase@2@AAVPxSerializationContext@2@@Z 100975a0 f i NpSerializerAdapter.obj
 0001:000965c0       ?exportData@?$PxSerializerDefaultAdapter@VConvexMesh@Gu@physx@@@physx@@UBEXAAVPxBase@2@AAVPxSerializationContext@2@@Z 100975c0 f i NpSerializerAdapter.obj
 0001:000965e0       ?exportData@?$PxSerializerDefaultAdapter@VHeightField@Gu@physx@@@physx@@UBEXAAVPxBase@2@AAVPxSerializationContext@2@@Z 100975e0 f i NpSerializerAdapter.obj
 0001:00096600       ?exportData@?$PxSerializerDefaultAdapter@VNpAggregate@physx@@@physx@@UBEXAAVPxBase@2@AAVPxSerializationContext@2@@Z 10097600 f i NpSerializerAdapter.obj
 0001:00096620       ?exportData@?$PxSerializerDefaultAdapter@VNpArticulation@physx@@@physx@@UBEXAAVPxBase@2@AAVPxSerializationContext@2@@Z 10097620 f i NpSerializerAdapter.obj
 0001:00096640       ?exportData@?$PxSerializerDefaultAdapter@VNpArticulationJoint@physx@@@physx@@UBEXAAVPxBase@2@AAVPxSerializationContext@2@@Z 10097640 f i NpSerializerAdapter.obj
 0001:00096660       ?exportData@?$PxSerializerDefaultAdapter@VNpArticulationLink@physx@@@physx@@UBEXAAVPxBase@2@AAVPxSerializationContext@2@@Z 10097660 f i NpSerializerAdapter.obj
 0001:00096680       ?exportData@?$PxSerializerDefaultAdapter@VNpCloth@physx@@@physx@@UBEXAAVPxBase@2@AAVPxSerializationContext@2@@Z 10097680 f i NpSerializerAdapter.obj
 0001:000966a0       ?exportData@?$PxSerializerDefaultAdapter@VNpClothFabric@physx@@@physx@@UBEXAAVPxBase@2@AAVPxSerializationContext@2@@Z 100976a0 f i NpSerializerAdapter.obj
 0001:000966c0       ?exportData@?$PxSerializerDefaultAdapter@VNpConstraint@physx@@@physx@@UBEXAAVPxBase@2@AAVPxSerializationContext@2@@Z 100976c0 f i NpSerializerAdapter.obj
 0001:000966e0       ?exportData@?$PxSerializerDefaultAdapter@VNpMaterial@physx@@@physx@@UBEXAAVPxBase@2@AAVPxSerializationContext@2@@Z 100976e0 f i NpSerializerAdapter.obj
 0001:00096700       ?exportData@?$PxSerializerDefaultAdapter@VNpParticleFluid@physx@@@physx@@UBEXAAVPxBase@2@AAVPxSerializationContext@2@@Z 10097700 f i NpSerializerAdapter.obj
 0001:00096720       ?exportData@?$PxSerializerDefaultAdapter@VNpParticleSystem@physx@@@physx@@UBEXAAVPxBase@2@AAVPxSerializationContext@2@@Z 10097720 f i NpSerializerAdapter.obj
 0001:00096740       ?exportData@?$PxSerializerDefaultAdapter@VNpRigidDynamic@physx@@@physx@@UBEXAAVPxBase@2@AAVPxSerializationContext@2@@Z 10097740 f i NpSerializerAdapter.obj
 0001:000967f0       ?exportData@?$PxSerializerDefaultAdapter@VNpRigidStatic@physx@@@physx@@UBEXAAVPxBase@2@AAVPxSerializationContext@2@@Z 100977f0 f i NpSerializerAdapter.obj
 0001:00096810       ?exportData@?$PxSerializerDefaultAdapter@VNpShape@physx@@@physx@@UBEXAAVPxBase@2@AAVPxSerializationContext@2@@Z 10097810 f i NpSerializerAdapter.obj
 0001:00096830       ?exportData@?$PxSerializerDefaultAdapter@VPruningStructure@Sq@physx@@@physx@@UBEXAAVPxBase@2@AAVPxSerializationContext@2@@Z 10097830 f i NpSerializerAdapter.obj
 0001:00096850       ?exportData@?$PxSerializerDefaultAdapter@VRTreeTriangleMesh@Gu@physx@@@physx@@UBEXAAVPxBase@2@AAVPxSerializationContext@2@@Z 10097850 f i NpSerializerAdapter.obj
 0001:00096870       ?exportExtraData@?$PxSerializerDefaultAdapter@VBV4TriangleMesh@Gu@physx@@@physx@@UBEXAAVPxBase@2@AAVPxSerializationContext@2@@Z 10097870 f i NpSerializerAdapter.obj
 0001:00096890       ?exportExtraData@?$PxSerializerDefaultAdapter@VConvexMesh@Gu@physx@@@physx@@UBEXAAVPxBase@2@AAVPxSerializationContext@2@@Z 10097890 f i NpSerializerAdapter.obj
 0001:000968b0       ?exportExtraData@?$PxSerializerDefaultAdapter@VHeightField@Gu@physx@@@physx@@UBEXAAVPxBase@2@AAVPxSerializationContext@2@@Z 100978b0 f i NpSerializerAdapter.obj
 0001:000968d0       ?exportExtraData@?$PxSerializerDefaultAdapter@VNpAggregate@physx@@@physx@@UBEXAAVPxBase@2@AAVPxSerializationContext@2@@Z 100978d0 f i NpSerializerAdapter.obj
 0001:000968f0       ?exportExtraData@?$PxSerializerDefaultAdapter@VNpArticulation@physx@@@physx@@UBEXAAVPxBase@2@AAVPxSerializationContext@2@@Z 100978f0 f i NpSerializerAdapter.obj
 0001:00096910       ?exportExtraData@?$PxSerializerDefaultAdapter@VNpArticulationJoint@physx@@@physx@@UBEXAAVPxBase@2@AAVPxSerializationContext@2@@Z 10097910 f i NpSerializerAdapter.obj
 0001:00096920       ?exportExtraData@?$PxSerializerDefaultAdapter@VNpArticulationLink@physx@@@physx@@UBEXAAVPxBase@2@AAVPxSerializationContext@2@@Z 10097920 f i NpSerializerAdapter.obj
 0001:00096940       ?exportExtraData@?$PxSerializerDefaultAdapter@VNpCloth@physx@@@physx@@UBEXAAVPxBase@2@AAVPxSerializationContext@2@@Z 10097940 f i NpSerializerAdapter.obj
 0001:00096960       ?exportExtraData@?$PxSerializerDefaultAdapter@VNpClothFabric@physx@@@physx@@UBEXAAVPxBase@2@AAVPxSerializationContext@2@@Z 10097960 f i NpSerializerAdapter.obj
 0001:00096980       ?exportExtraData@?$PxSerializerDefaultAdapter@VNpConstraint@physx@@@physx@@UBEXAAVPxBase@2@AAVPxSerializationContext@2@@Z 10097980 f i NpSerializerAdapter.obj
 0001:00096990       ?exportExtraData@?$PxSerializerDefaultAdapter@VNpMaterial@physx@@@physx@@UBEXAAVPxBase@2@AAVPxSerializationContext@2@@Z 10097990 f i NpSerializerAdapter.obj
 0001:000969a0       ?exportExtraData@?$PxSerializerDefaultAdapter@VNpParticleFluid@physx@@@physx@@UBEXAAVPxBase@2@AAVPxSerializationContext@2@@Z 100979a0 f i NpSerializerAdapter.obj
 0001:000969c0       ?exportExtraData@?$PxSerializerDefaultAdapter@VNpParticleSystem@physx@@@physx@@UBEXAAVPxBase@2@AAVPxSerializationContext@2@@Z 100979c0 f i NpSerializerAdapter.obj
 0001:000969e0       ?exportExtraData@?$PxSerializerDefaultAdapter@VNpRigidDynamic@physx@@@physx@@UBEXAAVPxBase@2@AAVPxSerializationContext@2@@Z 100979e0 f i NpSerializerAdapter.obj
 0001:00096a00       ?exportExtraData@?$PxSerializerDefaultAdapter@VNpRigidStatic@physx@@@physx@@UBEXAAVPxBase@2@AAVPxSerializationContext@2@@Z 10097a00 f i NpSerializerAdapter.obj
 0001:00096a20       ?exportExtraData@?$PxSerializerDefaultAdapter@VNpShape@physx@@@physx@@UBEXAAVPxBase@2@AAVPxSerializationContext@2@@Z 10097a20 f i NpSerializerAdapter.obj
 0001:00096a40       ?exportExtraData@?$PxSerializerDefaultAdapter@VPruningStructure@Sq@physx@@@physx@@UBEXAAVPxBase@2@AAVPxSerializationContext@2@@Z 10097a40 f i NpSerializerAdapter.obj
 0001:00096a60       ?exportExtraData@?$PxSerializerDefaultAdapter@VRTreeTriangleMesh@Gu@physx@@@physx@@UBEXAAVPxBase@2@AAVPxSerializationContext@2@@Z 10097a60 f i NpSerializerAdapter.obj
 0001:00096a80       ?getClassSize@?$PxSerializerDefaultAdapter@VBV4TriangleMesh@Gu@physx@@@physx@@UBEIXZ 10097a80 f i NpSerializerAdapter.obj
 0001:00096a90       ?getClassSize@?$PxSerializerDefaultAdapter@VConvexMesh@Gu@physx@@@physx@@UBEIXZ 10097a90 f i NpSerializerAdapter.obj
 0001:00096aa0       ?getClassSize@?$PxSerializerDefaultAdapter@VHeightField@Gu@physx@@@physx@@UBEIXZ 10097aa0 f i NpSerializerAdapter.obj
 0001:00096ab0       ?getClassSize@?$PxSerializerDefaultAdapter@VNpAggregate@physx@@@physx@@UBEIXZ 10097ab0 f i NpSerializerAdapter.obj
 0001:00096ac0       ?getClassSize@?$PxSerializerDefaultAdapter@VNpArticulation@physx@@@physx@@UBEIXZ 10097ac0 f i NpSerializerAdapter.obj
 0001:00096ad0       ?getClassSize@?$PxSerializerDefaultAdapter@VNpArticulationJoint@physx@@@physx@@UBEIXZ 10097ad0 f i NpSerializerAdapter.obj
 0001:00096ae0       ?getClassSize@?$PxSerializerDefaultAdapter@VNpArticulationLink@physx@@@physx@@UBEIXZ 10097ae0 f i NpSerializerAdapter.obj
 0001:00096af0       ?getClassSize@?$PxSerializerDefaultAdapter@VNpCloth@physx@@@physx@@UBEIXZ 10097af0 f i NpSerializerAdapter.obj
 0001:00096b00       ?getClassSize@?$PxSerializerDefaultAdapter@VNpClothFabric@physx@@@physx@@UBEIXZ 10097b00 f i NpSerializerAdapter.obj
 0001:00096b10       ?getClassSize@?$PxSerializerDefaultAdapter@VNpConstraint@physx@@@physx@@UBEIXZ 10097b10 f i NpSerializerAdapter.obj
 0001:00096b20       ?getClassSize@?$PxSerializerDefaultAdapter@VNpMaterial@physx@@@physx@@UBEIXZ 10097b20 f i NpSerializerAdapter.obj
 0001:00096b30       ?getClassSize@?$PxSerializerDefaultAdapter@VNpParticleFluid@physx@@@physx@@UBEIXZ 10097b30 f i NpSerializerAdapter.obj
 0001:00096b40       ?getClassSize@?$PxSerializerDefaultAdapter@VNpParticleSystem@physx@@@physx@@UBEIXZ 10097b40 f i NpSerializerAdapter.obj
 0001:00096b50       ?getClassSize@?$PxSerializerDefaultAdapter@VNpRigidDynamic@physx@@@physx@@UBEIXZ 10097b50 f i NpSerializerAdapter.obj
 0001:00096b60       ?getClassSize@?$PxSerializerDefaultAdapter@VNpRigidStatic@physx@@@physx@@UBEIXZ 10097b60 f i NpSerializerAdapter.obj
 0001:00096b70       ?getClassSize@?$PxSerializerDefaultAdapter@VNpShape@physx@@@physx@@UBEIXZ 10097b70 f i NpSerializerAdapter.obj
 0001:00096b80       ?getClassSize@?$PxSerializerDefaultAdapter@VPruningStructure@Sq@physx@@@physx@@UBEIXZ 10097b80 f i NpSerializerAdapter.obj
 0001:00096b90       ?getClassSize@?$PxSerializerDefaultAdapter@VRTreeTriangleMesh@Gu@physx@@@physx@@UBEIXZ 10097b90 f i NpSerializerAdapter.obj
 0001:00096ba0       ?getConcreteTypeName@?$PxSerializerDefaultAdapter@VBV4TriangleMesh@Gu@physx@@@physx@@UBEPBDXZ 10097ba0 f i NpSerializerAdapter.obj
 0001:00096bb0       ?getConcreteTypeName@?$PxSerializerDefaultAdapter@VConvexMesh@Gu@physx@@@physx@@UBEPBDXZ 10097bb0 f i NpSerializerAdapter.obj
 0001:00096bc0       ?getConcreteTypeName@?$PxSerializerDefaultAdapter@VHeightField@Gu@physx@@@physx@@UBEPBDXZ 10097bc0 f i NpSerializerAdapter.obj
 0001:00096bd0       ?getConcreteTypeName@?$PxSerializerDefaultAdapter@VNpAggregate@physx@@@physx@@UBEPBDXZ 10097bd0 f i NpSerializerAdapter.obj
 0001:00096be0       ?getConcreteTypeName@?$PxSerializerDefaultAdapter@VNpArticulation@physx@@@physx@@UBEPBDXZ 10097be0 f i NpSerializerAdapter.obj
 0001:00096bf0       ?getConcreteTypeName@?$PxSerializerDefaultAdapter@VNpArticulationJoint@physx@@@physx@@UBEPBDXZ 10097bf0 f i NpSerializerAdapter.obj
 0001:00096c00       ?getConcreteTypeName@?$PxSerializerDefaultAdapter@VNpArticulationLink@physx@@@physx@@UBEPBDXZ 10097c00 f i NpSerializerAdapter.obj
 0001:00096c10       ?getConcreteTypeName@?$PxSerializerDefaultAdapter@VNpCloth@physx@@@physx@@UBEPBDXZ 10097c10 f i NpSerializerAdapter.obj
 0001:00096c20       ?getConcreteTypeName@?$PxSerializerDefaultAdapter@VNpClothFabric@physx@@@physx@@UBEPBDXZ 10097c20 f i NpSerializerAdapter.obj
 0001:00096c30       ?getConcreteTypeName@?$PxSerializerDefaultAdapter@VNpConstraint@physx@@@physx@@UBEPBDXZ 10097c30 f i NpSerializerAdapter.obj
 0001:00096c40       ?getConcreteTypeName@?$PxSerializerDefaultAdapter@VNpMaterial@physx@@@physx@@UBEPBDXZ 10097c40 f i NpSerializerAdapter.obj
 0001:00096c50       ?getConcreteTypeName@?$PxSerializerDefaultAdapter@VNpParticleFluid@physx@@@physx@@UBEPBDXZ 10097c50 f i NpSerializerAdapter.obj
 0001:00096c60       ?getConcreteTypeName@?$PxSerializerDefaultAdapter@VNpParticleSystem@physx@@@physx@@UBEPBDXZ 10097c60 f i NpSerializerAdapter.obj
 0001:00096c70       ?getConcreteTypeName@?$PxSerializerDefaultAdapter@VNpRigidDynamic@physx@@@physx@@UBEPBDXZ 10097c70 f i NpSerializerAdapter.obj
 0001:00096c80       ?getConcreteTypeName@?$PxSerializerDefaultAdapter@VNpRigidStatic@physx@@@physx@@UBEPBDXZ 10097c80 f i NpSerializerAdapter.obj
 0001:00096c90       ?getConcreteTypeName@?$PxSerializerDefaultAdapter@VNpShape@physx@@@physx@@UBEPBDXZ 10097c90 f i NpSerializerAdapter.obj
 0001:00096ca0       ?getConcreteTypeName@?$PxSerializerDefaultAdapter@VPruningStructure@Sq@physx@@@physx@@UBEPBDXZ 10097ca0 f i NpSerializerAdapter.obj
 0001:00096cb0       ?getConcreteTypeName@?$PxSerializerDefaultAdapter@VRTreeTriangleMesh@Gu@physx@@@physx@@UBEPBDXZ 10097cb0 f i NpSerializerAdapter.obj
 0001:00096cc0       ?isSubordinate@?$PxSerializerDefaultAdapter@VBV4TriangleMesh@Gu@physx@@@physx@@UBE_NXZ 10097cc0 f i NpSerializerAdapter.obj
 0001:00096cd0       ?isSubordinate@?$PxSerializerDefaultAdapter@VConvexMesh@Gu@physx@@@physx@@UBE_NXZ 10097cd0 f i NpSerializerAdapter.obj
 0001:00096ce0       ?isSubordinate@?$PxSerializerDefaultAdapter@VHeightField@Gu@physx@@@physx@@UBE_NXZ 10097ce0 f i NpSerializerAdapter.obj
 0001:00096cf0       ?isSubordinate@?$PxSerializerDefaultAdapter@VNpAggregate@physx@@@physx@@UBE_NXZ 10097cf0 f i NpSerializerAdapter.obj
 0001:00096d00       ?isSubordinate@?$PxSerializerDefaultAdapter@VNpArticulation@physx@@@physx@@UBE_NXZ 10097d00 f i NpSerializerAdapter.obj
 0001:00096d10       ?isSubordinate@?$PxSerializerDefaultAdapter@VNpArticulationJoint@physx@@@physx@@UBE_NXZ 10097d10 f i NpSerializerAdapter.obj
 0001:00096d20       ?isSubordinate@?$PxSerializerDefaultAdapter@VNpArticulationLink@physx@@@physx@@UBE_NXZ 10097d20 f i NpSerializerAdapter.obj
 0001:00096d30       ?isSubordinate@?$PxSerializerDefaultAdapter@VNpCloth@physx@@@physx@@UBE_NXZ 10097d30 f i NpSerializerAdapter.obj
 0001:00096d40       ?isSubordinate@?$PxSerializerDefaultAdapter@VNpClothFabric@physx@@@physx@@UBE_NXZ 10097d40 f i NpSerializerAdapter.obj
 0001:00096d50       ?isSubordinate@?$PxSerializerDefaultAdapter@VNpConstraint@physx@@@physx@@UBE_NXZ 10097d50 f i NpSerializerAdapter.obj
 0001:00096d60       ?isSubordinate@?$PxSerializerDefaultAdapter@VNpMaterial@physx@@@physx@@UBE_NXZ 10097d60 f i NpSerializerAdapter.obj
 0001:00096d70       ?isSubordinate@?$PxSerializerDefaultAdapter@VNpParticleFluid@physx@@@physx@@UBE_NXZ 10097d70 f i NpSerializerAdapter.obj
 0001:00096d80       ?isSubordinate@?$PxSerializerDefaultAdapter@VNpParticleSystem@physx@@@physx@@UBE_NXZ 10097d80 f i NpSerializerAdapter.obj
 0001:00096d90       ?isSubordinate@?$PxSerializerDefaultAdapter@VNpRigidDynamic@physx@@@physx@@UBE_NXZ 10097d90 f i NpSerializerAdapter.obj
 0001:00096da0       ?isSubordinate@?$PxSerializerDefaultAdapter@VNpRigidStatic@physx@@@physx@@UBE_NXZ 10097da0 f i NpSerializerAdapter.obj
 0001:00096db0       ?isSubordinate@?$PxSerializerDefaultAdapter@VNpShape@physx@@@physx@@UBE_NXZ 10097db0 f i NpSerializerAdapter.obj
 0001:00096dc0       ?isSubordinate@?$PxSerializerDefaultAdapter@VPruningStructure@Sq@physx@@@physx@@UBE_NXZ 10097dc0 f i NpSerializerAdapter.obj
 0001:00096dd0       ?isSubordinate@?$PxSerializerDefaultAdapter@VRTreeTriangleMesh@Gu@physx@@@physx@@UBE_NXZ 10097dd0 f i NpSerializerAdapter.obj
 0001:00097050       ?registerReferences@?$PxSerializerDefaultAdapter@VBV4TriangleMesh@Gu@physx@@@physx@@UBEXAAVPxBase@2@AAVPxSerializationContext@2@@Z 10098050 f i NpSerializerAdapter.obj
 0001:000970a0       ?registerReferences@?$PxSerializerDefaultAdapter@VConvexMesh@Gu@physx@@@physx@@UBEXAAVPxBase@2@AAVPxSerializationContext@2@@Z 100980a0 f i NpSerializerAdapter.obj
 0001:000970f0       ?registerReferences@?$PxSerializerDefaultAdapter@VHeightField@Gu@physx@@@physx@@UBEXAAVPxBase@2@AAVPxSerializationContext@2@@Z 100980f0 f i NpSerializerAdapter.obj
 0001:00097140       ?registerReferences@?$PxSerializerDefaultAdapter@VNpAggregate@physx@@@physx@@UBEXAAVPxBase@2@AAVPxSerializationContext@2@@Z 10098140 f i NpSerializerAdapter.obj
 0001:00097190       ?registerReferences@?$PxSerializerDefaultAdapter@VNpArticulation@physx@@@physx@@UBEXAAVPxBase@2@AAVPxSerializationContext@2@@Z 10098190 f i NpSerializerAdapter.obj
 0001:000971e0       ?registerReferences@?$PxSerializerDefaultAdapter@VNpArticulationJoint@physx@@@physx@@UBEXAAVPxBase@2@AAVPxSerializationContext@2@@Z 100981e0 f i NpSerializerAdapter.obj
 0001:00097230       ?registerReferences@?$PxSerializerDefaultAdapter@VNpArticulationLink@physx@@@physx@@UBEXAAVPxBase@2@AAVPxSerializationContext@2@@Z 10098230 f i NpSerializerAdapter.obj
 0001:00097280       ?registerReferences@?$PxSerializerDefaultAdapter@VNpCloth@physx@@@physx@@UBEXAAVPxBase@2@AAVPxSerializationContext@2@@Z 10098280 f i NpSerializerAdapter.obj
 0001:000972d0       ?registerReferences@?$PxSerializerDefaultAdapter@VNpClothFabric@physx@@@physx@@UBEXAAVPxBase@2@AAVPxSerializationContext@2@@Z 100982d0 f i NpSerializerAdapter.obj
 0001:00097320       ?registerReferences@?$PxSerializerDefaultAdapter@VNpConstraint@physx@@@physx@@UBEXAAVPxBase@2@AAVPxSerializationContext@2@@Z 10098320 f i NpSerializerAdapter.obj
 0001:00097370       ?registerReferences@?$PxSerializerDefaultAdapter@VNpMaterial@physx@@@physx@@UBEXAAVPxBase@2@AAVPxSerializationContext@2@@Z 10098370 f i NpSerializerAdapter.obj
 0001:000973c0       ?registerReferences@?$PxSerializerDefaultAdapter@VNpParticleFluid@physx@@@physx@@UBEXAAVPxBase@2@AAVPxSerializationContext@2@@Z 100983c0 f i NpSerializerAdapter.obj
 0001:00097410       ?registerReferences@?$PxSerializerDefaultAdapter@VNpParticleSystem@physx@@@physx@@UBEXAAVPxBase@2@AAVPxSerializationContext@2@@Z 10098410 f i NpSerializerAdapter.obj
 0001:00097460       ?registerReferences@?$PxSerializerDefaultAdapter@VNpRigidDynamic@physx@@@physx@@UBEXAAVPxBase@2@AAVPxSerializationContext@2@@Z 10098460 f i NpSerializerAdapter.obj
 0001:000974b0       ?registerReferences@?$PxSerializerDefaultAdapter@VNpRigidStatic@physx@@@physx@@UBEXAAVPxBase@2@AAVPxSerializationContext@2@@Z 100984b0 f i NpSerializerAdapter.obj
 0001:00097500       ?registerReferences@?$PxSerializerDefaultAdapter@VNpShape@physx@@@physx@@UBEXAAVPxBase@2@AAVPxSerializationContext@2@@Z 10098500 f i NpSerializerAdapter.obj
 0001:00097550       ?registerReferences@?$PxSerializerDefaultAdapter@VPruningStructure@Sq@physx@@@physx@@UBEXAAVPxBase@2@AAVPxSerializationContext@2@@Z 10098550 f i NpSerializerAdapter.obj
 0001:000975a0       ?registerReferences@?$PxSerializerDefaultAdapter@VRTreeTriangleMesh@Gu@physx@@@physx@@UBEXAAVPxBase@2@AAVPxSerializationContext@2@@Z 100985a0 f i NpSerializerAdapter.obj
 0001:000975f0       ?requires@?$PxSerializerDefaultAdapter@VBV4TriangleMesh@Gu@physx@@@physx@@UBEXAAVPxBase@2@AAVPxProcessPxBaseCallback@2@@Z 100985f0 f i NpSerializerAdapter.obj
 0001:00097610       ?requires@?$PxSerializerDefaultAdapter@VConvexMesh@Gu@physx@@@physx@@UBEXAAVPxBase@2@AAVPxProcessPxBaseCallback@2@@Z 10098610 f i NpSerializerAdapter.obj
 0001:00097630       ?requires@?$PxSerializerDefaultAdapter@VHeightField@Gu@physx@@@physx@@UBEXAAVPxBase@2@AAVPxProcessPxBaseCallback@2@@Z 10098630 f i NpSerializerAdapter.obj
 0001:00097650       ?requires@?$PxSerializerDefaultAdapter@VNpAggregate@physx@@@physx@@UBEXAAVPxBase@2@AAVPxProcessPxBaseCallback@2@@Z 10098650 f i NpSerializerAdapter.obj
 0001:00097670       ?requires@?$PxSerializerDefaultAdapter@VNpArticulation@physx@@@physx@@UBEXAAVPxBase@2@AAVPxProcessPxBaseCallback@2@@Z 10098670 f i NpSerializerAdapter.obj
 0001:00097690       ?requires@?$PxSerializerDefaultAdapter@VNpArticulationJoint@physx@@@physx@@UBEXAAVPxBase@2@AAVPxProcessPxBaseCallback@2@@Z 10098690 f i NpSerializerAdapter.obj
 0001:000976b0       ?requires@?$PxSerializerDefaultAdapter@VNpArticulationLink@physx@@@physx@@UBEXAAVPxBase@2@AAVPxProcessPxBaseCallback@2@@Z 100986b0 f i NpSerializerAdapter.obj
 0001:000976d0       ?requires@?$PxSerializerDefaultAdapter@VNpCloth@physx@@@physx@@UBEXAAVPxBase@2@AAVPxProcessPxBaseCallback@2@@Z 100986d0 f i NpSerializerAdapter.obj
 0001:000976f0       ?requires@?$PxSerializerDefaultAdapter@VNpClothFabric@physx@@@physx@@UBEXAAVPxBase@2@AAVPxProcessPxBaseCallback@2@@Z 100986f0 f i NpSerializerAdapter.obj
 0001:00097710       ?requires@?$PxSerializerDefaultAdapter@VNpConstraint@physx@@@physx@@UBEXAAVPxBase@2@AAVPxProcessPxBaseCallback@2@@Z 10098710 f i NpSerializerAdapter.obj
 0001:00097730       ?requires@?$PxSerializerDefaultAdapter@VNpMaterial@physx@@@physx@@UBEXAAVPxBase@2@AAVPxProcessPxBaseCallback@2@@Z 10098730 f i NpSerializerAdapter.obj
 0001:00097750       ?requires@?$PxSerializerDefaultAdapter@VNpParticleFluid@physx@@@physx@@UBEXAAVPxBase@2@AAVPxProcessPxBaseCallback@2@@Z 10098750 f i NpSerializerAdapter.obj
 0001:00097770       ?requires@?$PxSerializerDefaultAdapter@VNpParticleSystem@physx@@@physx@@UBEXAAVPxBase@2@AAVPxProcessPxBaseCallback@2@@Z 10098770 f i NpSerializerAdapter.obj
 0001:00097790       ?requires@?$PxSerializerDefaultAdapter@VNpRigidDynamic@physx@@@physx@@UBEXAAVPxBase@2@AAVPxProcessPxBaseCallback@2@@Z 10098790 f i NpSerializerAdapter.obj
 0001:000977b0       ?requires@?$PxSerializerDefaultAdapter@VNpRigidStatic@physx@@@physx@@UBEXAAVPxBase@2@AAVPxProcessPxBaseCallback@2@@Z 100987b0 f i NpSerializerAdapter.obj
 0001:000977d0       ?requires@?$PxSerializerDefaultAdapter@VNpShape@physx@@@physx@@UBEXAAVPxBase@2@AAVPxProcessPxBaseCallback@2@@Z 100987d0 f i NpSerializerAdapter.obj
 0001:000977f0       ?requires@?$PxSerializerDefaultAdapter@VPruningStructure@Sq@physx@@@physx@@UBEXAAVPxBase@2@AAVPxProcessPxBaseCallback@2@@Z 100987f0 f i NpSerializerAdapter.obj
 0001:00097810       ?requires@?$PxSerializerDefaultAdapter@VRTreeTriangleMesh@Gu@physx@@@physx@@UBEXAAVPxBase@2@AAVPxProcessPxBaseCallback@2@@Z 10098810 f i NpSerializerAdapter.obj
 0001:00097830       ?NpShapeGetScPtrOffset@physx@@YAIXZ 10098830 f   NpShape.obj
 0001:00097840       ?NpShapeIncRefCount@physx@@YAXAAVShape@Scb@1@@Z 10098840 f   NpShape.obj
 0001:00097850       ?NpShapeDecRefCount@physx@@YAXAAVShape@Scb@1@@Z 10098850 f   NpShape.obj
 0001:00097880       ?NpShapeGetScRigidObjectFromScbSLOW@physx@@YAPAVRigidCore@Sc@1@ABVShape@Scb@1@@Z 10098880 f   NpShape.obj
 0001:000978d0       ??0NpShape@physx@@QAE@V?$PxFlags@W4Enum@PxBaseFlag@physx@@G@1@@Z 100988d0 f   NpShape.obj
 0001:00097940       ?exportExtraData@NpShape@physx@@UAEXAAVPxSerializationContext@2@@Z 10098940 f   NpShape.obj
 0001:00097970       ?importExtraData@NpShape@physx@@QAEXAAVPxDeserializationContext@2@@Z 10098970 f   NpShape.obj
 0001:000979b0       ?requires@NpShape@physx@@UAEXAAVPxProcessPxBaseCallback@2@@Z 100989b0 f   NpShape.obj
 0001:00097ab0       ?resolveReferences@NpShape@physx@@QAEXAAVPxDeserializationContext@2@@Z 10098ab0 f   NpShape.obj
 0001:00097be0       ?createObject@NpShape@physx@@SAPAV12@AAPAEAAVPxDeserializationContext@2@@Z 10098be0 f   NpShape.obj
 0001:00097c40       ??0NpShape@physx@@QAE@ABVPxGeometry@1@V?$PxFlags@W4Enum@PxShapeFlag@physx@@E@1@PBGG_N@Z 10098c40 f   NpShape.obj
 0001:00097d30       ??1NpShape@physx@@UAE@XZ   10098d30 f   NpShape.obj
 0001:00097e20       ?release@NpShape@physx@@UAEXXZ 10098e20 f   NpShape.obj
 0001:00097ec0       ?acquireReference@NpShape@physx@@UAEXXZ 10098ec0 f   NpShape.obj
 0001:00097ed0       ?getGeometryType@NpShape@physx@@UBE?AW4Enum@PxGeometryType@2@XZ 10098ed0 f   NpShape.obj
 0001:00097f10       ?setGeometry@NpShape@physx@@UAEXABVPxGeometry@2@@Z 10098f10 f   NpShape.obj
 0001:000980d0       ?getGeometry@NpShape@physx@@UBE?AVPxGeometryHolder@2@XZ 100990d0 f   NpShape.obj
 0001:00098110       ?getBoxGeometry@NpShape@physx@@UBE_NAAVPxBoxGeometry@2@@Z 10099110 f   NpShape.obj
 0001:00098190       ?getSphereGeometry@NpShape@physx@@UBE_NAAVPxSphereGeometry@2@@Z 10099190 f   NpShape.obj
 0001:00098210       ?getCapsuleGeometry@NpShape@physx@@UBE_NAAVPxCapsuleGeometry@2@@Z 10099210 f   NpShape.obj
 0001:00098290       ?getPlaneGeometry@NpShape@physx@@UBE_NAAVPxPlaneGeometry@2@@Z 10099290 f   NpShape.obj
 0001:00098300       ?getConvexMeshGeometry@NpShape@physx@@UBE_NAAVPxConvexMeshGeometry@2@@Z 10099300 f   NpShape.obj
 0001:000983c0       ?getTriangleMeshGeometry@NpShape@physx@@UBE_NAAVPxTriangleMeshGeometry@2@@Z 100993c0 f   NpShape.obj
 0001:00098480       ?getHeightFieldGeometry@NpShape@physx@@UBE_NAAVPxHeightFieldGeometry@2@@Z 10099480 f   NpShape.obj
 0001:00098520       ?getActor@NpShape@physx@@UBEPAVPxRigidActor@2@XZ 10099520 f   NpShape.obj
 0001:00098560       ?setLocalPose@NpShape@physx@@UAEXABVPxTransform@2@@Z 10099560 f   NpShape.obj
 0001:000986f0       ?getLocalPose@NpShape@physx@@UBE?AVPxTransform@2@XZ 100996f0 f   NpShape.obj
 0001:00098770       ?setSimulationFilterData@NpShape@physx@@UAEXABUPxFilterData@2@@Z 10099770 f   NpShape.obj
 0001:00098820       ?getSimulationFilterData@NpShape@physx@@UBE?AUPxFilterData@2@XZ 10099820 f   NpShape.obj
 0001:00098880       ?setQueryFilterData@NpShape@physx@@UAEXABUPxFilterData@2@@Z 10099880 f   NpShape.obj
 0001:00098950       ?getQueryFilterData@NpShape@physx@@UBE?AUPxFilterData@2@XZ 10099950 f   NpShape.obj
 0001:000989a0       ?setMaterials@NpShape@physx@@UAEXPBQAVPxMaterial@2@G@Z 100999a0 f   NpShape.obj
 0001:00098b60       ?getNbMaterials@NpShape@physx@@UBEGXZ 10099b60 f   NpShape.obj
 0001:00098bd0       ?getMaterials@NpShape@physx@@UBEIPAPAVPxMaterial@2@II@Z 10099bd0 f   NpShape.obj
 0001:00098c20       ?getMaterialFromInternalFaceIndex@NpShape@physx@@UBEPAVPxMaterial@2@I@Z 10099c20 f   NpShape.obj
 0001:00098d50       ?setContactOffset@NpShape@physx@@UAEXM@Z 10099d50 f   NpShape.obj
 0001:00098ea0       ?getContactOffset@NpShape@physx@@UBEMXZ 10099ea0 f   NpShape.obj
 0001:00098f00       ?setRestOffset@NpShape@physx@@UAEXM@Z 10099f00 f   NpShape.obj
 0001:00099090       ?getRestOffset@NpShape@physx@@UBEMXZ 1009a090 f   NpShape.obj
 0001:000990f0       ?setFlag@NpShape@physx@@UAEXW4Enum@PxShapeFlag@2@_N@Z 1009a0f0 f   NpShape.obj
 0001:000991e0       ?setFlags@NpShape@physx@@UAEXV?$PxFlags@W4Enum@PxShapeFlag@physx@@E@2@@Z 1009a1e0 f   NpShape.obj
 0001:000992b0       ?getFlags@NpShape@physx@@UBE?AV?$PxFlags@W4Enum@PxShapeFlag@physx@@E@2@XZ 1009a2b0 f   NpShape.obj
 0001:00099310       ?isExclusive@NpShape@physx@@UBE_NXZ 1009a310 f   NpShape.obj
 0001:00099360       ?setName@NpShape@physx@@UAEXPBD@Z 1009a360 f   NpShape.obj
 0001:00099430       ?getName@NpShape@physx@@UBEPBDXZ 1009a430 f   NpShape.obj
 0001:00099470       ?onRefCountZero@NpShape@physx@@UAEXXZ 1009a470 f   NpShape.obj
 0001:00099490       ?setFlagsInternal@NpShape@physx@@QAEXV?$PxFlags@W4Enum@PxShapeFlag@physx@@E@2@@Z 1009a490 f   NpShape.obj
 0001:00099640       ?checkMaterialSetup@NpShape@physx@@SA_NABVPxGeometry@2@PBDPBQAVPxMaterial@2@G@Z 1009a640 f   NpShape.obj
 0001:000997c0       ?onActorAttach@NpShape@physx@@QAEXAAVPxRigidActor@2@@Z 1009a7c0 f   NpShape.obj
 0001:00099800       ?onActorDetach@NpShape@physx@@QAEXXZ 1009a800 f   NpShape.obj
 0001:00099840       ?getScRigidObjectExclusive@NpShape@physx@@QBEAAVRigidCore@Sc@2@XZ 1009a840 f   NpShape.obj
 0001:00099850       ?releaseInternal@NpShape@physx@@QAEXXZ 1009a850 f   NpShape.obj
 0001:00099870       ?getOwnerScene@NpShape@physx@@QBEPAVNpScene@2@XZ 1009a870 f   NpShape.obj
 0001:00099890       ?getAPIScene@NpShape@physx@@ABEPAVNpScene@2@XZ 1009a890 f   NpShape.obj
 0001:000998a0       ?incMeshRefCount@NpShape@physx@@AAEXXZ 1009a8a0 f   NpShape.obj
 0001:000998c0       ?decMeshRefCount@NpShape@physx@@AAEXXZ 1009a8c0 f   NpShape.obj
 0001:000998f0       ?getMeshRefCountable@NpShape@physx@@AAEPAVRefCountable@Cm@2@XZ 1009a8f0 f   NpShape.obj
 0001:00099980       ?isWritable@NpShape@physx@@AAE_NXZ 1009a980 f   NpShape.obj
 0001:000999a0       ?updateSQ@NpShape@physx@@AAEXPBD@Z 1009a9a0 f   NpShape.obj
 0001:0009a2b0       ??$allocArrayBuffer@G@Scene@Scb@physx@@AAEPAGAAV?$Array@GVNamedAllocator@shdfnd@physx@@@shdfnd@2@IAAI@Z 1009b2b0 f i NpShape.obj
 0001:0009a2f0       ??0PxTriangleMeshGeometry@physx@@QAE@XZ 1009b2f0 f i NpShape.obj
 0001:0009a350       ??1PxShape@physx@@MAE@XZ   1009b350 f i NpShape.obj
 0001:0009a357       ??_ENpShape@physx@@WM@AEPAXI@Z 1009b357 f i NpShape.obj
 0001:0009a370       ??_ENpShape@physx@@UAEPAXI@Z 1009b370 f i NpShape.obj
 0001:0009a370       ??_GNpShape@physx@@UAEPAXI@Z 1009b370 f i NpShape.obj
 0001:0009a3d0       ??_EPxShape@physx@@MAEPAXI@Z 1009b3d0 f i NpShape.obj
 0001:0009a3d0       ??_GPxShape@physx@@MAEPAXI@Z 1009b3d0 f i NpShape.obj
 0001:0009a400       ?getConcreteTypeName@PxShape@physx@@UBEPBDXZ 1009b400 f i NpShape.obj
 0001:0009a410       ?getMaterials@Shape@Scb@physx@@QBEIPAPAVPxMaterial@3@II@Z 1009b410 f i NpShape.obj
 0001:0009a4c0       ?isKindOf@PxShape@physx@@MBE_NPBD@Z 1009b4c0 f i NpShape.obj
 0001:0009a560       ?setContactOffset@Shape@Scb@physx@@QAEXM@Z 1009b560 f i NpShape.obj
 0001:0009a6c0       ?setFlags@Shape@Scb@physx@@QAEXV?$PxFlags@W4Enum@PxShapeFlag@physx@@E@3@@Z 1009b6c0 f i NpShape.obj
 0001:0009a820       ?setGeometry@Shape@Scb@physx@@QAEPAUShapeBuffer@23@ABVPxGeometry@3@@Z 1009b820 f i NpShape.obj
 0001:0009a990       ?setMaterials@Shape@Scb@physx@@QAE_NPBQAVPxMaterial@3@G@Z 1009b990 f i NpShape.obj
 0001:0009aae0       ?setRestOffset@Shape@Scb@physx@@QAEXM@Z 1009bae0 f i NpShape.obj
 0001:0009ac40       ?setShape2Actor@Shape@Scb@physx@@QAEXABVPxTransform@3@@Z 1009bc40 f i NpShape.obj
 0001:0009ae00       ?setSimulationFilterData@Shape@Scb@physx@@QAEXABUPxFilterData@3@@Z 1009be00 f i NpShape.obj
 0001:0009af60       ??0NpShapeManager@physx@@QAE@W4PxEMPTY@1@@Z 1009bf60 f   NpShapeManager.obj
 0001:0009afa0       ?exportExtraData@NpShapeManager@physx@@QAEXAAVPxSerializationContext@2@@Z 1009bfa0 f   NpShapeManager.obj
 0001:0009afc0       ?importExtraData@NpShapeManager@physx@@QAEXAAVPxDeserializationContext@2@@Z 1009bfc0 f   NpShapeManager.obj
 0001:0009afe0       ??0NpShapeManager@physx@@QAE@XZ 1009bfe0 f   NpShapeManager.obj
 0001:0009b000       ??1NpShapeManager@physx@@QAE@XZ 1009c000 f   NpShapeManager.obj
 0001:0009b040       ?getShapes@NpShapeManager@physx@@QBEIPAPAVPxShape@2@II@Z 1009c040 f   NpShapeManager.obj
 0001:0009b090       ?attachShape@NpShapeManager@physx@@QAEXAAVNpShape@2@AAVPxRigidActor@2@@Z 1009c090 f   NpShapeManager.obj
 0001:0009b130       ?detachShape@NpShapeManager@physx@@QAE_NAAVNpShape@2@AAVPxRigidActor@2@_N@Z 1009c130 f   NpShapeManager.obj
 0001:0009b200       ?detachAll@NpShapeManager@physx@@QAEXPAVNpScene@2@@Z 1009c200 f   NpShapeManager.obj
 0001:0009b280       ?teardownSceneQuery@NpShapeManager@physx@@QAEXAAVSceneQueryManager@Sq@2@ABVNpShape@2@@Z 1009c280 f   NpShapeManager.obj
 0001:0009b2d0       ?setupSceneQuery@NpShapeManager@physx@@QAEXAAVSceneQueryManager@Sq@2@ABVPxRigidActor@2@ABVNpShape@2@@Z 1009c2d0 f   NpShapeManager.obj
 0001:0009b340       ?setupAllSceneQuery@NpShapeManager@physx@@QAEXPAVNpScene@2@ABVPxRigidActor@2@_NPBVPxBounds3@2@@Z 1009c340 f   NpShapeManager.obj
 0001:0009b3f0       ?teardownAllSceneQuery@NpShapeManager@physx@@QAEXAAVSceneQueryManager@Sq@2@@Z 1009c3f0 f   NpShapeManager.obj
 0001:0009b480       ?markAllSceneQueryForUpdate@NpShapeManager@physx@@QAEXAAVSceneQueryManager@Sq@2@@Z 1009c480 f   NpShapeManager.obj
 0001:0009b4c0       ?findSceneQueryData@NpShapeManager@physx@@QBEIABVNpShape@2@@Z 1009c4c0 f   NpShapeManager.obj
 0001:0009b4f0       ?getWorldBounds@NpShapeManager@physx@@QBE?AVPxBounds3@2@ABVPxRigidActor@2@@Z 1009c4f0 f   NpShapeManager.obj
 0001:0009b830       ?clearShapesOnRelease@NpShapeManager@physx@@QAEXAAVScene@Scb@2@AAVPxRigidActor@2@@Z 1009c830 f   NpShapeManager.obj
 0001:0009b8b0       ?releaseExclusiveUserReferences@NpShapeManager@physx@@QAEXXZ 1009c8b0 f   NpShapeManager.obj
 0001:0009b900       ?visualize@NpShapeManager@physx@@QAEXAAVRenderOutput@Cm@2@PAVNpScene@2@ABVPxRigidActor@2@@Z 1009c900 f   NpShapeManager.obj
 0001:0009c0f0       ?setupSceneQuery@NpShapeManager@physx@@IAEXAAVSceneQueryManager@Sq@2@ABVPxRigidActor@2@I@Z 1009d0f0 f   NpShapeManager.obj
 0001:0009c160       ?teardownSceneQuery@NpShapeManager@physx@@IAEXAAVSceneQueryManager@Sq@2@I@Z 1009d160 f   NpShapeManager.obj
 0001:0009c6a0       ??0PxMat44@physx@@QAE@ABVPxTransform@1@@Z 1009d6a0 f i NpShapeManager.obj
 0001:0009c890       ??0PxVec4@physx@@QAE@XZ    1009d890 f i NpShapeManager.obj
 0001:0009c8a0       ?findAndReplaceWithLast@?$Array@PAVShape@Scb@physx@@V?$InlineAllocator@$0BA@VNamedAllocator@shdfnd@physx@@@shdfnd@3@@shdfnd@physx@@QAE_NABQAVShape@Scb@3@@Z 1009d8a0 f i NpShapeManager.obj
 0001:0009c900       ?findAndReplaceWithLast@?$Array@URemovedShape@Scb@physx@@V?$InlineAllocator@$0CA@VNamedAllocator@shdfnd@physx@@@shdfnd@3@@shdfnd@physx@@QAE_NABURemovedShape@Scb@3@@Z 1009d900 f i NpShapeManager.obj
 0001:0009cc90       ?getTriangleVertexIndices@HeightField@Gu@physx@@QBEXIAAI00@Z 1009dc90 f i NpShapeManager.obj
 0001:0009cd50       ?growAndPushBack@?$Array@PAVShape@Scb@physx@@V?$InlineAllocator@$0BA@VNamedAllocator@shdfnd@physx@@@shdfnd@3@@shdfnd@physx@@IAEAAPAVShape@Scb@3@ABQAV453@@Z 1009dd50 f i NpShapeManager.obj
 0001:0009ce70       ?growAndPushBack@?$Array@URemovedShape@Scb@physx@@V?$InlineAllocator@$0CA@VNamedAllocator@shdfnd@physx@@@shdfnd@3@@shdfnd@physx@@IAEAAURemovedShape@Scb@3@ABU453@@Z 1009de70 f i NpShapeManager.obj
 0001:0009cfa0       ?onShapeAttach@RigidObject@Scb@physx@@QAEXAAVShape@23@@Z 1009dfa0 f i NpShapeManager.obj
 0001:0009d1a0       ?onShapeDetach@RigidObject@Scb@physx@@QAEXAAVShape@23@_N1@Z 1009e1a0 f i NpShapeManager.obj
 0001:000a0830       ?PxCreateSpatialIndex@physx@@YAPAVPxSpatialIndex@1@XZ 100a1830 f   NpSpatialIndex.obj
 0001:000a08a0       ??0NpSpatialIndex@physx@@QAE@XZ 100a18a0 f   NpSpatialIndex.obj
 0001:000a08c0       ??1NpSpatialIndex@physx@@UAE@XZ 100a18c0 f   NpSpatialIndex.obj
 0001:000a08e0       ?insert@NpSpatialIndex@physx@@UAEIAAVPxSpatialIndexItem@2@ABVPxBounds3@2@@Z 100a18e0 f   NpSpatialIndex.obj
 0001:000a0c10       ?update@NpSpatialIndex@physx@@UAEXIABVPxBounds3@2@@Z 100a1c10 f   NpSpatialIndex.obj
 0001:000a0f60       ?remove@NpSpatialIndex@physx@@UAEXI@Z 100a1f60 f   NpSpatialIndex.obj
 0001:000a0fa0       ?overlap@NpSpatialIndex@physx@@UBEXABVPxBounds3@2@AAUPxSpatialOverlapCallback@2@@Z 100a1fa0 f   NpSpatialIndex.obj
 0001:000a13a0       ?raycast@NpSpatialIndex@physx@@UBEXABVPxVec3@2@0MAAUPxSpatialLocationCallback@2@@Z 100a23a0 f   NpSpatialIndex.obj
 0001:000a1770       ?sweep@NpSpatialIndex@physx@@UBEXABVPxBounds3@2@ABVPxVec3@2@MAAUPxSpatialLocationCallback@2@@Z 100a2770 f   NpSpatialIndex.obj
 0001:000a1e00       ?rebuildFull@NpSpatialIndex@physx@@UAEXXZ 100a2e00 f   NpSpatialIndex.obj
 0001:000a1e40       ?setIncrementalRebuildRate@NpSpatialIndex@physx@@UAEXI@Z 100a2e40 f   NpSpatialIndex.obj
 0001:000a1e50       ?rebuildStep@NpSpatialIndex@physx@@UAEXXZ 100a2e50 f   NpSpatialIndex.obj
 0001:000a1e90       ?release@NpSpatialIndex@physx@@UAEXXZ 100a2e90 f   NpSpatialIndex.obj
 0001:000a1ea0       ?flushUpdates@NpSpatialIndex@physx@@ABEXXZ 100a2ea0 f   NpSpatialIndex.obj
 0001:000a2460       ??1PxSpatialIndex@physx@@MAE@XZ 100a3460 f i NpSpatialIndex.obj
 0001:000a2470       ??_GLocationCallback@?A0xe9611022@@UAEPAXI@Z 100a3470 f i NpSpatialIndex.obj
 0001:000a2470       ??_ELocationCallback@?A0xe9611022@@UAEPAXI@Z 100a3470 f i NpSpatialIndex.obj
 0001:000a24a0       ??_GNpSpatialIndex@physx@@UAEPAXI@Z 100a34a0 f i NpSpatialIndex.obj
 0001:000a24a0       ??_ENpSpatialIndex@physx@@UAEPAXI@Z 100a34a0 f i NpSpatialIndex.obj
 0001:000a2510       ??_GOverlapCallback@?A0xe9611022@@UAEPAXI@Z 100a3510 f i NpSpatialIndex.obj
 0001:000a2510       ??_EOverlapCallback@?A0xe9611022@@UAEPAXI@Z 100a3510 f i NpSpatialIndex.obj
 0001:000a2540       ??_EPxSpatialIndex@physx@@MAEPAXI@Z 100a3540 f i NpSpatialIndex.obj
 0001:000a2540       ??_GPxSpatialIndex@physx@@MAEPAXI@Z 100a3540 f i NpSpatialIndex.obj
 0001:000a2570       ?flush@NpSpatialIndex@physx@@UAEXXZ 100a3570 f i NpSpatialIndex.obj
 0001:000a2660       ??0NpVolumeCache@physx@@QAE@PAVSceneQueryManager@Sq@1@II@Z 100a3660 f   NpVolumeCache.obj
 0001:000a2710       ??1NpVolumeCache@physx@@UAE@XZ 100a3710 f   NpVolumeCache.obj
 0001:000a2770       ?isValid@NpVolumeCache@physx@@UBE_NXZ 100a3770 f   NpVolumeCache.obj
 0001:000a27a0       ?isValid@NpVolumeCache@physx@@QBE_NI@Z 100a37a0 f   NpVolumeCache.obj
 0001:000a27e0       ?fill@NpVolumeCache@physx@@UAE?AW4FillStatus@PxVolumeCache@2@ABVPxGeometry@2@ABVPxTransform@2@@Z 100a37e0 f   NpVolumeCache.obj
 0001:000a28d0       ?fillInternal@NpVolumeCache@physx@@QAE?AW4FillStatus@PxVolumeCache@2@IPBUPxOverlapHit@2@H@Z 100a38d0 f   NpVolumeCache.obj
 0001:000a2b60       ?getCacheVolume@NpVolumeCache@physx@@UAE_NAAVPxGeometryHolder@2@AAVPxTransform@2@@Z 100a3b60 f   NpVolumeCache.obj
 0001:000a2bd0       ?getNbCachedShapes@NpVolumeCache@physx@@UAEHXZ 100a3bd0 f   NpVolumeCache.obj
 0001:000a2bf0       ?invalidate@NpVolumeCache@physx@@UAEXXZ 100a3bf0 f   NpVolumeCache.obj
 0001:000a2c10       ?release@NpVolumeCache@physx@@UAEXXZ 100a3c10 f   NpVolumeCache.obj
 0001:000a2c20       ?forEach@NpVolumeCache@physx@@UAEXAAUIterator@PxVolumeCache@2@@Z 100a3c20 f   NpVolumeCache.obj
 0001:000a2db0       ?setMaxNbStaticShapes@NpVolumeCache@physx@@UAEXI@Z 100a3db0 f   NpVolumeCache.obj
 0001:000a2df0       ?getMaxNbStaticShapes@NpVolumeCache@physx@@UAEIXZ 100a3df0 f   NpVolumeCache.obj
 0001:000a2e00       ?setMaxNbDynamicShapes@NpVolumeCache@physx@@UAEXI@Z 100a3e00 f   NpVolumeCache.obj
 0001:000a2e40       ?getMaxNbDynamicShapes@NpVolumeCache@physx@@UAEIXZ 100a3e40 f   NpVolumeCache.obj
 0001:000a2e50       ?raycast@NpVolumeCache@physx@@UBE_NABVPxVec3@2@0MAAU?$PxHitCallback@UPxRaycastHit@physx@@@2@V?$PxFlags@W4Enum@PxHitFlag@physx@@G@2@ABUPxQueryFilterData@2@PAVPxQueryFilterCallback@2@@Z 100a3e50 f   NpVolumeCache.obj
 0001:000a2ee0       ?sweep@NpVolumeCache@physx@@UBE_NABVPxGeometry@2@ABVPxTransform@2@ABVPxVec3@2@MAAU?$PxHitCallback@UPxSweepHit@physx@@@2@V?$PxFlags@W4Enum@PxHitFlag@physx@@G@2@ABUPxQueryFilterData@2@PAVPxQueryFilterCallback@2@M@Z 100a3ee0 f   NpVolumeCache.obj
 0001:000a2f70       ?overlap@NpVolumeCache@physx@@UBE_NABVPxGeometry@2@ABVPxTransform@2@AAU?$PxHitCallback@UPxOverlapHit@physx@@@2@ABUPxQueryFilterData@2@PAVPxQueryFilterCallback@2@@Z 100a3f70 f   NpVolumeCache.obj
 0001:000a2ff0       ?onOriginShift@NpVolumeCache@physx@@QAEXABVPxVec3@2@@Z 100a3ff0 f   NpVolumeCache.obj
 0001:000a3430       ??$multiQuery@UPxOverlapHit@physx@@@NpVolumeCache@physx@@QBE_NABUMultiQueryInput@1@AAU?$PxHitCallback@UPxOverlapHit@physx@@@1@V?$PxFlags@W4Enum@PxHitFlag@physx@@G@1@ABUPxQueryFilterData@1@PAVPxQueryFilterCallback@1@M@Z 100a4430 f i NpVolumeCache.obj
 0001:000a3b70       ??$multiQuery@UPxRaycastHit@physx@@@NpVolumeCache@physx@@QBE_NABUMultiQueryInput@1@AAU?$PxHitCallback@UPxRaycastHit@physx@@@1@V?$PxFlags@W4Enum@PxHitFlag@physx@@G@1@ABUPxQueryFilterData@1@PAVPxQueryFilterCallback@1@M@Z 100a4b70 f i NpVolumeCache.obj
 0001:000a47d0       ??$multiQuery@UPxSweepHit@physx@@@NpVolumeCache@physx@@QBE_NABUMultiQueryInput@1@AAU?$PxHitCallback@UPxSweepHit@physx@@@1@V?$PxFlags@W4Enum@PxHitFlag@physx@@G@1@ABUPxQueryFilterData@1@PAVPxQueryFilterCallback@1@M@Z 100a57d0 f i NpVolumeCache.obj
 0001:000a5480       ??1?$Array@UPxActorShape@physx@@VNamedAllocator@shdfnd@2@@shdfnd@physx@@QAE@XZ 100a6480 f i NpVolumeCache.obj
 0001:000a54b0       ??1PxVolumeCache@physx@@MAE@XZ 100a64b0 f i NpVolumeCache.obj
 0001:000a54c0       ??_F?$Array@UPxActorShape@physx@@VNamedAllocator@shdfnd@2@@shdfnd@physx@@QAEXXZ 100a64c0 f i NpVolumeCache.obj
 0001:000a5510       ??_GNpVolumeCache@physx@@UAEPAXI@Z 100a6510 f i NpVolumeCache.obj
 0001:000a5510       ??_ENpVolumeCache@physx@@UAEPAXI@Z 100a6510 f i NpVolumeCache.obj
 0001:000a5570       ??_ENpVolumeCacheSqCallback@physx@@UAEPAXI@Z 100a6570 f i NpVolumeCache.obj
 0001:000a5570       ??_GNpVolumeCacheSqCallback@physx@@UAEPAXI@Z 100a6570 f i NpVolumeCache.obj
 0001:000a55a0       ??_GPxVolumeCache@physx@@MAEPAXI@Z 100a65a0 f i NpVolumeCache.obj
 0001:000a55a0       ??_EPxVolumeCache@physx@@MAEPAXI@Z 100a65a0 f i NpVolumeCache.obj
 0001:000a55d0       ?doQuery@?$SceneQueryAny@UPxSweepHit@physx@@@physx@@SA_NPAVPxScene@2@ABUMultiQueryInput@2@AAU?$PxHitCallback@UPxSweepHit@physx@@@2@V?$PxFlags@W4Enum@PxHitFlag@physx@@G@2@ABUPxQueryFilterData@2@PAVPxQueryFilterCallback@2@@Z 100a65d0 f i NpVolumeCache.obj
 0001:000a56f0       ?growAndPushBack@?$Array@UPxActorShape@physx@@VNamedAllocator@shdfnd@2@@shdfnd@physx@@IAEAAUPxActorShape@3@ABU43@@Z 100a66f0 f i NpVolumeCache.obj
 0001:000a57f0       ?processTouches@NpVolumeCacheSqCallback@physx@@UAE_NPBUPxOverlapHit@2@I@Z 100a67f0 f i NpVolumeCache.obj
 0001:000a5880       ?recreate@?$Array@UPxActorShape@physx@@VNamedAllocator@shdfnd@2@@shdfnd@physx@@IAEXI@Z 100a6880 f i NpVolumeCache.obj
 0001:000a5940       ?resize@?$Array@UPxActorShape@physx@@VNamedAllocator@shdfnd@2@@shdfnd@physx@@QAEXIABUPxActorShape@3@@Z 100a6940 f i NpVolumeCache.obj
 0001:000a59b0       ??0NpWriteCheck@physx@@QAE@PAVNpScene@1@PBD_N@Z 100a69b0 f   NpWriteCheck.obj
 0001:000a5a60       ??1NpWriteCheck@physx@@QAE@XZ 100a6a60 f   NpWriteCheck.obj
 0001:000a5b20       ??0PvdMetaDataBinding@Vd@physx@@QAE@XZ 100a6b20 f   PvdMetaDataPvdBinding.obj
 0001:000a5b90       ??1PvdMetaDataBinding@Vd@physx@@QAE@XZ 100a6b90 f   PvdMetaDataPvdBinding.obj
 0001:000a5c60       ?registerSDKProperties@PvdMetaDataBinding@Vd@physx@@QAEXAAVPvdDataStream@pvdsdk@3@@Z 100a6c60 f   PvdMetaDataPvdBinding.obj
 0001:000a8180       ?sendAllProperties@PvdMetaDataBinding@Vd@physx@@QAEXAAVPvdDataStream@pvdsdk@3@ABVPxPhysics@3@@Z 100a9180 f   PvdMetaDataPvdBinding.obj
 0001:000a82c0       ?sendAllProperties@PvdMetaDataBinding@Vd@physx@@QAEXAAVPvdDataStream@pvdsdk@3@ABVPxScene@3@@Z 100a92c0 f   PvdMetaDataPvdBinding.obj
 0001:000a8550       ?sendBeginFrame@PvdMetaDataBinding@Vd@physx@@QAEXAAVPvdDataStream@pvdsdk@3@PBVPxScene@3@M@Z 100a9550 f   PvdMetaDataPvdBinding.obj
 0001:000a85e0       ?sendContacts@PvdMetaDataBinding@Vd@physx@@QAEXAAVPvdDataStream@pvdsdk@3@ABVPxScene@3@AAV?$Array@UContact@Sc@physx@@VNamedAllocator@shdfnd@3@@shdfnd@3@@Z 100a95e0 f   PvdMetaDataPvdBinding.obj
 0001:000a86a0       ?sendContacts@PvdMetaDataBinding@Vd@physx@@QAEXAAVPvdDataStream@pvdsdk@3@ABVPxScene@3@@Z 100a96a0 f   PvdMetaDataPvdBinding.obj
 0001:000a86e0       ?sendSceneQueries@PvdMetaDataBinding@Vd@physx@@QAEXAAVPvdDataStream@pvdsdk@3@ABVPxScene@3@PAVPsPvd@53@@Z 100a96e0 f   PvdMetaDataPvdBinding.obj
 0001:000a8a30       ?sendStats@PvdMetaDataBinding@Vd@physx@@QAEXAAVPvdDataStream@pvdsdk@3@PBVPxScene@3@PAX@Z 100a9a30 f   PvdMetaDataPvdBinding.obj
 0001:000a8ac0       ?sendEndFrame@PvdMetaDataBinding@Vd@physx@@QAEXAAVPvdDataStream@pvdsdk@3@PBVPxScene@3@@Z 100a9ac0 f   PvdMetaDataPvdBinding.obj
 0001:000a8ae0       ?createInstance@PvdMetaDataBinding@Vd@physx@@QAEXAAVPvdDataStream@pvdsdk@3@ABVPxMaterial@3@ABVPxPhysics@3@@Z 100a9ae0 f   PvdMetaDataPvdBinding.obj
 0001:000a8b90       ?sendAllProperties@PvdMetaDataBinding@Vd@physx@@QAEXAAVPvdDataStream@pvdsdk@3@ABVPxMaterial@3@@Z 100a9b90 f   PvdMetaDataPvdBinding.obj
 0001:000a8be0       ?destroyInstance@PvdMetaDataBinding@Vd@physx@@QAEXAAVPvdDataStream@pvdsdk@3@ABVPxMaterial@3@ABVPxPhysics@3@@Z 100a9be0 f   PvdMetaDataPvdBinding.obj
 0001:000a8c10       ?createInstance@PvdMetaDataBinding@Vd@physx@@QAEXAAVPvdDataStream@pvdsdk@3@ABVPxHeightField@3@ABVPxPhysics@3@@Z 100a9c10 f   PvdMetaDataPvdBinding.obj
 0001:000a8c90       ?sendAllProperties@PvdMetaDataBinding@Vd@physx@@QAEXAAVPvdDataStream@pvdsdk@3@ABVPxHeightField@3@@Z 100a9c90 f   PvdMetaDataPvdBinding.obj
 0001:000a8de0       ?destroyInstance@PvdMetaDataBinding@Vd@physx@@QAEXAAVPvdDataStream@pvdsdk@3@ABVPxHeightField@3@ABVPxPhysics@3@@Z 100a9de0 f   PvdMetaDataPvdBinding.obj
 0001:000a8e10       ?createInstance@PvdMetaDataBinding@Vd@physx@@QAEXAAVPvdDataStream@pvdsdk@3@ABVPxConvexMesh@3@ABVPxPhysics@3@@Z 100a9e10 f   PvdMetaDataPvdBinding.obj
 0001:000a9060       ?destroyInstance@PvdMetaDataBinding@Vd@physx@@QAEXAAVPvdDataStream@pvdsdk@3@ABVPxConvexMesh@3@ABVPxPhysics@3@@Z 100aa060 f   PvdMetaDataPvdBinding.obj
 0001:000a9090       ?createInstance@PvdMetaDataBinding@Vd@physx@@QAEXAAVPvdDataStream@pvdsdk@3@ABVPxTriangleMesh@3@ABVPxPhysics@3@@Z 100aa090 f   PvdMetaDataPvdBinding.obj
 0001:000a9290       ?destroyInstance@PvdMetaDataBinding@Vd@physx@@QAEXAAVPvdDataStream@pvdsdk@3@ABVPxTriangleMesh@3@ABVPxPhysics@3@@Z 100aa290 f   PvdMetaDataPvdBinding.obj
 0001:000a92c0       ?createInstance@PvdMetaDataBinding@Vd@physx@@QAEXAAVPvdDataStream@pvdsdk@3@ABVPxRigidStatic@3@ABVPxScene@3@ABVPxPhysics@3@PAVPsPvd@53@@Z 100aa2c0 f   PvdMetaDataPvdBinding.obj
 0001:000a9380       ?sendAllProperties@PvdMetaDataBinding@Vd@physx@@QAEXAAVPvdDataStream@pvdsdk@3@ABVPxRigidStatic@3@@Z 100aa380 f   PvdMetaDataPvdBinding.obj
 0001:000a93d0       ?destroyInstance@PvdMetaDataBinding@Vd@physx@@QAEXAAVPvdDataStream@pvdsdk@3@ABVPxRigidStatic@3@ABVPxScene@3@@Z 100aa3d0 f   PvdMetaDataPvdBinding.obj
 0001:000a9410       ?createInstance@PvdMetaDataBinding@Vd@physx@@QAEXAAVPvdDataStream@pvdsdk@3@ABVPxRigidDynamic@3@ABVPxScene@3@ABVPxPhysics@3@PAVPsPvd@53@@Z 100aa410 f   PvdMetaDataPvdBinding.obj
 0001:000a94e0       ?sendAllProperties@PvdMetaDataBinding@Vd@physx@@QAEXAAVPvdDataStream@pvdsdk@3@ABVPxRigidDynamic@3@@Z 100aa4e0 f   PvdMetaDataPvdBinding.obj
 0001:000a9530       ?destroyInstance@PvdMetaDataBinding@Vd@physx@@QAEXAAVPvdDataStream@pvdsdk@3@ABVPxRigidDynamic@3@ABVPxScene@3@@Z 100aa530 f   PvdMetaDataPvdBinding.obj
 0001:000a9570       ?createInstance@PvdMetaDataBinding@Vd@physx@@QAEXAAVPvdDataStream@pvdsdk@3@ABVPxArticulation@3@ABVPxScene@3@ABVPxPhysics@3@PAVPsPvd@53@@Z 100aa570 f   PvdMetaDataPvdBinding.obj
 0001:000a97b0       ?sendAllProperties@PvdMetaDataBinding@Vd@physx@@QAEXAAVPvdDataStream@pvdsdk@3@ABVPxArticulation@3@@Z 100aa7b0 f   PvdMetaDataPvdBinding.obj
 0001:000a9800       ?destroyInstance@PvdMetaDataBinding@Vd@physx@@QAEXAAVPvdDataStream@pvdsdk@3@ABVPxArticulation@3@ABVPxScene@3@@Z 100aa800 f   PvdMetaDataPvdBinding.obj
 0001:000a9830       ?createInstance@PvdMetaDataBinding@Vd@physx@@QAEXAAVPvdDataStream@pvdsdk@3@ABVPxArticulationLink@3@ABVPxPhysics@3@PAVPsPvd@53@@Z 100aa830 f   PvdMetaDataPvdBinding.obj
 0001:000a9980       ?sendAllProperties@PvdMetaDataBinding@Vd@physx@@QAEXAAVPvdDataStream@pvdsdk@3@ABVPxArticulationLink@3@@Z 100aa980 f   PvdMetaDataPvdBinding.obj
 0001:000a99d0       ?destroyInstance@PvdMetaDataBinding@Vd@physx@@QAEXAAVPvdDataStream@pvdsdk@3@ABVPxArticulationLink@3@@Z 100aa9d0 f   PvdMetaDataPvdBinding.obj
 0001:000a9a10       ?createInstance@PvdMetaDataBinding@Vd@physx@@QAEXAAVPvdDataStream@pvdsdk@3@ABVPxShape@3@ABVPxRigidActor@3@ABVPxPhysics@3@PAVPsPvd@53@@Z 100aaa10 f   PvdMetaDataPvdBinding.obj
 0001:000a9cc0       ?sendAllProperties@PvdMetaDataBinding@Vd@physx@@QAEXAAVPvdDataStream@pvdsdk@3@ABVPxShape@3@@Z 100aacc0 f   PvdMetaDataPvdBinding.obj
 0001:000a9d10       ?releaseAndRecreateGeometry@PvdMetaDataBinding@Vd@physx@@QAEXAAVPvdDataStream@pvdsdk@3@ABVPxShape@3@AAVPxPhysics@3@PAVPsPvd@53@@Z 100aad10 f   PvdMetaDataPvdBinding.obj
 0001:000a9e10       ?updateMaterials@PvdMetaDataBinding@Vd@physx@@QAEXAAVPvdDataStream@pvdsdk@3@ABVPxShape@3@PAVPsPvd@53@@Z 100aae10 f   PvdMetaDataPvdBinding.obj
 0001:000a9e70       ?destroyInstance@PvdMetaDataBinding@Vd@physx@@QAEXAAVPvdDataStream@pvdsdk@3@ABVPxShape@3@ABVPxRigidActor@3@@Z 100aae70 f   PvdMetaDataPvdBinding.obj
 0001:000aa020       ?sendAllProperties@PvdMetaDataBinding@Vd@physx@@QAEXAAVPvdDataStream@pvdsdk@3@ABVPxArticulationJoint@3@@Z 100ab020 f   PvdMetaDataPvdBinding.obj
 0001:000aa070       ?updateDynamicActorsAndArticulations@PvdMetaDataBinding@Vd@physx@@QAEXAAVPvdDataStream@pvdsdk@3@PBVPxScene@3@PAVPvdVisualizer@23@@Z 100ab070 f   PvdMetaDataPvdBinding.obj
 0001:000aa270       ?originShift@PvdMetaDataBinding@Vd@physx@@QAEXAAVPvdDataStream@pvdsdk@3@PBVPxScene@3@VPxVec3@3@@Z 100ab270 f   PvdMetaDataPvdBinding.obj
 0001:000aa2b0       ?createInstance@PvdMetaDataBinding@Vd@physx@@QAEXAAVPvdDataStream@pvdsdk@3@ABVPxParticleSystem@3@ABVPxScene@3@@Z 100ab2b0 f   PvdMetaDataPvdBinding.obj
 0001:000aa3a0       ?sendAllProperties@PvdMetaDataBinding@Vd@physx@@QAEXAAVPvdDataStream@pvdsdk@3@ABVPxParticleSystem@3@@Z 100ab3a0 f   PvdMetaDataPvdBinding.obj
 0001:000aa3f0       ?sendArrays@PvdMetaDataBinding@Vd@physx@@QAEXAAVPvdDataStream@pvdsdk@3@ABVPxParticleSystem@3@AAVPxParticleReadData@3@I@Z 100ab3f0 f   PvdMetaDataPvdBinding.obj
 0001:000aa4f0       ?destroyInstance@PvdMetaDataBinding@Vd@physx@@QAEXAAVPvdDataStream@pvdsdk@3@ABVPxParticleSystem@3@ABVPxScene@3@@Z 100ab4f0 f   PvdMetaDataPvdBinding.obj
 0001:000aa520       ?createInstance@PvdMetaDataBinding@Vd@physx@@QAEXAAVPvdDataStream@pvdsdk@3@ABVPxParticleFluid@3@ABVPxScene@3@@Z 100ab520 f   PvdMetaDataPvdBinding.obj
 0001:000aa610       ?sendAllProperties@PvdMetaDataBinding@Vd@physx@@QAEXAAVPvdDataStream@pvdsdk@3@ABVPxParticleFluid@3@@Z 100ab610 f   PvdMetaDataPvdBinding.obj
 0001:000aa660       ?sendArrays@PvdMetaDataBinding@Vd@physx@@QAEXAAVPvdDataStream@pvdsdk@3@ABVPxParticleFluid@3@AAVPxParticleFluidReadData@3@I@Z 100ab660 f   PvdMetaDataPvdBinding.obj
 0001:000aa7a0       ?destroyInstance@PvdMetaDataBinding@Vd@physx@@QAEXAAVPvdDataStream@pvdsdk@3@ABVPxParticleFluid@3@ABVPxScene@3@@Z 100ab7a0 f   PvdMetaDataPvdBinding.obj
 0001:000aa7d0       ?createInstance@PvdMetaDataBinding@Vd@physx@@QAEXAAVPvdDataStream@pvdsdk@3@ABVPxClothFabric@3@ABVPxPhysics@3@@Z 100ab7d0 f   PvdMetaDataPvdBinding.obj
 0001:000aa860       ?sendAllProperties@PvdMetaDataBinding@Vd@physx@@QAEXAAVPvdDataStream@pvdsdk@3@ABVPxClothFabric@3@@Z 100ab860 f   PvdMetaDataPvdBinding.obj
 0001:000aa950       ?destroyInstance@PvdMetaDataBinding@Vd@physx@@QAEXAAVPvdDataStream@pvdsdk@3@ABVPxClothFabric@3@ABVPxPhysics@3@@Z 100ab950 f   PvdMetaDataPvdBinding.obj
 0001:000aa980       ?createInstance@PvdMetaDataBinding@Vd@physx@@QAEXAAVPvdDataStream@pvdsdk@3@ABVPxCloth@3@ABVPxScene@3@ABVPxPhysics@3@PAVPsPvd@53@@Z 100ab980 f   PvdMetaDataPvdBinding.obj
 0001:000aaa70       ?sendAllProperties@PvdMetaDataBinding@Vd@physx@@QAEXAAVPvdDataStream@pvdsdk@3@ABVPxCloth@3@@Z 100aba70 f   PvdMetaDataPvdBinding.obj
 0001:000aab20       ?sendSimpleProperties@PvdMetaDataBinding@Vd@physx@@QAEXAAVPvdDataStream@pvdsdk@3@ABVPxCloth@3@@Z 100abb20 f   PvdMetaDataPvdBinding.obj
 0001:000aab70       ?sendMotionConstraints@PvdMetaDataBinding@Vd@physx@@QAEXAAVPvdDataStream@pvdsdk@3@ABVPxCloth@3@@Z 100abb70 f   PvdMetaDataPvdBinding.obj
 0001:000aac00       ?sendCollisionSpheres@PvdMetaDataBinding@Vd@physx@@QAEXAAVPvdDataStream@pvdsdk@3@ABVPxCloth@3@_N@Z 100abc00 f   PvdMetaDataPvdBinding.obj
 0001:000aad30       ?sendCollisionTriangles@PvdMetaDataBinding@Vd@physx@@QAEXAAVPvdDataStream@pvdsdk@3@ABVPxCloth@3@@Z 100abd30 f   PvdMetaDataPvdBinding.obj
 0001:000aaeb0       ?sendVirtualParticles@PvdMetaDataBinding@Vd@physx@@QAEXAAVPvdDataStream@pvdsdk@3@ABVPxCloth@3@@Z 100abeb0 f   PvdMetaDataPvdBinding.obj
 0001:000aaf90       ?sendSeparationConstraints@PvdMetaDataBinding@Vd@physx@@QAEXAAVPvdDataStream@pvdsdk@3@ABVPxCloth@3@@Z 100abf90 f   PvdMetaDataPvdBinding.obj
 0001:000ab010       ?sendRestPositions@PvdMetaDataBinding@Vd@physx@@QAEXAAVPvdDataStream@pvdsdk@3@ABVPxCloth@3@@Z 100ac010 f   PvdMetaDataPvdBinding.obj
 0001:000ab0a0       ?sendSelfCollisionIndices@PvdMetaDataBinding@Vd@physx@@QAEXAAVPvdDataStream@pvdsdk@3@ABVPxCloth@3@@Z 100ac0a0 f   PvdMetaDataPvdBinding.obj
 0001:000ab130       ?sendParticleAccelerations@PvdMetaDataBinding@Vd@physx@@QAEXAAVPvdDataStream@pvdsdk@3@ABVPxCloth@3@@Z 100ac130 f   PvdMetaDataPvdBinding.obj
 0001:000ab1c0       ?updateCloths@PvdMetaDataBinding@Vd@physx@@QAEXAAVPvdDataStream@pvdsdk@3@ABVPxScene@3@@Z 100ac1c0 f   PvdMetaDataPvdBinding.obj
 0001:000ab330       ?destroyInstance@PvdMetaDataBinding@Vd@physx@@QAEXAAVPvdDataStream@pvdsdk@3@ABVPxCloth@3@ABVPxScene@3@@Z 100ac330 f   PvdMetaDataPvdBinding.obj
 0001:000ab380       ?createInstance@PvdMetaDataBinding@Vd@physx@@QAEXAAVPvdDataStream@pvdsdk@3@ABVPxAggregate@3@ABVPxScene@3@@Z 100ac380 f   PvdMetaDataPvdBinding.obj
 0001:000ab430       ?sendAllProperties@PvdMetaDataBinding@Vd@physx@@QAEXAAVPvdDataStream@pvdsdk@3@ABVPxAggregate@3@@Z 100ac430 f   PvdMetaDataPvdBinding.obj
 0001:000ab480       ?destroyInstance@PvdMetaDataBinding@Vd@physx@@QAEXAAVPvdDataStream@pvdsdk@3@ABVPxAggregate@3@ABVPxScene@3@@Z 100ac480 f   PvdMetaDataPvdBinding.obj
 0001:000ab4b0       ?detachAggregateActor@PvdMetaDataBinding@Vd@physx@@QAEXAAVPvdDataStream@pvdsdk@3@ABVPxAggregate@3@ABVPxActor@3@@Z 100ac4b0 f   PvdMetaDataPvdBinding.obj
 0001:000ab4d0       ?attachAggregateActor@PvdMetaDataBinding@Vd@physx@@QAEXAAVPvdDataStream@pvdsdk@3@ABVPxAggregate@3@ABVPxActor@3@@Z 100ac4d0 f   PvdMetaDataPvdBinding.obj
 0001:000ab4f0       ??$registrarPhysicsObject@VPxConvexMeshGeometry@physx@@@PvdMetaDataBinding@Vd@physx@@QAEXAAVPvdDataStream@pvdsdk@2@ABVPxConvexMeshGeometry@2@PAVPsPvd@42@@Z 100ac4f0 f   PvdMetaDataPvdBinding.obj
 0001:000ab530       ??$registrarPhysicsObject@VPxTriangleMeshGeometry@physx@@@PvdMetaDataBinding@Vd@physx@@QAEXAAVPvdDataStream@pvdsdk@2@ABVPxTriangleMeshGeometry@2@PAVPsPvd@42@@Z 100ac530 f   PvdMetaDataPvdBinding.obj
 0001:000ab570       ??$registrarPhysicsObject@VPxHeightFieldGeometry@physx@@@PvdMetaDataBinding@Vd@physx@@QAEXAAVPvdDataStream@pvdsdk@2@ABVPxHeightFieldGeometry@2@PAVPsPvd@42@@Z 100ac570 f   PvdMetaDataPvdBinding.obj
 0001:000ab5b0       ??RConvexMeshBuilder@Vd@physx@@QAEXIM@Z 100ac5b0 f   PvdMetaDataPvdBinding.obj
 0001:000ad770       ??$?R$0BFI@VPxSceneDesc@physx@@VPxSceneLimits@1@@?$PvdPropertyFilter@UPvdClassInfoDefine@Vd@physx@@@Vd@physx@@QAEXABU?$PxReadOnlyPropertyInfo@$0BFI@VPxSceneDesc@physx@@VPxSceneLimits@2@@2@I@Z 100ae770 f i PvdMetaDataPvdBinding.obj
 0001:000ad800       ??$?R$0BGI@VPxSceneDesc@physx@@I@?$PvdPropertyFilter@UPvdClassInfoValueStructDefine@Vd@physx@@@Vd@physx@@QAEXABU?$PxReadOnlyPropertyInfo@$0BGI@VPxSceneDesc@physx@@I@2@I@Z 100ae800 f i PvdMetaDataPvdBinding.obj
 0001:000ad880       ??$?R$0BGJ@VPxSceneDesc@physx@@M@?$PvdPropertyFilter@UPvdClassInfoValueStructDefine@Vd@physx@@@Vd@physx@@QAEXABU?$PxReadOnlyPropertyInfo@$0BGJ@VPxSceneDesc@physx@@M@2@I@Z 100ae880 f i PvdMetaDataPvdBinding.obj
 0001:000ad900       ??$?R$0BGK@VPxSceneDesc@physx@@I@?$PvdPropertyFilter@UPvdClassInfoValueStructDefine@Vd@physx@@@Vd@physx@@QAEXABU?$PxReadOnlyPropertyInfo@$0BGK@VPxSceneDesc@physx@@I@2@I@Z 100ae900 f i PvdMetaDataPvdBinding.obj
 0001:000ad980       ??$?R$0BGL@VPxSceneDesc@physx@@I@?$PvdPropertyFilter@UPvdClassInfoValueStructDefine@Vd@physx@@@Vd@physx@@QAEXABU?$PxReadOnlyPropertyInfo@$0BGL@VPxSceneDesc@physx@@I@2@I@Z 100ae980 f i PvdMetaDataPvdBinding.obj
 0001:000ada00       ??$?R$0BGM@VPxSceneDesc@physx@@M@?$PvdPropertyFilter@UPvdClassInfoValueStructDefine@Vd@physx@@@Vd@physx@@QAEXABU?$PxReadOnlyPropertyInfo@$0BGM@VPxSceneDesc@physx@@M@2@I@Z 100aea00 f i PvdMetaDataPvdBinding.obj
 0001:000ada80       ??$?R$0BGN@VPxSceneDesc@physx@@VPxBounds3@1@@?$PvdPropertyFilter@UPvdClassInfoValueStructDefine@Vd@physx@@@Vd@physx@@QAEXABU?$PxReadOnlyPropertyInfo@$0BGN@VPxSceneDesc@physx@@VPxBounds3@2@@2@I@Z 100aea80 f i PvdMetaDataPvdBinding.obj
 0001:000adb00       ??$?R$0BGO@VPxSceneDesc@physx@@UPxgDynamicsMemoryConfig@1@@?$PvdPropertyFilter@UPvdClassInfoDefine@Vd@physx@@@Vd@physx@@QAEXABU?$PxReadOnlyPropertyInfo@$0BGO@VPxSceneDesc@physx@@UPxgDynamicsMemoryConfig@2@@2@I@Z 100aeb00 f i PvdMetaDataPvdBinding.obj
 0001:000adb90       ??$?R$0BGP@VPxSceneDesc@physx@@I@?$PvdPropertyFilter@UPvdClassInfoValueStructDefine@Vd@physx@@@Vd@physx@@QAEXABU?$PxReadOnlyPropertyInfo@$0BGP@VPxSceneDesc@physx@@I@2@I@Z 100aeb90 f i PvdMetaDataPvdBinding.obj
 0001:000adc10       ??$?R$0BHA@VPxSceneDesc@physx@@I@?$PvdPropertyFilter@UPvdClassInfoValueStructDefine@Vd@physx@@@Vd@physx@@QAEXABU?$PxReadOnlyPropertyInfo@$0BHA@VPxSceneDesc@physx@@I@2@I@Z 100aec10 f i PvdMetaDataPvdBinding.obj
 0001:000adc90       ??$?R$0DL@VPxRigidDynamic@physx@@I@?$PvdPropertyFilter@UPvdClassInfoDefine@Vd@physx@@@Vd@physx@@QAEXABU?$PxRangePropertyInfo@$0DL@VPxRigidDynamic@physx@@I@2@I@Z 100aec90 f i PvdMetaDataPvdBinding.obj
 0001:000add90       ??$?R$0DL@VPxRigidDynamic@physx@@I@?$PvdPropertyFilter@UPvdClassInfoValueStructDefine@Vd@physx@@@Vd@physx@@QAEXABU?$PxRangePropertyInfo@$0DL@VPxRigidDynamic@physx@@I@2@I@Z 100aed90 f i PvdMetaDataPvdBinding.obj
 0001:000ade90       ??$?R$0FB@VPxArticulationJoint@physx@@M@?$PvdPropertyFilter@UPvdClassInfoDefine@Vd@physx@@@Vd@physx@@QAEXABU?$PxRangePropertyInfo@$0FB@VPxArticulationJoint@physx@@M@2@I@Z 100aee90 f i PvdMetaDataPvdBinding.obj
 0001:000adf90       ??$?R$0FB@VPxArticulationJoint@physx@@M@?$PvdPropertyFilter@UPvdClassInfoValueStructDefine@Vd@physx@@@Vd@physx@@QAEXABU?$PxRangePropertyInfo@$0FB@VPxArticulationJoint@physx@@M@2@I@Z 100aef90 f i PvdMetaDataPvdBinding.obj
 0001:000ae090       ??$?R$0FG@VPxArticulationJoint@physx@@M@?$PvdPropertyFilter@UPvdClassInfoDefine@Vd@physx@@@Vd@physx@@QAEXABU?$PxRangePropertyInfo@$0FG@VPxArticulationJoint@physx@@M@2@I@Z 100af090 f i PvdMetaDataPvdBinding.obj
 0001:000ae190       ??$?R$0FG@VPxArticulationJoint@physx@@M@?$PvdPropertyFilter@UPvdClassInfoValueStructDefine@Vd@physx@@@Vd@physx@@QAEXABU?$PxRangePropertyInfo@$0FG@VPxArticulationJoint@physx@@M@2@I@Z 100af190 f i PvdMetaDataPvdBinding.obj
 0001:000ae290       ??$?R$0GB@VPxArticulation@physx@@I@?$PvdPropertyFilter@UPvdClassInfoDefine@Vd@physx@@@Vd@physx@@QAEXABU?$PxRangePropertyInfo@$0GB@VPxArticulation@physx@@I@2@I@Z 100af290 f i PvdMetaDataPvdBinding.obj
 0001:000ae390       ??$?R$0GB@VPxArticulation@physx@@I@?$PvdPropertyFilter@UPvdClassInfoValueStructDefine@Vd@physx@@@Vd@physx@@QAEXABU?$PxRangePropertyInfo@$0GB@VPxArticulation@physx@@I@2@I@Z 100af390 f i PvdMetaDataPvdBinding.obj
 0001:000ae490       ??$?R$0HE@VPxConstraint@physx@@PAVPxRigidActor@1@@?$PvdPropertyFilter@UPvdClassInfoDefine@Vd@physx@@@Vd@physx@@QAEXABU?$PxRangePropertyInfo@$0HE@VPxConstraint@physx@@PAVPxRigidActor@2@@2@I@Z 100af490 f i PvdMetaDataPvdBinding.obj
 0001:000ae590       ??$?R$0HE@VPxConstraint@physx@@PAVPxRigidActor@1@@?$PvdPropertyFilter@UPvdClassInfoValueStructDefine@Vd@physx@@@Vd@physx@@QAEXABU?$PxRangePropertyInfo@$0HE@VPxConstraint@physx@@PAVPxRigidActor@2@@2@I@Z 100af590 f i PvdMetaDataPvdBinding.obj
 0001:000ae690       ??$?R$0HH@VPxConstraint@physx@@M@?$PvdPropertyFilter@UPvdClassInfoDefine@Vd@physx@@@Vd@physx@@QAEXABU?$PxRangePropertyInfo@$0HH@VPxConstraint@physx@@M@2@I@Z 100af690 f i PvdMetaDataPvdBinding.obj
 0001:000ae790       ??$?R$0HH@VPxConstraint@physx@@M@?$PvdPropertyFilter@UPvdClassInfoValueStructDefine@Vd@physx@@@Vd@physx@@QAEXABU?$PxRangePropertyInfo@$0HH@VPxConstraint@physx@@M@2@I@Z 100af790 f i PvdMetaDataPvdBinding.obj
 0001:000ae890       ??$?R$0KP@VPxCloth@physx@@M@?$PvdPropertyFilter@UPvdClassInfoValueStructDefine@Vd@physx@@@Vd@physx@@QAEXABU?$PxReadOnlyPropertyInfo@$0KP@VPxCloth@physx@@M@2@I@Z 100af890 f i PvdMetaDataPvdBinding.obj
 0001:000ae910       ??$?R$0LA@VPxCloth@physx@@M@?$PvdPropertyFilter@UPvdClassInfoValueStructDefine@Vd@physx@@@Vd@physx@@QAEXABU?$PxReadOnlyPropertyInfo@$0LA@VPxCloth@physx@@M@2@I@Z 100af910 f i PvdMetaDataPvdBinding.obj
 0001:000ae990       ??$?R$0LB@VPxCloth@physx@@M@?$PvdPropertyFilter@UPvdClassInfoValueStructDefine@Vd@physx@@@Vd@physx@@QAEXABU?$PxReadOnlyPropertyInfo@$0LB@VPxCloth@physx@@M@2@I@Z 100af990 f i PvdMetaDataPvdBinding.obj
 0001:000aea10       ??$?R$0LC@VPxCloth@physx@@M@?$PvdPropertyFilter@UPvdClassInfoValueStructDefine@Vd@physx@@@Vd@physx@@QAEXABU?$PxReadOnlyPropertyInfo@$0LC@VPxCloth@physx@@M@2@I@Z 100afa10 f i PvdMetaDataPvdBinding.obj
 0001:000aea90       ??$?R$0LD@VPxCloth@physx@@_N@?$PvdPropertyFilter@UPvdClassInfoDefine@Vd@physx@@@Vd@physx@@QAEXABU?$PxReadOnlyPropertyInfo@$0LD@VPxCloth@physx@@_N@2@I@Z 100afa90 f i PvdMetaDataPvdBinding.obj
 0001:000aeb10       ??$?R$0LD@VPxCloth@physx@@_N@?$PvdPropertyFilter@UPvdClassInfoValueStructDefine@Vd@physx@@@Vd@physx@@QAEXABU?$PxReadOnlyPropertyInfo@$0LD@VPxCloth@physx@@_N@2@I@Z 100afb10 f i PvdMetaDataPvdBinding.obj
 0001:000aeb90       ??$?R$0LE@VPxCloth@physx@@PBD@?$PvdPropertyFilter@UPvdClassInfoDefine@Vd@physx@@@Vd@physx@@QAEXABU?$PxReadOnlyPropertyInfo@$0LE@VPxCloth@physx@@PBD@2@I@Z 100afb90 f i PvdMetaDataPvdBinding.obj
 0001:000aec10       ??$?R$0LE@VPxCloth@physx@@PBD@?$PvdPropertyFilter@UPvdClassInfoValueStructDefine@Vd@physx@@@Vd@physx@@QAEXABU?$PxReadOnlyPropertyInfo@$0LE@VPxCloth@physx@@PBD@2@I@Z 100afc10 f i PvdMetaDataPvdBinding.obj
 0001:000b0000       ??$createProperty@UPvdHullPolygonData@Vd@physx@@G@PvdMetaDataStream@pvdsdk@physx@@QAE?AW4Enum@PvdErrorType@12@PBD0W43PropertyType@12@V?$DataRef@UNamedValue@pvdsdk@physx@@@12@@Z 100b1000 f i PvdMetaDataPvdBinding.obj
 0001:000b0070       ??$createProperty@UPvdOverlap@Vd@physx@@I@PvdMetaDataStream@pvdsdk@physx@@QAE?AW4Enum@PvdErrorType@12@PBD0W43PropertyType@12@V?$DataRef@UNamedValue@pvdsdk@physx@@@12@@Z 100b1070 f i PvdMetaDataPvdBinding.obj
 0001:000b00e0       ??$createProperty@UPvdPositionAndRadius@Vd@physx@@M@PvdMetaDataStream@pvdsdk@physx@@QAE?AW4Enum@PvdErrorType@12@PBD0W43PropertyType@12@V?$DataRef@UNamedValue@pvdsdk@physx@@@12@@Z 100b10e0 f i PvdMetaDataPvdBinding.obj
 0001:000b0150       ??$createProperty@UPvdPositionAndRadius@Vd@physx@@VPxVec3@3@@PvdMetaDataStream@pvdsdk@physx@@QAE?AW4Enum@PvdErrorType@12@PBD0W43PropertyType@12@V?$DataRef@UNamedValue@pvdsdk@physx@@@12@@Z 100b1150 f i PvdMetaDataPvdBinding.obj
 0001:000b01c0       ??$createProperty@UPxHeightFieldSample@physx@@E@PvdMetaDataStream@pvdsdk@physx@@QAE?AW4Enum@PvdErrorType@12@PBD0W43PropertyType@12@V?$DataRef@UNamedValue@pvdsdk@physx@@@12@@Z 100b11c0 f i PvdMetaDataPvdBinding.obj
 0001:000b0230       ??$createProperty@UPxHeightFieldSample@physx@@G@PvdMetaDataStream@pvdsdk@physx@@QAE?AW4Enum@PvdErrorType@12@PBD0W43PropertyType@12@V?$DataRef@UNamedValue@pvdsdk@physx@@@12@@Z 100b1230 f i PvdMetaDataPvdBinding.obj
 0001:000b02a0       ??$createProperty@VPxActor@physx@@UObjectRef@pvdsdk@2@@PvdMetaDataStream@pvdsdk@physx@@QAE?AW4Enum@PvdErrorType@12@PBD0W43PropertyType@12@V?$DataRef@UNamedValue@pvdsdk@physx@@@12@@Z 100b12a0 f i PvdMetaDataPvdBinding.obj
 0001:000b0310       ??$createProperty@VPxAggregate@physx@@UObjectRef@pvdsdk@2@@PvdMetaDataStream@pvdsdk@physx@@QAE?AW4Enum@PvdErrorType@12@PBD0W43PropertyType@12@V?$DataRef@UNamedValue@pvdsdk@physx@@@12@@Z 100b1310 f i PvdMetaDataPvdBinding.obj
 0001:000b0380       ??$createProperty@VPxArticulation@physx@@UObjectRef@pvdsdk@2@@PvdMetaDataStream@pvdsdk@physx@@QAE?AW4Enum@PvdErrorType@12@PBD0W43PropertyType@12@V?$DataRef@UNamedValue@pvdsdk@physx@@@12@@Z 100b1380 f i PvdMetaDataPvdBinding.obj
 0001:000b03f0       ??$createProperty@VPxArticulationJoint@physx@@UObjectRef@pvdsdk@2@@PvdMetaDataStream@pvdsdk@physx@@QAE?AW4Enum@PvdErrorType@12@PBD0W43PropertyType@12@V?$DataRef@UNamedValue@pvdsdk@physx@@@12@@Z 100b13f0 f i PvdMetaDataPvdBinding.obj
 0001:000b0460       ??$createProperty@VPxArticulationLink@physx@@UObjectRef@pvdsdk@2@@PvdMetaDataStream@pvdsdk@physx@@QAE?AW4Enum@PvdErrorType@12@PBD0W43PropertyType@12@V?$DataRef@UNamedValue@pvdsdk@physx@@@12@@Z 100b1460 f i PvdMetaDataPvdBinding.obj
 0001:000b04d0       ??$createProperty@VPxCloth@physx@@I@PvdMetaDataStream@pvdsdk@physx@@QAE?AW4Enum@PvdErrorType@12@PBD0W43PropertyType@12@V?$DataRef@UNamedValue@pvdsdk@physx@@@12@@Z 100b14d0 f i PvdMetaDataPvdBinding.obj
 0001:000b0540       ??$createProperty@VPxCloth@physx@@UObjectRef@pvdsdk@2@@PvdMetaDataStream@pvdsdk@physx@@QAE?AW4Enum@PvdErrorType@12@PBD0W43PropertyType@12@V?$DataRef@UNamedValue@pvdsdk@physx@@@12@@Z 100b1540 f i PvdMetaDataPvdBinding.obj
 0001:000b05b0       ??$createProperty@VPxCloth@physx@@UPvdPositionAndRadius@Vd@2@@PvdMetaDataStream@pvdsdk@physx@@QAE?AW4Enum@PvdErrorType@12@PBD0W43PropertyType@12@V?$DataRef@UNamedValue@pvdsdk@physx@@@12@@Z 100b15b0 f i PvdMetaDataPvdBinding.obj
 0001:000b0620       ??$createProperty@VPxCloth@physx@@UPxClothParticle@2@@PvdMetaDataStream@pvdsdk@physx@@QAE?AW4Enum@PvdErrorType@12@PBD0W43PropertyType@12@V?$DataRef@UNamedValue@pvdsdk@physx@@@12@@Z 100b1620 f i PvdMetaDataPvdBinding.obj
 0001:000b0690       ??$createProperty@VPxCloth@physx@@VPxVec3@2@@PvdMetaDataStream@pvdsdk@physx@@QAE?AW4Enum@PvdErrorType@12@PBD0W43PropertyType@12@V?$DataRef@UNamedValue@pvdsdk@physx@@@12@@Z 100b1690 f i PvdMetaDataPvdBinding.obj
 0001:000b0700       ??$createProperty@VPxCloth@physx@@VPxVec4@2@@PvdMetaDataStream@pvdsdk@physx@@QAE?AW4Enum@PvdErrorType@12@PBD0W43PropertyType@12@V?$DataRef@UNamedValue@pvdsdk@physx@@@12@@Z 100b1700 f i PvdMetaDataPvdBinding.obj
 0001:000b0770       ??$createProperty@VPxClothFabric@physx@@UObjectRef@pvdsdk@2@@PvdMetaDataStream@pvdsdk@physx@@QAE?AW4Enum@PvdErrorType@12@PBD0W43PropertyType@12@V?$DataRef@UNamedValue@pvdsdk@physx@@@12@@Z 100b1770 f i PvdMetaDataPvdBinding.obj
 0001:000b07e0       ??$createProperty@VPxClothFabric@physx@@UPxClothFabricPhase@2@@PvdMetaDataStream@pvdsdk@physx@@QAE?AW4Enum@PvdErrorType@12@PBD0W43PropertyType@12@V?$DataRef@UNamedValue@pvdsdk@physx@@@12@@Z 100b17e0 f i PvdMetaDataPvdBinding.obj
 0001:000b0850       ??$createProperty@VPxConvexMesh@physx@@E@PvdMetaDataStream@pvdsdk@physx@@QAE?AW4Enum@PvdErrorType@12@PBD0W43PropertyType@12@V?$DataRef@UNamedValue@pvdsdk@physx@@@12@@Z 100b1850 f i PvdMetaDataPvdBinding.obj
 0001:000b08c0       ??$createProperty@VPxConvexMesh@physx@@M@PvdMetaDataStream@pvdsdk@physx@@QAE?AW4Enum@PvdErrorType@12@PBD0W43PropertyType@12@V?$DataRef@UNamedValue@pvdsdk@physx@@@12@@Z 100b18c0 f i PvdMetaDataPvdBinding.obj
 0001:000b0930       ??$createProperty@VPxConvexMesh@physx@@UObjectRef@pvdsdk@2@@PvdMetaDataStream@pvdsdk@physx@@QAE?AW4Enum@PvdErrorType@12@PBD0W43PropertyType@12@V?$DataRef@UNamedValue@pvdsdk@physx@@@12@@Z 100b1930 f i PvdMetaDataPvdBinding.obj
 0001:000b09a0       ??$createProperty@VPxConvexMesh@physx@@UPvdHullPolygonData@Vd@2@@PvdMetaDataStream@pvdsdk@physx@@QAE?AW4Enum@PvdErrorType@12@PBD0W43PropertyType@12@V?$DataRef@UNamedValue@pvdsdk@physx@@@12@@Z 100b19a0 f i PvdMetaDataPvdBinding.obj
 0001:000b0a10       ??$createProperty@VPxConvexMesh@physx@@VPxMat33@2@@PvdMetaDataStream@pvdsdk@physx@@QAE?AW4Enum@PvdErrorType@12@PBD0W43PropertyType@12@V?$DataRef@UNamedValue@pvdsdk@physx@@@12@@Z 100b1a10 f i PvdMetaDataPvdBinding.obj
 0001:000b0a80       ??$createProperty@VPxConvexMesh@physx@@VPxVec3@2@@PvdMetaDataStream@pvdsdk@physx@@QAE?AW4Enum@PvdErrorType@12@PBD0W43PropertyType@12@V?$DataRef@UNamedValue@pvdsdk@physx@@@12@@Z 100b1a80 f i PvdMetaDataPvdBinding.obj
 0001:000b0af0       ??$createProperty@VPxHeightField@physx@@UObjectRef@pvdsdk@2@@PvdMetaDataStream@pvdsdk@physx@@QAE?AW4Enum@PvdErrorType@12@PBD0W43PropertyType@12@V?$DataRef@UNamedValue@pvdsdk@physx@@@12@@Z 100b1af0 f i PvdMetaDataPvdBinding.obj
 0001:000b0b60       ??$createProperty@VPxHeightField@physx@@UPxHeightFieldSample@2@@PvdMetaDataStream@pvdsdk@physx@@QAE?AW4Enum@PvdErrorType@12@PBD0W43PropertyType@12@V?$DataRef@UNamedValue@pvdsdk@physx@@@12@@Z 100b1b60 f i PvdMetaDataPvdBinding.obj
 0001:000b0bd0       ??$createProperty@VPxMaterial@physx@@UObjectRef@pvdsdk@2@@PvdMetaDataStream@pvdsdk@physx@@QAE?AW4Enum@PvdErrorType@12@PBD0W43PropertyType@12@V?$DataRef@UNamedValue@pvdsdk@physx@@@12@@Z 100b1bd0 f i PvdMetaDataPvdBinding.obj
 0001:000b0c40       ??$createProperty@VPxParticleFluid@physx@@I@PvdMetaDataStream@pvdsdk@physx@@QAE?AW4Enum@PvdErrorType@12@PBD0W43PropertyType@12@V?$DataRef@UNamedValue@pvdsdk@physx@@@12@@Z 100b1c40 f i PvdMetaDataPvdBinding.obj
 0001:000b0cb0       ??$createProperty@VPxParticleSystem@physx@@I@PvdMetaDataStream@pvdsdk@physx@@QAE?AW4Enum@PvdErrorType@12@PBD0W43PropertyType@12@V?$DataRef@UNamedValue@pvdsdk@physx@@@12@@Z 100b1cb0 f i PvdMetaDataPvdBinding.obj
 0001:000b0d20       ??$createProperty@VPxRigidActor@physx@@UObjectRef@pvdsdk@2@@PvdMetaDataStream@pvdsdk@physx@@QAE?AW4Enum@PvdErrorType@12@PBD0W43PropertyType@12@V?$DataRef@UNamedValue@pvdsdk@physx@@@12@@Z 100b1d20 f i PvdMetaDataPvdBinding.obj
 0001:000b0d90       ??$createProperty@VPxRigidDynamic@physx@@VPxTransform@2@@PvdMetaDataStream@pvdsdk@physx@@QAE?AW4Enum@PvdErrorType@12@PBD0W43PropertyType@12@V?$DataRef@UNamedValue@pvdsdk@physx@@@12@@Z 100b1d90 f i PvdMetaDataPvdBinding.obj
 0001:000b0e00       ??$createProperty@VPxScene@physx@@I@PvdMetaDataStream@pvdsdk@physx@@QAE?AW4Enum@PvdErrorType@12@PBD0W43PropertyType@12@V?$DataRef@UNamedValue@pvdsdk@physx@@@12@@Z 100b1e00 f i PvdMetaDataPvdBinding.obj
 0001:000b0e70       ??$createProperty@VPxScene@physx@@M@PvdMetaDataStream@pvdsdk@physx@@QAE?AW4Enum@PvdErrorType@12@PBD0W43PropertyType@12@V?$DataRef@UNamedValue@pvdsdk@physx@@@12@@Z 100b1e70 f i PvdMetaDataPvdBinding.obj
 0001:000b0ee0       ??$createProperty@VPxScene@physx@@UObjectRef@pvdsdk@2@@PvdMetaDataStream@pvdsdk@physx@@QAE?AW4Enum@PvdErrorType@12@PBD0W43PropertyType@12@V?$DataRef@UNamedValue@pvdsdk@physx@@@12@@Z 100b1ee0 f i PvdMetaDataPvdBinding.obj
 0001:000b0f50       ??$createProperty@VPxScene@physx@@UPvdContact@Vd@2@@PvdMetaDataStream@pvdsdk@physx@@QAE?AW4Enum@PvdErrorType@12@PBD0W43PropertyType@12@V?$DataRef@UNamedValue@pvdsdk@physx@@@12@@Z 100b1f50 f i PvdMetaDataPvdBinding.obj
 0001:000b0fc0       ??$createProperty@VPxScene@physx@@UPvdOverlap@Vd@2@@PvdMetaDataStream@pvdsdk@physx@@QAE?AW4Enum@PvdErrorType@12@PBD0W43PropertyType@12@V?$DataRef@UNamedValue@pvdsdk@physx@@@12@@Z 100b1fc0 f i PvdMetaDataPvdBinding.obj
 0001:000b1030       ??$createProperty@VPxScene@physx@@UPvdRaycast@Vd@2@@PvdMetaDataStream@pvdsdk@physx@@QAE?AW4Enum@PvdErrorType@12@PBD0W43PropertyType@12@V?$DataRef@UNamedValue@pvdsdk@physx@@@12@@Z 100b2030 f i PvdMetaDataPvdBinding.obj
 0001:000b10a0       ??$createProperty@VPxScene@physx@@UPvdSqHit@Vd@2@@PvdMetaDataStream@pvdsdk@physx@@QAE?AW4Enum@PvdErrorType@12@PBD0W43PropertyType@12@V?$DataRef@UNamedValue@pvdsdk@physx@@@12@@Z 100b20a0 f i PvdMetaDataPvdBinding.obj
 0001:000b1110       ??$createProperty@VPxScene@physx@@UPvdSweep@Vd@2@@PvdMetaDataStream@pvdsdk@physx@@QAE?AW4Enum@PvdErrorType@12@PBD0W43PropertyType@12@V?$DataRef@UNamedValue@pvdsdk@physx@@@12@@Z 100b2110 f i PvdMetaDataPvdBinding.obj
 0001:000b1180       ??$createProperty@VPxScene@physx@@UPxFilterData@2@@PvdMetaDataStream@pvdsdk@physx@@QAE?AW4Enum@PvdErrorType@12@PBD0W43PropertyType@12@V?$DataRef@UNamedValue@pvdsdk@physx@@@12@@Z 100b2180 f i PvdMetaDataPvdBinding.obj
 0001:000b11f0       ??$createProperty@VPxScene@physx@@VPxTransform@2@@PvdMetaDataStream@pvdsdk@physx@@QAE?AW4Enum@PvdErrorType@12@PBD0W43PropertyType@12@V?$DataRef@UNamedValue@pvdsdk@physx@@@12@@Z 100b21f0 f i PvdMetaDataPvdBinding.obj
 0001:000b1260       ??$createProperty@VPxShape@physx@@UObjectRef@pvdsdk@2@@PvdMetaDataStream@pvdsdk@physx@@QAE?AW4Enum@PvdErrorType@12@PBD0W43PropertyType@12@V?$DataRef@UNamedValue@pvdsdk@physx@@@12@@Z 100b2260 f i PvdMetaDataPvdBinding.obj
 0001:000b12d0       ??$createProperty@VPxTriangleMesh@physx@@G@PvdMetaDataStream@pvdsdk@physx@@QAE?AW4Enum@PvdErrorType@12@PBD0W43PropertyType@12@V?$DataRef@UNamedValue@pvdsdk@physx@@@12@@Z 100b22d0 f i PvdMetaDataPvdBinding.obj
 0001:000b1340       ??$createProperty@VPxTriangleMesh@physx@@I@PvdMetaDataStream@pvdsdk@physx@@QAE?AW4Enum@PvdErrorType@12@PBD0W43PropertyType@12@V?$DataRef@UNamedValue@pvdsdk@physx@@@12@@Z 100b2340 f i PvdMetaDataPvdBinding.obj
 0001:000b13b0       ??$createProperty@VPxTriangleMesh@physx@@UObjectRef@pvdsdk@2@@PvdMetaDataStream@pvdsdk@physx@@QAE?AW4Enum@PvdErrorType@12@PBD0W43PropertyType@12@V?$DataRef@UNamedValue@pvdsdk@physx@@@12@@Z 100b23b0 f i PvdMetaDataPvdBinding.obj
 0001:000b1420       ??$createProperty@VPxTriangleMesh@physx@@VPxVec3@2@@PvdMetaDataStream@pvdsdk@physx@@QAE?AW4Enum@PvdErrorType@12@PBD0W43PropertyType@12@V?$DataRef@UNamedValue@pvdsdk@physx@@@12@@Z 100b2420 f i PvdMetaDataPvdBinding.obj
 0001:000b2b30       ??$dualIndexedProperty@$0BIJ@VPxSimulationStatistics@physx@@W4Enum@PxGeometryType@2@W4342@I@?$PvdPropertyFilter@UPvdClassInfoDefine@Vd@physx@@@Vd@physx@@QAEXIABU?$PxDualIndexedPropertyInfo@$0BIJ@VPxSimulationStatistics@physx@@W4Enum@PxGeometryType@2@W4342@I@2@PBUPxU32ToName@2@1@Z 100b3b30 f i PvdMetaDataPvdBinding.obj
 0001:000b2c50       ??$dualIndexedProperty@$0BIJ@VPxSimulationStatistics@physx@@W4Enum@PxGeometryType@2@W4342@I@?$PvdPropertyFilter@UPvdClassInfoValueStructDefine@Vd@physx@@@Vd@physx@@QAEXIABU?$PxDualIndexedPropertyInfo@$0BIJ@VPxSimulationStatistics@physx@@W4Enum@PxGeometryType@2@W4342@I@2@PBUPxU32ToName@2@1@Z 100b3c50 f i PvdMetaDataPvdBinding.obj
 0001:000b2d70       ??$dualIndexedProperty@$0BIK@VPxSimulationStatistics@physx@@W4Enum@PxGeometryType@2@W4342@I@?$PvdPropertyFilter@UPvdClassInfoDefine@Vd@physx@@@Vd@physx@@QAEXIABU?$PxDualIndexedPropertyInfo@$0BIK@VPxSimulationStatistics@physx@@W4Enum@PxGeometryType@2@W4342@I@2@PBUPxU32ToName@2@1@Z 100b3d70 f i PvdMetaDataPvdBinding.obj
 0001:000b2e90       ??$dualIndexedProperty@$0BIK@VPxSimulationStatistics@physx@@W4Enum@PxGeometryType@2@W4342@I@?$PvdPropertyFilter@UPvdClassInfoValueStructDefine@Vd@physx@@@Vd@physx@@QAEXIABU?$PxDualIndexedPropertyInfo@$0BIK@VPxSimulationStatistics@physx@@W4Enum@PxGeometryType@2@W4342@I@2@PBUPxU32ToName@2@1@Z 100b3e90 f i PvdMetaDataPvdBinding.obj
 0001:000b2fc0       ??$dualIndexedProperty@$0BIL@VPxSimulationStatistics@physx@@W4Enum@PxGeometryType@2@W4342@I@?$PvdPropertyFilter@UPvdClassInfoDefine@Vd@physx@@@Vd@physx@@QAEXIABU?$PxDualIndexedPropertyInfo@$0BIL@VPxSimulationStatistics@physx@@W4Enum@PxGeometryType@2@W4342@I@2@PBUPxU32ToName@2@1@Z 100b3fc0 f i PvdMetaDataPvdBinding.obj
 0001:000b30e0       ??$dualIndexedProperty@$0BIL@VPxSimulationStatistics@physx@@W4Enum@PxGeometryType@2@W4342@I@?$PvdPropertyFilter@UPvdClassInfoValueStructDefine@Vd@physx@@@Vd@physx@@QAEXIABU?$PxDualIndexedPropertyInfo@$0BIL@VPxSimulationStatistics@physx@@W4Enum@PxGeometryType@2@W4342@I@2@PBUPxU32ToName@2@1@Z 100b40e0 f i PvdMetaDataPvdBinding.obj
 0001:000b3210       ??$dualIndexedProperty@$0BIM@VPxSimulationStatistics@physx@@W4Enum@PxGeometryType@2@W4342@I@?$PvdPropertyFilter@UPvdClassInfoDefine@Vd@physx@@@Vd@physx@@QAEXIABU?$PxDualIndexedPropertyInfo@$0BIM@VPxSimulationStatistics@physx@@W4Enum@PxGeometryType@2@W4342@I@2@PBUPxU32ToName@2@1@Z 100b4210 f i PvdMetaDataPvdBinding.obj
 0001:000b3330       ??$dualIndexedProperty@$0BIM@VPxSimulationStatistics@physx@@W4Enum@PxGeometryType@2@W4342@I@?$PvdPropertyFilter@UPvdClassInfoValueStructDefine@Vd@physx@@@Vd@physx@@QAEXIABU?$PxDualIndexedPropertyInfo@$0BIM@VPxSimulationStatistics@physx@@W4Enum@PxGeometryType@2@W4342@I@2@PBUPxU32ToName@2@1@Z 100b4330 f i PvdMetaDataPvdBinding.obj
 0001:000b3460       ??$handleAccessor@$0BA@U?$PxPvdReadOnlyPropertyAccessor@$0BA@VPxMaterial@physx@@V?$PxFlags@W4Enum@PxMaterialFlag@physx@@G@2@@Vd@physx@@@?$PvdPropertyFilter@UPvdClassInfoDefine@Vd@physx@@@Vd@physx@@QAEXIABU?$PxPvdReadOnlyPropertyAccessor@$0BA@VPxMaterial@physx@@V?$PxFlags@W4Enum@PxMaterialFlag@physx@@G@2@@12@@Z 100b4460 f i PvdMetaDataPvdBinding.obj
 0001:000b34e0       ??$handleAccessor@$0BAB@U?$PxPvdReadOnlyPropertyAccessor@$0BAB@VPxHeightFieldDesc@physx@@W4Enum@PxHeightFieldFormat@2@@Vd@physx@@@?$PvdPropertyFilter@UPvdClassInfoDefine@Vd@physx@@@Vd@physx@@QAEXIABU?$PxPvdReadOnlyPropertyAccessor@$0BAB@VPxHeightFieldDesc@physx@@W4Enum@PxHeightFieldFormat@2@@12@@Z 100b44e0 f i PvdMetaDataPvdBinding.obj
 0001:000b3560       ??$handleAccessor@$0BAF@U?$PxPvdReadOnlyPropertyAccessor@$0BAF@VPxHeightFieldDesc@physx@@V?$PxFlags@W4Enum@PxHeightFieldFlag@physx@@G@2@@Vd@physx@@@?$PvdPropertyFilter@UPvdClassInfoDefine@Vd@physx@@@Vd@physx@@QAEXIABU?$PxPvdReadOnlyPropertyAccessor@$0BAF@VPxHeightFieldDesc@physx@@V?$PxFlags@W4Enum@PxHeightFieldFlag@physx@@G@2@@12@@Z 100b4560 f i PvdMetaDataPvdBinding.obj
 0001:000b35e0       ??$handleAccessor@$0BB@U?$PxPvdReadOnlyPropertyAccessor@$0BB@VPxMaterial@physx@@W4Enum@PxCombineMode@2@@Vd@physx@@@?$PvdPropertyFilter@UPvdClassInfoDefine@Vd@physx@@@Vd@physx@@QAEXIABU?$PxPvdReadOnlyPropertyAccessor@$0BB@VPxMaterial@physx@@W4Enum@PxCombineMode@2@@12@@Z 100b45e0 f i PvdMetaDataPvdBinding.obj
 0001:000b3660       ??$handleAccessor@$0BC@U?$PxPvdReadOnlyPropertyAccessor@$0BC@VPxMaterial@physx@@W4Enum@PxCombineMode@2@@Vd@physx@@@?$PvdPropertyFilter@UPvdClassInfoDefine@Vd@physx@@@Vd@physx@@QAEXIABU?$PxPvdReadOnlyPropertyAccessor@$0BC@VPxMaterial@physx@@W4Enum@PxCombineMode@2@@12@@Z 100b4660 f i PvdMetaDataPvdBinding.obj
 0001:000b36e0       ??$handleAccessor@$0BDE@U?$PxPvdReadOnlyPropertyAccessor@$0BDE@UPxClothFabricPhase@physx@@W4Enum@PxClothFabricPhaseType@2@@Vd@physx@@@?$PvdPropertyFilter@UPvdClassInfoDefine@Vd@physx@@@Vd@physx@@QAEXIABU?$PxPvdReadOnlyPropertyAccessor@$0BDE@UPxClothFabricPhase@physx@@W4Enum@PxClothFabricPhaseType@2@@12@@Z 100b46e0 f i PvdMetaDataPvdBinding.obj
 0001:000b3760       ??$handleAccessor@$0BFG@U?$PxPvdReadOnlyPropertyAccessor@$0BFG@VPxSceneDesc@physx@@W4Enum@PxBroadPhaseType@2@@Vd@physx@@@?$PvdPropertyFilter@UPvdClassInfoDefine@Vd@physx@@@Vd@physx@@QAEXIABU?$PxPvdReadOnlyPropertyAccessor@$0BFG@VPxSceneDesc@physx@@W4Enum@PxBroadPhaseType@2@@12@@Z 100b4760 f i PvdMetaDataPvdBinding.obj
 0001:000b37e0       ??$handleAccessor@$0BFI@U?$PxPvdReadOnlyPropertyAccessor@$0BFI@VPxSceneDesc@physx@@VPxSceneLimits@2@@Vd@physx@@@?$PvdPropertyFilter@UPvdClassInfoDefine@Vd@physx@@@Vd@physx@@QAEXIABU?$PxPvdReadOnlyPropertyAccessor@$0BFI@VPxSceneDesc@physx@@VPxSceneLimits@2@@12@@Z 100b47e0 f i PvdMetaDataPvdBinding.obj
 0001:000b3880       ??$handleAccessor@$0BFI@U?$PxPvdReadOnlyPropertyAccessor@$0BFI@VPxSceneDesc@physx@@VPxSceneLimits@2@@Vd@physx@@@?$PvdPropertyFilter@UPvdClassInfoValueStructDefine@Vd@physx@@@Vd@physx@@QAEXABU?$PxPvdReadOnlyPropertyAccessor@$0BFI@VPxSceneDesc@physx@@VPxSceneLimits@2@@12@@Z 100b4880 f i PvdMetaDataPvdBinding.obj
 0001:000b3940       ??$handleAccessor@$0BFJ@U?$PxPvdReadOnlyPropertyAccessor@$0BFJ@VPxSceneDesc@physx@@W4Enum@PxFrictionType@2@@Vd@physx@@@?$PvdPropertyFilter@UPvdClassInfoDefine@Vd@physx@@@Vd@physx@@QAEXIABU?$PxPvdReadOnlyPropertyAccessor@$0BFJ@VPxSceneDesc@physx@@W4Enum@PxFrictionType@2@@12@@Z 100b4940 f i PvdMetaDataPvdBinding.obj
 0001:000b39c0       ??$handleAccessor@$0BFO@U?$PxPvdReadOnlyPropertyAccessor@$0BFO@VPxSceneDesc@physx@@V?$PxFlags@W4Enum@PxSceneFlag@physx@@I@2@@Vd@physx@@@?$PvdPropertyFilter@UPvdClassInfoDefine@Vd@physx@@@Vd@physx@@QAEXIABU?$PxPvdReadOnlyPropertyAccessor@$0BFO@VPxSceneDesc@physx@@V?$PxFlags@W4Enum@PxSceneFlag@physx@@I@2@@12@@Z 100b49c0 f i PvdMetaDataPvdBinding.obj
 0001:000b3a40       ??$handleAccessor@$0BGB@U?$PxPvdReadOnlyPropertyAccessor@$0BGB@VPxSceneDesc@physx@@W4Enum@PxPruningStructureType@2@@Vd@physx@@@?$PvdPropertyFilter@UPvdClassInfoDefine@Vd@physx@@@Vd@physx@@QAEXIABU?$PxPvdReadOnlyPropertyAccessor@$0BGB@VPxSceneDesc@physx@@W4Enum@PxPruningStructureType@2@@12@@Z 100b4a40 f i PvdMetaDataPvdBinding.obj
 0001:000b3ac0       ??$handleAccessor@$0BGC@U?$PxPvdReadOnlyPropertyAccessor@$0BGC@VPxSceneDesc@physx@@W4Enum@PxPruningStructureType@2@@Vd@physx@@@?$PvdPropertyFilter@UPvdClassInfoDefine@Vd@physx@@@Vd@physx@@QAEXIABU?$PxPvdReadOnlyPropertyAccessor@$0BGC@VPxSceneDesc@physx@@W4Enum@PxPruningStructureType@2@@12@@Z 100b4ac0 f i PvdMetaDataPvdBinding.obj
 0001:000b3b40       ??$handleAccessor@$0BGE@U?$PxPvdReadOnlyPropertyAccessor@$0BGE@VPxSceneDesc@physx@@W4Enum@PxSceneQueryUpdateMode@2@@Vd@physx@@@?$PvdPropertyFilter@UPvdClassInfoDefine@Vd@physx@@@Vd@physx@@QAEXIABU?$PxPvdReadOnlyPropertyAccessor@$0BGE@VPxSceneDesc@physx@@W4Enum@PxSceneQueryUpdateMode@2@@12@@Z 100b4b40 f i PvdMetaDataPvdBinding.obj
 0001:000b3bc0       ??$handleAccessor@$0BGO@U?$PxPvdReadOnlyPropertyAccessor@$0BGO@VPxSceneDesc@physx@@UPxgDynamicsMemoryConfig@2@@Vd@physx@@@?$PvdPropertyFilter@UPvdClassInfoDefine@Vd@physx@@@Vd@physx@@QAEXIABU?$PxPvdReadOnlyPropertyAccessor@$0BGO@VPxSceneDesc@physx@@UPxgDynamicsMemoryConfig@2@@12@@Z 100b4bc0 f i PvdMetaDataPvdBinding.obj
 0001:000b3c60       ??$handleAccessor@$0BGO@U?$PxPvdReadOnlyPropertyAccessor@$0BGO@VPxSceneDesc@physx@@UPxgDynamicsMemoryConfig@2@@Vd@physx@@@?$PvdPropertyFilter@UPvdClassInfoValueStructDefine@Vd@physx@@@Vd@physx@@QAEXABU?$PxPvdReadOnlyPropertyAccessor@$0BGO@VPxSceneDesc@physx@@UPxgDynamicsMemoryConfig@2@@12@@Z 100b4c60 f i PvdMetaDataPvdBinding.obj
 0001:000b3d20       ??$handleAccessor@$0BJ@U?$PxPvdReadOnlyPropertyAccessor@$0BJ@VPxActor@physx@@V?$PxFlags@W4Enum@PxActorFlag@physx@@E@2@@Vd@physx@@@?$PvdPropertyFilter@UPvdClassInfoDefine@Vd@physx@@@Vd@physx@@QAEXIABU?$PxPvdReadOnlyPropertyAccessor@$0BJ@VPxActor@physx@@V?$PxFlags@W4Enum@PxActorFlag@physx@@E@2@@12@@Z 100b4d20 f i PvdMetaDataPvdBinding.obj
 0001:000b3da0       ??$handleAccessor@$0BM@U?$PxPvdReadOnlyPropertyAccessor@$0BM@VPxActor@physx@@V?$PxFlags@W4Enum@PxActorClientBehaviorFlag@physx@@E@2@@Vd@physx@@@?$PvdPropertyFilter@UPvdClassInfoDefine@Vd@physx@@@Vd@physx@@QAEXIABU?$PxPvdReadOnlyPropertyAccessor@$0BM@VPxActor@physx@@V?$PxFlags@W4Enum@PxActorClientBehaviorFlag@physx@@E@2@@12@@Z 100b4da0 f i PvdMetaDataPvdBinding.obj
 0001:000b3e20       ??$handleAccessor@$0CN@U?$PxPvdReadOnlyPropertyAccessor@$0CN@VPxRigidBody@physx@@V?$PxFlags@W4Enum@PxRigidBodyFlag@physx@@E@2@@Vd@physx@@@?$PvdPropertyFilter@UPvdClassInfoDefine@Vd@physx@@@Vd@physx@@QAEXIABU?$PxPvdReadOnlyPropertyAccessor@$0CN@VPxRigidBody@physx@@V?$PxFlags@W4Enum@PxRigidBodyFlag@physx@@E@2@@12@@Z 100b4e20 f i PvdMetaDataPvdBinding.obj
 0001:000b3ea0       ??$handleAccessor@$0DJ@U?$PxPvdReadOnlyPropertyAccessor@$0DJ@VPxRigidDynamic@physx@@V?$PxFlags@W4Enum@PxRigidDynamicLockFlag@physx@@G@2@@Vd@physx@@@?$PvdPropertyFilter@UPvdClassInfoDefine@Vd@physx@@@Vd@physx@@QAEXIABU?$PxPvdReadOnlyPropertyAccessor@$0DJ@VPxRigidDynamic@physx@@V?$PxFlags@W4Enum@PxRigidDynamicLockFlag@physx@@G@2@@12@@Z 100b4ea0 f i PvdMetaDataPvdBinding.obj
 0001:000b3f20       ??$handleAccessor@$0EM@U?$PxPvdReadOnlyPropertyAccessor@$0EM@VPxArticulationJoint@physx@@W4Enum@PxArticulationJointDriveType@2@@Vd@physx@@@?$PvdPropertyFilter@UPvdClassInfoDefine@Vd@physx@@@Vd@physx@@QAEXIABU?$PxPvdReadOnlyPropertyAccessor@$0EM@VPxArticulationJoint@physx@@W4Enum@PxArticulationJointDriveType@2@@12@@Z 100b4f20 f i PvdMetaDataPvdBinding.obj
 0001:000b3fa0       ??$handleAccessor@$0HF@U?$PxPvdReadOnlyPropertyAccessor@$0HF@VPxConstraint@physx@@V?$PxFlags@W4Enum@PxConstraintFlag@physx@@G@2@@Vd@physx@@@?$PvdPropertyFilter@UPvdClassInfoDefine@Vd@physx@@@Vd@physx@@QAEXIABU?$PxPvdReadOnlyPropertyAccessor@$0HF@VPxConstraint@physx@@V?$PxFlags@W4Enum@PxConstraintFlag@physx@@G@2@@12@@Z 100b4fa0 f i PvdMetaDataPvdBinding.obj
 0001:000b4020       ??$handleAccessor@$0HM@U?$PxPvdReadOnlyPropertyAccessor@$0HM@VPxShape@physx@@W4Enum@PxGeometryType@2@@Vd@physx@@@?$PvdPropertyFilter@UPvdClassInfoDefine@Vd@physx@@@Vd@physx@@QAEXIABU?$PxPvdReadOnlyPropertyAccessor@$0HM@VPxShape@physx@@W4Enum@PxGeometryType@2@@12@@Z 100b5020 f i PvdMetaDataPvdBinding.obj
 0001:000b40a0       ??$handleAccessor@$0IE@U?$PxPvdReadOnlyPropertyAccessor@$0IE@VPxShape@physx@@V?$PxFlags@W4Enum@PxShapeFlag@physx@@E@2@@Vd@physx@@@?$PvdPropertyFilter@UPvdClassInfoDefine@Vd@physx@@@Vd@physx@@QAEXIABU?$PxPvdReadOnlyPropertyAccessor@$0IE@VPxShape@physx@@V?$PxFlags@W4Enum@PxShapeFlag@physx@@E@2@@12@@Z 100b50a0 f i PvdMetaDataPvdBinding.obj
 0001:000b4120       ??$handleAccessor@$0JF@U?$PxPvdReadOnlyPropertyAccessor@$0JF@VPxCloth@physx@@V?$PxFlags@W4Enum@PxClothFlag@physx@@G@2@@Vd@physx@@@?$PvdPropertyFilter@UPvdClassInfoDefine@Vd@physx@@@Vd@physx@@QAEXIABU?$PxPvdReadOnlyPropertyAccessor@$0JF@VPxCloth@physx@@V?$PxFlags@W4Enum@PxClothFlag@physx@@G@2@@12@@Z 100b5120 f i PvdMetaDataPvdBinding.obj
 0001:000b41a0       ??$handleAccessor@$0KH@U?$PxPvdReadOnlyPropertyAccessor@$0KH@VPxCloth@physx@@UPxClothMotionConstraintConfig@2@@Vd@physx@@@?$PvdPropertyFilter@UPvdClassInfoDefine@Vd@physx@@@Vd@physx@@QAEXABU?$PxPvdReadOnlyPropertyAccessor@$0KH@VPxCloth@physx@@UPxClothMotionConstraintConfig@2@@12@@Z 100b51a0 f i PvdMetaDataPvdBinding.obj
 0001:000b4260       ??$handleAccessor@$0KH@U?$PxPvdReadOnlyPropertyAccessor@$0KH@VPxCloth@physx@@UPxClothMotionConstraintConfig@2@@Vd@physx@@@?$PvdPropertyFilter@UPvdClassInfoValueStructDefine@Vd@physx@@@Vd@physx@@QAEXABU?$PxPvdReadOnlyPropertyAccessor@$0KH@VPxCloth@physx@@UPxClothMotionConstraintConfig@2@@12@@Z 100b5260 f i PvdMetaDataPvdBinding.obj
 0001:000b4310       ??$handleAccessor@$0KJ@U?$PxPvdReadOnlyPropertyAccessor@$0KJ@VPxCloth@physx@@UPxClothTetherConfig@2@@Vd@physx@@@?$PvdPropertyFilter@UPvdClassInfoDefine@Vd@physx@@@Vd@physx@@QAEXABU?$PxPvdReadOnlyPropertyAccessor@$0KJ@VPxCloth@physx@@UPxClothTetherConfig@2@@12@@Z 100b5310 f i PvdMetaDataPvdBinding.obj
 0001:000b43c0       ??$handleAccessor@$0KJ@U?$PxPvdReadOnlyPropertyAccessor@$0KJ@VPxCloth@physx@@UPxClothTetherConfig@2@@Vd@physx@@@?$PvdPropertyFilter@UPvdClassInfoValueStructDefine@Vd@physx@@@Vd@physx@@QAEXABU?$PxPvdReadOnlyPropertyAccessor@$0KJ@VPxCloth@physx@@UPxClothTetherConfig@2@@12@@Z 100b53c0 f i PvdMetaDataPvdBinding.obj
 0001:000b4460       ??$handleAccessor@$0LO@U?$PxPvdReadOnlyPropertyAccessor@$0LO@VPxParticleBase@physx@@V?$PxFlags@W4Enum@PxParticleBaseFlag@physx@@G@2@@Vd@physx@@@?$PvdPropertyFilter@UPvdClassInfoDefine@Vd@physx@@@Vd@physx@@QAEXIABU?$PxPvdReadOnlyPropertyAccessor@$0LO@VPxParticleBase@physx@@V?$PxFlags@W4Enum@PxParticleBaseFlag@physx@@G@2@@12@@Z 100b5460 f i PvdMetaDataPvdBinding.obj
 0001:000b44e0       ??$handleAccessor@$0ME@U?$PxPvdReadOnlyPropertyAccessor@$0ME@VPxParticleBase@physx@@V?$PxFlags@W4Enum@PxParticleReadDataFlag@physx@@G@2@@Vd@physx@@@?$PvdPropertyFilter@UPvdClassInfoDefine@Vd@physx@@@Vd@physx@@QAEXIABU?$PxPvdReadOnlyPropertyAccessor@$0ME@VPxParticleBase@physx@@V?$PxFlags@W4Enum@PxParticleReadDataFlag@physx@@G@2@@12@@Z 100b54e0 f i PvdMetaDataPvdBinding.obj
 0001:000b4560       ??$handleAccessor@$0OI@U?$PxPvdReadOnlyPropertyAccessor@$0OI@VPxConvexMeshGeometry@physx@@VPxMeshScale@2@@Vd@physx@@@?$PvdPropertyFilter@UPvdClassInfoDefine@Vd@physx@@@Vd@physx@@QAEXABU?$PxPvdReadOnlyPropertyAccessor@$0OI@VPxConvexMeshGeometry@physx@@VPxMeshScale@2@@12@@Z 100b5560 f i PvdMetaDataPvdBinding.obj
 0001:000b4610       ??$handleAccessor@$0OI@U?$PxPvdReadOnlyPropertyAccessor@$0OI@VPxConvexMeshGeometry@physx@@VPxMeshScale@2@@Vd@physx@@@?$PvdPropertyFilter@UPvdClassInfoValueStructDefine@Vd@physx@@@Vd@physx@@QAEXABU?$PxPvdReadOnlyPropertyAccessor@$0OI@VPxConvexMeshGeometry@physx@@VPxMeshScale@2@@12@@Z 100b5610 f i PvdMetaDataPvdBinding.obj
 0001:000b46b0       ??$handleAccessor@$0OL@U?$PxPvdReadOnlyPropertyAccessor@$0OL@VPxConvexMeshGeometry@physx@@V?$PxFlags@W4Enum@PxConvexMeshGeometryFlag@physx@@E@2@@Vd@physx@@@?$PvdPropertyFilter@UPvdClassInfoDefine@Vd@physx@@@Vd@physx@@QAEXIABU?$PxPvdReadOnlyPropertyAccessor@$0OL@VPxConvexMeshGeometry@physx@@V?$PxFlags@W4Enum@PxConvexMeshGeometryFlag@physx@@E@2@@12@@Z 100b56b0 f i PvdMetaDataPvdBinding.obj
 0001:000b4730       ??$handleAccessor@$0PD@U?$PxPvdReadOnlyPropertyAccessor@$0PD@VPxTriangleMeshGeometry@physx@@VPxMeshScale@2@@Vd@physx@@@?$PvdPropertyFilter@UPvdClassInfoDefine@Vd@physx@@@Vd@physx@@QAEXABU?$PxPvdReadOnlyPropertyAccessor@$0PD@VPxTriangleMeshGeometry@physx@@VPxMeshScale@2@@12@@Z 100b5730 f i PvdMetaDataPvdBinding.obj
 0001:000b47e0       ??$handleAccessor@$0PD@U?$PxPvdReadOnlyPropertyAccessor@$0PD@VPxTriangleMeshGeometry@physx@@VPxMeshScale@2@@Vd@physx@@@?$PvdPropertyFilter@UPvdClassInfoValueStructDefine@Vd@physx@@@Vd@physx@@QAEXABU?$PxPvdReadOnlyPropertyAccessor@$0PD@VPxTriangleMeshGeometry@physx@@VPxMeshScale@2@@12@@Z 100b57e0 f i PvdMetaDataPvdBinding.obj
 0001:000b4880       ??$handleAccessor@$0PE@U?$PxPvdReadOnlyPropertyAccessor@$0PE@VPxTriangleMeshGeometry@physx@@V?$PxFlags@W4Enum@PxMeshGeometryFlag@physx@@E@2@@Vd@physx@@@?$PvdPropertyFilter@UPvdClassInfoDefine@Vd@physx@@@Vd@physx@@QAEXIABU?$PxPvdReadOnlyPropertyAccessor@$0PE@VPxTriangleMeshGeometry@physx@@V?$PxFlags@W4Enum@PxMeshGeometryFlag@physx@@E@2@@12@@Z 100b5880 f i PvdMetaDataPvdBinding.obj
 0001:000b4900       ??$handleAccessor@$0PM@U?$PxPvdReadOnlyPropertyAccessor@$0PM@VPxHeightFieldGeometry@physx@@V?$PxFlags@W4Enum@PxMeshGeometryFlag@physx@@E@2@@Vd@physx@@@?$PvdPropertyFilter@UPvdClassInfoDefine@Vd@physx@@@Vd@physx@@QAEXIABU?$PxPvdReadOnlyPropertyAccessor@$0PM@VPxHeightFieldGeometry@physx@@V?$PxFlags@W4Enum@PxMeshGeometryFlag@physx@@E@2@@12@@Z 100b5900 f i PvdMetaDataPvdBinding.obj
 0001:000b4980       ??$handleBuffer@$0GJI@VPxParticleReadData@physx@@VPxVec3@2@$00@?$ParticleFluidUpdater@VPxParticleFluidReadData@physx@@@Vd@physx@@QAEXABU?$PxBufferPropertyInfo@$0GJI@VPxParticleReadData@physx@@V?$PxStrideIterator@$$CBVPxVec3@physx@@@2@$00@12@UNamespacedName@pvdsdk@2@@Z 100b5980 f i PvdMetaDataPvdBinding.obj
 0001:000b4c40       ??$handleBuffer@$0GJI@VPxParticleReadData@physx@@VPxVec3@2@$00@?$ParticleFluidUpdater@VPxParticleReadData@physx@@@Vd@physx@@QAEXABU?$PxBufferPropertyInfo@$0GJI@VPxParticleReadData@physx@@V?$PxStrideIterator@$$CBVPxVec3@physx@@@2@$00@12@UNamespacedName@pvdsdk@2@@Z 100b5c40 f i PvdMetaDataPvdBinding.obj
 0001:000b4f00       ??$handleBuffer@$0GJJ@VPxParticleReadData@physx@@VPxVec3@2@$01@?$ParticleFluidUpdater@VPxParticleFluidReadData@physx@@@Vd@physx@@QAEXABU?$PxBufferPropertyInfo@$0GJJ@VPxParticleReadData@physx@@V?$PxStrideIterator@$$CBVPxVec3@physx@@@2@$01@12@UNamespacedName@pvdsdk@2@@Z 100b5f00 f i PvdMetaDataPvdBinding.obj
 0001:000b51c0       ??$handleBuffer@$0GJJ@VPxParticleReadData@physx@@VPxVec3@2@$01@?$ParticleFluidUpdater@VPxParticleReadData@physx@@@Vd@physx@@QAEXABU?$PxBufferPropertyInfo@$0GJJ@VPxParticleReadData@physx@@V?$PxStrideIterator@$$CBVPxVec3@physx@@@2@$01@12@UNamespacedName@pvdsdk@2@@Z 100b61c0 f i PvdMetaDataPvdBinding.obj
 0001:000b5480       ??$handleBuffer@$0GJK@VPxParticleReadData@physx@@M$03@?$ParticleFluidUpdater@VPxParticleFluidReadData@physx@@@Vd@physx@@QAEXABU?$PxBufferPropertyInfo@$0GJK@VPxParticleReadData@physx@@V?$PxStrideIterator@$$CBM@2@$03@12@UNamespacedName@pvdsdk@2@@Z 100b6480 f i PvdMetaDataPvdBinding.obj
 0001:000b5690       ??$handleBuffer@$0GJK@VPxParticleReadData@physx@@M$03@?$ParticleFluidUpdater@VPxParticleReadData@physx@@@Vd@physx@@QAEXABU?$PxBufferPropertyInfo@$0GJK@VPxParticleReadData@physx@@V?$PxStrideIterator@$$CBM@2@$03@12@UNamespacedName@pvdsdk@2@@Z 100b6690 f i PvdMetaDataPvdBinding.obj
 0001:000b58a0       ??$handleBuffer@$0GJL@VPxParticleReadData@physx@@VPxVec3@2@$0BA@@?$ParticleFluidUpdater@VPxParticleFluidReadData@physx@@@Vd@physx@@QAEXABU?$PxBufferPropertyInfo@$0GJL@VPxParticleReadData@physx@@V?$PxStrideIterator@$$CBVPxVec3@physx@@@2@$0BA@@12@UNamespacedName@pvdsdk@2@@Z 100b68a0 f i PvdMetaDataPvdBinding.obj
 0001:000b5b60       ??$handleBuffer@$0GJL@VPxParticleReadData@physx@@VPxVec3@2@$0BA@@?$ParticleFluidUpdater@VPxParticleReadData@physx@@@Vd@physx@@QAEXABU?$PxBufferPropertyInfo@$0GJL@VPxParticleReadData@physx@@V?$PxStrideIterator@$$CBVPxVec3@physx@@@2@$0BA@@12@UNamespacedName@pvdsdk@2@@Z 100b6b60 f i PvdMetaDataPvdBinding.obj
 0001:000b5e20       ??$handleBuffer@$0GJM@VPxParticleReadData@physx@@V?$PxFlags@W4Enum@PxParticleFlag@physx@@G@2@$07@?$ParticleFluidUpdater@VPxParticleFluidReadData@physx@@@Vd@physx@@QAEXABU?$PxBufferPropertyInfo@$0GJM@VPxParticleReadData@physx@@V?$PxStrideIterator@$$CBV?$PxFlags@W4Enum@PxParticleFlag@physx@@G@physx@@@2@$07@12@UNamespacedName@pvdsdk@2@@Z 100b6e20 f i PvdMetaDataPvdBinding.obj
 0001:000b5fb0       ??$handleBuffer@$0GJM@VPxParticleReadData@physx@@V?$PxFlags@W4Enum@PxParticleFlag@physx@@G@2@$07@?$ParticleFluidUpdater@VPxParticleReadData@physx@@@Vd@physx@@QAEXABU?$PxBufferPropertyInfo@$0GJM@VPxParticleReadData@physx@@V?$PxStrideIterator@$$CBV?$PxFlags@W4Enum@PxParticleFlag@physx@@G@physx@@@2@$07@12@UNamespacedName@pvdsdk@2@@Z 100b6fb0 f i PvdMetaDataPvdBinding.obj
 0001:000b6140       ??$handleBuffer@$0GJN@VPxParticleFluidReadData@physx@@M$0EA@@?$ParticleFluidUpdater@VPxParticleFluidReadData@physx@@@Vd@physx@@QAEXABU?$PxBufferPropertyInfo@$0GJN@VPxParticleFluidReadData@physx@@V?$PxStrideIterator@$$CBM@2@$0EA@@12@UNamespacedName@pvdsdk@2@@Z 100b7140 f i PvdMetaDataPvdBinding.obj
 0001:000b6350       ??$handleCollection@$0IN@VPxClothFabric@physx@@I@PxClothFabricCollectionOperator@Vd@physx@@QAEXABU?$PxReadOnlyCollectionPropertyInfo@$0IN@VPxClothFabric@physx@@I@2@@Z 100b7350 f i PvdMetaDataPvdBinding.obj
 0001:000b63f0       ??$handleCollection@$0IO@VPxClothFabric@physx@@I@PxClothFabricCollectionOperator@Vd@physx@@QAEXABU?$PxReadOnlyCollectionPropertyInfo@$0IO@VPxClothFabric@physx@@I@2@@Z 100b73f0 f i PvdMetaDataPvdBinding.obj
 0001:000b6490       ??$handleCollection@$0IP@VPxClothFabric@physx@@M@PxClothFabricCollectionOperator@Vd@physx@@QAEXABU?$PxReadOnlyCollectionPropertyInfo@$0IP@VPxClothFabric@physx@@M@2@@Z 100b7490 f i PvdMetaDataPvdBinding.obj
 0001:000b6530       ??$handleFlagsBuffer@$0GJM@VPxParticleReadData@physx@@W4Enum@PxParticleFlag@2@G$07@PvdClassInfoDefine@Vd@physx@@QAEXABU?$PxBufferPropertyInfo@$0GJM@VPxParticleReadData@physx@@V?$PxStrideIterator@$$CBV?$PxFlags@W4Enum@PxParticleFlag@physx@@G@physx@@@2@$07@12@PBUPxU32ToName@2@@Z 100b7530 f i PvdMetaDataPvdBinding.obj
 0001:000b65c0       ??$indexedProperty@$0BIN@VPxSimulationStatistics@physx@@W4VolumeType@12@I@?$PvdPropertyFilter@UPvdClassInfoDefine@Vd@physx@@@Vd@physx@@QAEXIABU?$PxIndexedPropertyInfo@$0BIN@VPxSimulationStatistics@physx@@W4VolumeType@12@I@2@PBUPxU32ToName@2@ABUPxUnknownClassInfo@2@@Z 100b75c0 f i PvdMetaDataPvdBinding.obj
 0001:000b6690       ??$indexedProperty@$0BIN@VPxSimulationStatistics@physx@@W4VolumeType@12@I@?$PvdPropertyFilter@UPvdClassInfoValueStructDefine@Vd@physx@@@Vd@physx@@QAEXIABU?$PxIndexedPropertyInfo@$0BIN@VPxSimulationStatistics@physx@@W4VolumeType@12@I@2@PBUPxU32ToName@2@ABUPxUnknownClassInfo@2@@Z 100b7690 f i PvdMetaDataPvdBinding.obj
 0001:000b6760       ??$indexedProperty@$0BIO@VPxSimulationStatistics@physx@@W4VolumeType@12@I@?$PvdPropertyFilter@UPvdClassInfoDefine@Vd@physx@@@Vd@physx@@QAEXIABU?$PxIndexedPropertyInfo@$0BIO@VPxSimulationStatistics@physx@@W4VolumeType@12@I@2@PBUPxU32ToName@2@ABUPxUnknownClassInfo@2@@Z 100b7760 f i PvdMetaDataPvdBinding.obj
 0001:000b6830       ??$indexedProperty@$0BIO@VPxSimulationStatistics@physx@@W4VolumeType@12@I@?$PvdPropertyFilter@UPvdClassInfoValueStructDefine@Vd@physx@@@Vd@physx@@QAEXIABU?$PxIndexedPropertyInfo@$0BIO@VPxSimulationStatistics@physx@@W4VolumeType@12@I@2@PBUPxU32ToName@2@ABUPxUnknownClassInfo@2@@Z 100b7830 f i PvdMetaDataPvdBinding.obj
 0001:000b6900       ??$indexedProperty@$0BIP@VPxSimulationStatistics@physx@@W4Enum@PxGeometryType@2@I@?$PvdPropertyFilter@UPvdClassInfoDefine@Vd@physx@@@Vd@physx@@QAEXIABU?$PxIndexedPropertyInfo@$0BIP@VPxSimulationStatistics@physx@@W4Enum@PxGeometryType@2@I@2@PBUPxU32ToName@2@ABUPxUnknownClassInfo@2@@Z 100b7900 f i PvdMetaDataPvdBinding.obj
 0001:000b69d0       ??$indexedProperty@$0BIP@VPxSimulationStatistics@physx@@W4Enum@PxGeometryType@2@I@?$PvdPropertyFilter@UPvdClassInfoValueStructDefine@Vd@physx@@@Vd@physx@@QAEXIABU?$PxIndexedPropertyInfo@$0BIP@VPxSimulationStatistics@physx@@W4Enum@PxGeometryType@2@I@2@PBUPxU32ToName@2@ABUPxUnknownClassInfo@2@@Z 100b79d0 f i PvdMetaDataPvdBinding.obj
 0001:000b6aa0       ??$indexedProperty@$0KI@VPxCloth@physx@@W4Enum@PxClothFabricPhaseType@2@UPxClothStretchConfig@2@UPxClothStretchConfigGeneratedInfo@2@@?$PvdPropertyFilter@UPvdClassInfoDefine@Vd@physx@@@Vd@physx@@QAEXIABU?$PxIndexedPropertyInfo@$0KI@VPxCloth@physx@@W4Enum@PxClothFabricPhaseType@2@UPxClothStretchConfig@2@@2@PBUPxU32ToName@2@ABUPxClothStretchConfigGeneratedInfo@2@@Z 100b7aa0 f i PvdMetaDataPvdBinding.obj
 0001:000b6b80       ??$indexedProperty@$0KI@VPxCloth@physx@@W4Enum@PxClothFabricPhaseType@2@UPxClothStretchConfig@2@UPxClothStretchConfigGeneratedInfo@2@@?$PvdPropertyFilter@UPvdClassInfoValueStructDefine@Vd@physx@@@Vd@physx@@QAEXIABU?$PxIndexedPropertyInfo@$0KI@VPxCloth@physx@@W4Enum@PxClothFabricPhaseType@2@UPxClothStretchConfig@2@@2@PBUPxU32ToName@2@ABUPxClothStretchConfigGeneratedInfo@2@@Z 100b7b80 f i PvdMetaDataPvdBinding.obj
 0001:000b6c40       ??$registrarPhysicsObject@VPxBoxGeometry@physx@@@PvdMetaDataBinding@Vd@physx@@QAEXAAVPvdDataStream@pvdsdk@2@ABVPxBoxGeometry@2@PAVPsPvd@42@@Z 100b7c40 f i PvdMetaDataPvdBinding.obj
 0001:000b6c50       ??$registrarPhysicsObject@VPxCapsuleGeometry@physx@@@PvdMetaDataBinding@Vd@physx@@QAEXAAVPvdDataStream@pvdsdk@2@ABVPxCapsuleGeometry@2@PAVPsPvd@42@@Z 100b7c50 f i PvdMetaDataPvdBinding.obj
 0001:000b6c60       ??$registrarPhysicsObject@VPxSphereGeometry@physx@@@PvdMetaDataBinding@Vd@physx@@QAEXAAVPvdDataStream@pvdsdk@2@ABVPxSphereGeometry@2@PAVPsPvd@42@@Z 100b7c60 f i PvdMetaDataPvdBinding.obj
 0001:000b7e40       ??$visitAllProperties@UPxClothStretchConfig@physx@@U?$PvdPropertyFilter@UPvdClassInfoDefine@Vd@physx@@@Vd@2@@physx@@YAIU?$PvdPropertyFilter@UPvdClassInfoDefine@Vd@physx@@@Vd@0@@Z 100b8e40 f i PvdMetaDataPvdBinding.obj
 0001:000b7ec0       ??$visitAllProperties@VPxActor@physx@@U?$PvdPropertyFilter@UPvdClassInfoDefine@Vd@physx@@@Vd@2@@physx@@YAIU?$PvdPropertyFilter@UPvdClassInfoDefine@Vd@physx@@@Vd@0@@Z 100b8ec0 f i PvdMetaDataPvdBinding.obj
 0001:000b7f40       ??$visitAllProperties@VPxAggregate@physx@@U?$PvdPropertyFilter@UPvdClassInfoDefine@Vd@physx@@@Vd@2@@physx@@YAIU?$PvdPropertyFilter@UPvdClassInfoDefine@Vd@physx@@@Vd@0@@Z 100b8f40 f i PvdMetaDataPvdBinding.obj
 0001:000b7fc0       ??$visitAllProperties@VPxArticulation@physx@@U?$PvdPropertyFilter@UPvdClassInfoDefine@Vd@physx@@@Vd@2@@physx@@YAIU?$PvdPropertyFilter@UPvdClassInfoDefine@Vd@physx@@@Vd@0@@Z 100b8fc0 f i PvdMetaDataPvdBinding.obj
 0001:000b8060       ??$visitAllProperties@VPxArticulation@physx@@U?$PvdPropertyFilter@UPvdClassInfoValueStructDefine@Vd@physx@@@Vd@2@@physx@@YAIU?$PvdPropertyFilter@UPvdClassInfoValueStructDefine@Vd@physx@@@Vd@0@@Z 100b9060 f i PvdMetaDataPvdBinding.obj
 0001:000b80f0       ??$visitAllProperties@VPxArticulationJoint@physx@@U?$PvdPropertyFilter@UPvdClassInfoDefine@Vd@physx@@@Vd@2@@physx@@YAIU?$PvdPropertyFilter@UPvdClassInfoDefine@Vd@physx@@@Vd@0@@Z 100b90f0 f i PvdMetaDataPvdBinding.obj
 0001:000b8190       ??$visitAllProperties@VPxArticulationJoint@physx@@U?$PvdPropertyFilter@UPvdClassInfoValueStructDefine@Vd@physx@@@Vd@2@@physx@@YAIU?$PvdPropertyFilter@UPvdClassInfoValueStructDefine@Vd@physx@@@Vd@0@@Z 100b9190 f i PvdMetaDataPvdBinding.obj
 0001:000b8220       ??$visitAllProperties@VPxArticulationLink@physx@@U?$PvdPropertyFilter@UPvdClassInfoValueStructDefine@Vd@physx@@@Vd@2@@physx@@YAIU?$PvdPropertyFilter@UPvdClassInfoValueStructDefine@Vd@physx@@@Vd@0@@Z 100b9220 f i PvdMetaDataPvdBinding.obj
 0001:000b8310       ??$visitAllProperties@VPxBoxGeometry@physx@@U?$PvdPropertyFilter@UPvdClassInfoValueStructDefine@Vd@physx@@@Vd@2@@physx@@YAIU?$PvdPropertyFilter@UPvdClassInfoValueStructDefine@Vd@physx@@@Vd@0@@Z 100b9310 f i PvdMetaDataPvdBinding.obj
 0001:000b83b0       ??$visitAllProperties@VPxCloth@physx@@U?$PvdPropertyFilter@UPvdClassInfoValueStructDefine@Vd@physx@@@Vd@2@@physx@@YAIU?$PvdPropertyFilter@UPvdClassInfoValueStructDefine@Vd@physx@@@Vd@0@@Z 100b93b0 f i PvdMetaDataPvdBinding.obj
 0001:000b8480       ??$visitAllProperties@VPxClothFabric@physx@@U?$PvdPropertyFilter@UPvdClassInfoDefine@Vd@physx@@@Vd@2@@physx@@YAIU?$PvdPropertyFilter@UPvdClassInfoDefine@Vd@physx@@@Vd@0@@Z 100b9480 f i PvdMetaDataPvdBinding.obj
 0001:000b8500       ??$visitAllProperties@VPxConstraint@physx@@U?$PvdPropertyFilter@UPvdClassInfoDefine@Vd@physx@@@Vd@2@@physx@@YAIU?$PvdPropertyFilter@UPvdClassInfoDefine@Vd@physx@@@Vd@0@@Z 100b9500 f i PvdMetaDataPvdBinding.obj
 0001:000b8580       ??$visitAllProperties@VPxHeightFieldDesc@physx@@U?$PvdPropertyFilter@UPvdClassInfoDefine@Vd@physx@@@Vd@2@@physx@@YAIU?$PvdPropertyFilter@UPvdClassInfoDefine@Vd@physx@@@Vd@0@@Z 100b9580 f i PvdMetaDataPvdBinding.obj
 0001:000b8600       ??$visitAllProperties@VPxMaterial@physx@@U?$PvdPropertyFilter@UPvdClassInfoDefine@Vd@physx@@@Vd@2@@physx@@YAIU?$PvdPropertyFilter@UPvdClassInfoDefine@Vd@physx@@@Vd@0@@Z 100b9600 f i PvdMetaDataPvdBinding.obj
 0001:000b86a0       ??$visitAllProperties@VPxMaterial@physx@@U?$PvdPropertyFilter@UPvdClassInfoValueStructDefine@Vd@physx@@@Vd@2@@physx@@YAIU?$PvdPropertyFilter@UPvdClassInfoValueStructDefine@Vd@physx@@@Vd@0@@Z 100b96a0 f i PvdMetaDataPvdBinding.obj
 0001:000b8730       ??$visitAllProperties@VPxParticleFluid@physx@@U?$PvdPropertyFilter@UPvdClassInfoValueStructDefine@Vd@physx@@@Vd@2@@physx@@YAIU?$PvdPropertyFilter@UPvdClassInfoValueStructDefine@Vd@physx@@@Vd@0@@Z 100b9730 f i PvdMetaDataPvdBinding.obj
 0001:000b8820       ??$visitAllProperties@VPxParticleSystem@physx@@U?$PvdPropertyFilter@UPvdClassInfoValueStructDefine@Vd@physx@@@Vd@2@@physx@@YAIU?$PvdPropertyFilter@UPvdClassInfoValueStructDefine@Vd@physx@@@Vd@0@@Z 100b9820 f i PvdMetaDataPvdBinding.obj
 0001:000b8950       ??$visitAllProperties@VPxRigidDynamic@physx@@U?$PvdPropertyFilter@UPvdClassInfoValueStructDefine@Vd@physx@@@Vd@2@@physx@@YAIU?$PvdPropertyFilter@UPvdClassInfoValueStructDefine@Vd@physx@@@Vd@0@@Z 100b9950 f i PvdMetaDataPvdBinding.obj
 0001:000b8a40       ??$visitAllProperties@VPxRigidStatic@physx@@U?$PvdPropertyFilter@UPvdClassInfoValueStructDefine@Vd@physx@@@Vd@2@@physx@@YAIU?$PvdPropertyFilter@UPvdClassInfoValueStructDefine@Vd@physx@@@Vd@0@@Z 100b9a40 f i PvdMetaDataPvdBinding.obj
 0001:000b8b50       ??$visitAllProperties@VPxSceneDesc@physx@@U?$PvdPropertyFilter@UPvdClassInfoDefine@Vd@physx@@@Vd@2@@physx@@YAIU?$PvdPropertyFilter@UPvdClassInfoDefine@Vd@physx@@@Vd@0@@Z 100b9b50 f i PvdMetaDataPvdBinding.obj
 0001:000b8bf0       ??$visitAllProperties@VPxSceneDesc@physx@@U?$PvdPropertyFilter@UPvdClassInfoValueStructDefine@Vd@physx@@@Vd@2@@physx@@YAIU?$PvdPropertyFilter@UPvdClassInfoValueStructDefine@Vd@physx@@@Vd@0@@Z 100b9bf0 f i PvdMetaDataPvdBinding.obj
 0001:000b8c80       ??$visitAllProperties@VPxShape@physx@@U?$PvdPropertyFilter@UPvdClassInfoDefine@Vd@physx@@@Vd@2@@physx@@YAIU?$PvdPropertyFilter@UPvdClassInfoDefine@Vd@physx@@@Vd@0@@Z 100b9c80 f i PvdMetaDataPvdBinding.obj
 0001:000b8d20       ??$visitAllProperties@VPxShape@physx@@U?$PvdPropertyFilter@UPvdClassInfoValueStructDefine@Vd@physx@@@Vd@2@@physx@@YAIU?$PvdPropertyFilter@UPvdClassInfoValueStructDefine@Vd@physx@@@Vd@0@@Z 100b9d20 f i PvdMetaDataPvdBinding.obj
 0001:000b8db0       ??$visitAllProperties@VPxSimulationStatistics@physx@@U?$PvdPropertyFilter@UPvdClassInfoDefine@Vd@physx@@@Vd@2@@physx@@YAIU?$PvdPropertyFilter@UPvdClassInfoDefine@Vd@physx@@@Vd@0@@Z 100b9db0 f i PvdMetaDataPvdBinding.obj
 0001:000b8e50       ??$visitAllProperties@VPxSimulationStatistics@physx@@U?$PvdPropertyFilter@UPvdClassInfoValueStructDefine@Vd@physx@@@Vd@2@@physx@@YAIU?$PvdPropertyFilter@UPvdClassInfoValueStructDefine@Vd@physx@@@Vd@0@@Z 100b9e50 f i PvdMetaDataPvdBinding.obj
 0001:000b8ee0       ??$visitAllProperties@VPxSphereGeometry@physx@@U?$PvdPropertyFilter@UPvdClassInfoValueStructDefine@Vd@physx@@@Vd@2@@physx@@YAIU?$PvdPropertyFilter@UPvdClassInfoValueStructDefine@Vd@physx@@@Vd@0@@Z 100b9ee0 f i PvdMetaDataPvdBinding.obj
 0001:000b8f80       ??$visitAllProperties@VPxTolerancesScale@physx@@U?$PvdPropertyFilter@UPvdClassInfoDefine@Vd@physx@@@Vd@2@@physx@@YAIU?$PvdPropertyFilter@UPvdClassInfoDefine@Vd@physx@@@Vd@0@@Z 100b9f80 f i PvdMetaDataPvdBinding.obj
 0001:000b9000       ??$visitBaseProperties@U?$PvdPropertyFilter@UPvdClassInfoValueStructDefine@Vd@physx@@@Vd@physx@@@PxRigidBodyGeneratedInfo@physx@@QBEIU?$PvdPropertyFilter@UPvdClassInfoValueStructDefine@Vd@physx@@@Vd@1@I@Z 100ba000 f i PvdMetaDataPvdBinding.obj
 0001:000b90c0       ??$visitBaseProperties@U?$PvdPropertyFilter@UPvdClassInfoValueStructDefine@Vd@physx@@@Vd@physx@@@PxRigidStaticGeneratedInfo@physx@@QBEIU?$PvdPropertyFilter@UPvdClassInfoValueStructDefine@Vd@physx@@@Vd@1@I@Z 100ba0c0 f i PvdMetaDataPvdBinding.obj
 0001:000b9180       ??$visitInstanceProperties@U?$PvdPropertyFilter@UPvdClassInfoDefine@Vd@physx@@@Vd@physx@@@PxActorGeneratedInfo@physx@@QBEIU?$PvdPropertyFilter@UPvdClassInfoDefine@Vd@physx@@@Vd@1@I@Z 100ba180 f i PvdMetaDataPvdBinding.obj
 0001:000b9360       ??$visitInstanceProperties@U?$PvdPropertyFilter@UPvdClassInfoDefine@Vd@physx@@@Vd@physx@@@PxAggregateGeneratedInfo@physx@@QBEIU?$PvdPropertyFilter@UPvdClassInfoDefine@Vd@physx@@@Vd@1@I@Z 100ba360 f i PvdMetaDataPvdBinding.obj
 0001:000b94b0       ??$visitInstanceProperties@U?$PvdPropertyFilter@UPvdClassInfoDefine@Vd@physx@@@Vd@physx@@@PxArticulationGeneratedInfo@physx@@QBEIU?$PvdPropertyFilter@UPvdClassInfoDefine@Vd@physx@@@Vd@1@I@Z 100ba4b0 f i PvdMetaDataPvdBinding.obj
 0001:000b9900       ??$visitInstanceProperties@U?$PvdPropertyFilter@UPvdClassInfoDefine@Vd@physx@@@Vd@physx@@@PxArticulationJointGeneratedInfo@physx@@QBEIU?$PvdPropertyFilter@UPvdClassInfoDefine@Vd@physx@@@Vd@1@I@Z 100ba900 f i PvdMetaDataPvdBinding.obj
 0001:000b9fc0       ??$visitInstanceProperties@U?$PvdPropertyFilter@UPvdClassInfoDefine@Vd@physx@@@Vd@physx@@@PxArticulationLinkGeneratedInfo@physx@@QBEIU?$PvdPropertyFilter@UPvdClassInfoDefine@Vd@physx@@@Vd@1@I@Z 100bafc0 f i PvdMetaDataPvdBinding.obj
 0001:000ba050       ??$visitInstanceProperties@U?$PvdPropertyFilter@UPvdClassInfoDefine@Vd@physx@@@Vd@physx@@@PxCapsuleGeometryGeneratedInfo@physx@@QBEIU?$PvdPropertyFilter@UPvdClassInfoDefine@Vd@physx@@@Vd@1@I@Z 100bb050 f i PvdMetaDataPvdBinding.obj
 0001:000ba140       ??$visitInstanceProperties@U?$PvdPropertyFilter@UPvdClassInfoDefine@Vd@physx@@@Vd@physx@@@PxClothFabricGeneratedInfo@physx@@QBEIU?$PvdPropertyFilter@UPvdClassInfoDefine@Vd@physx@@@Vd@1@I@Z 100bb140 f i PvdMetaDataPvdBinding.obj
 0001:000ba380       ??$visitInstanceProperties@U?$PvdPropertyFilter@UPvdClassInfoDefine@Vd@physx@@@Vd@physx@@@PxClothFabricPhaseGeneratedInfo@physx@@QBEIU?$PvdPropertyFilter@UPvdClassInfoDefine@Vd@physx@@@Vd@1@I@Z 100bb380 f i PvdMetaDataPvdBinding.obj
 0001:000ba450       ??$visitInstanceProperties@U?$PvdPropertyFilter@UPvdClassInfoDefine@Vd@physx@@@Vd@physx@@@PxClothGeneratedInfo@physx@@QBEIU?$PvdPropertyFilter@UPvdClassInfoDefine@Vd@physx@@@Vd@1@I@Z 100bb450 f i PvdMetaDataPvdBinding.obj
 0001:000bafd0       ??$visitInstanceProperties@U?$PvdPropertyFilter@UPvdClassInfoDefine@Vd@physx@@@Vd@physx@@@PxClothMotionConstraintConfigGeneratedInfo@physx@@QBEIU?$PvdPropertyFilter@UPvdClassInfoDefine@Vd@physx@@@Vd@1@I@Z 100bbfd0 f i PvdMetaDataPvdBinding.obj
 0001:000bb120       ??$visitInstanceProperties@U?$PvdPropertyFilter@UPvdClassInfoDefine@Vd@physx@@@Vd@physx@@@PxClothParticleGeneratedInfo@physx@@QBEIU?$PvdPropertyFilter@UPvdClassInfoDefine@Vd@physx@@@Vd@1@I@Z 100bc120 f i PvdMetaDataPvdBinding.obj
 0001:000bb210       ??$visitInstanceProperties@U?$PvdPropertyFilter@UPvdClassInfoDefine@Vd@physx@@@Vd@physx@@@PxClothStretchConfigGeneratedInfo@physx@@QBEIU?$PvdPropertyFilter@UPvdClassInfoDefine@Vd@physx@@@Vd@1@I@Z 100bc210 f i PvdMetaDataPvdBinding.obj
 0001:000bb3d0       ??$visitInstanceProperties@U?$PvdPropertyFilter@UPvdClassInfoDefine@Vd@physx@@@Vd@physx@@@PxClothTetherConfigGeneratedInfo@physx@@QBEIU?$PvdPropertyFilter@UPvdClassInfoDefine@Vd@physx@@@Vd@1@I@Z 100bc3d0 f i PvdMetaDataPvdBinding.obj
 0001:000bb4c0       ??$visitInstanceProperties@U?$PvdPropertyFilter@UPvdClassInfoDefine@Vd@physx@@@Vd@physx@@@PxConstraintGeneratedInfo@physx@@QBEIU?$PvdPropertyFilter@UPvdClassInfoDefine@Vd@physx@@@Vd@1@I@Z 100bc4c0 f i PvdMetaDataPvdBinding.obj
 0001:000bb680       ??$visitInstanceProperties@U?$PvdPropertyFilter@UPvdClassInfoDefine@Vd@physx@@@Vd@physx@@@PxConvexMeshGeometryGeneratedInfo@physx@@QBEIU?$PvdPropertyFilter@UPvdClassInfoDefine@Vd@physx@@@Vd@1@I@Z 100bc680 f i PvdMetaDataPvdBinding.obj
 0001:000bb800       ??$visitInstanceProperties@U?$PvdPropertyFilter@UPvdClassInfoDefine@Vd@physx@@@Vd@physx@@@PxHeightFieldDescGeneratedInfo@physx@@QBEIU?$PvdPropertyFilter@UPvdClassInfoDefine@Vd@physx@@@Vd@1@I@Z 100bc800 f i PvdMetaDataPvdBinding.obj
 0001:000bba70       ??$visitInstanceProperties@U?$PvdPropertyFilter@UPvdClassInfoDefine@Vd@physx@@@Vd@physx@@@PxHeightFieldGeometryGeneratedInfo@physx@@QBEIU?$PvdPropertyFilter@UPvdClassInfoDefine@Vd@physx@@@Vd@1@I@Z 100bca70 f i PvdMetaDataPvdBinding.obj
 0001:000bbc70       ??$visitInstanceProperties@U?$PvdPropertyFilter@UPvdClassInfoDefine@Vd@physx@@@Vd@physx@@@PxMaterialGeneratedInfo@physx@@QBEIU?$PvdPropertyFilter@UPvdClassInfoDefine@Vd@physx@@@Vd@1@I@Z 100bcc70 f i PvdMetaDataPvdBinding.obj
 0001:000bbf60       ??$visitInstanceProperties@U?$PvdPropertyFilter@UPvdClassInfoDefine@Vd@physx@@@Vd@physx@@@PxMeshScaleGeneratedInfo@physx@@QBEIU?$PvdPropertyFilter@UPvdClassInfoDefine@Vd@physx@@@Vd@1@I@Z 100bcf60 f i PvdMetaDataPvdBinding.obj
 0001:000bc050       ??$visitInstanceProperties@U?$PvdPropertyFilter@UPvdClassInfoDefine@Vd@physx@@@Vd@physx@@@PxParticleBaseGeneratedInfo@physx@@QBEIU?$PvdPropertyFilter@UPvdClassInfoDefine@Vd@physx@@@Vd@1@I@Z 100bd050 f i PvdMetaDataPvdBinding.obj
 0001:000bc660       ??$visitInstanceProperties@U?$PvdPropertyFilter@UPvdClassInfoDefine@Vd@physx@@@Vd@physx@@@PxParticleFluidGeneratedInfo@physx@@QBEIU?$PvdPropertyFilter@UPvdClassInfoDefine@Vd@physx@@@Vd@1@I@Z 100bd660 f i PvdMetaDataPvdBinding.obj
 0001:000bc830       ??$visitInstanceProperties@U?$PvdPropertyFilter@UPvdClassInfoDefine@Vd@physx@@@Vd@physx@@@PxRigidBodyGeneratedInfo@physx@@QBEIU?$PvdPropertyFilter@UPvdClassInfoDefine@Vd@physx@@@Vd@1@I@Z 100bd830 f i PvdMetaDataPvdBinding.obj
 0001:000bccc0       ??$visitInstanceProperties@U?$PvdPropertyFilter@UPvdClassInfoDefine@Vd@physx@@@Vd@physx@@@PxRigidDynamicGeneratedInfo@physx@@QBEIU?$PvdPropertyFilter@UPvdClassInfoDefine@Vd@physx@@@Vd@1@I@Z 100bdcc0 f i PvdMetaDataPvdBinding.obj
 0001:000bd100       ??$visitInstanceProperties@U?$PvdPropertyFilter@UPvdClassInfoDefine@Vd@physx@@@Vd@physx@@@PxSceneDescGeneratedInfo@physx@@QBEIU?$PvdPropertyFilter@UPvdClassInfoDefine@Vd@physx@@@Vd@1@I@Z 100be100 f i PvdMetaDataPvdBinding.obj
 0001:000bda10       ??$visitInstanceProperties@U?$PvdPropertyFilter@UPvdClassInfoDefine@Vd@physx@@@Vd@physx@@@PxSceneLimitsGeneratedInfo@physx@@QBEIU?$PvdPropertyFilter@UPvdClassInfoDefine@Vd@physx@@@Vd@1@I@Z 100bea10 f i PvdMetaDataPvdBinding.obj
 0001:000bddd0       ??$visitInstanceProperties@U?$PvdPropertyFilter@UPvdClassInfoDefine@Vd@physx@@@Vd@physx@@@PxShapeGeneratedInfo@physx@@QBEIU?$PvdPropertyFilter@UPvdClassInfoDefine@Vd@physx@@@Vd@1@I@Z 100bedd0 f i PvdMetaDataPvdBinding.obj
 0001:000be1c0       ??$visitInstanceProperties@U?$PvdPropertyFilter@UPvdClassInfoDefine@Vd@physx@@@Vd@physx@@@PxSimulationStatisticsGeneratedInfo@physx@@QBEIU?$PvdPropertyFilter@UPvdClassInfoDefine@Vd@physx@@@Vd@1@I@Z 100bf1c0 f i PvdMetaDataPvdBinding.obj
 0001:000bebe0       ??$visitInstanceProperties@U?$PvdPropertyFilter@UPvdClassInfoDefine@Vd@physx@@@Vd@physx@@@PxTolerancesScaleGeneratedInfo@physx@@QBEIU?$PvdPropertyFilter@UPvdClassInfoDefine@Vd@physx@@@Vd@1@I@Z 100bfbe0 f i PvdMetaDataPvdBinding.obj
 0001:000beda0       ??$visitInstanceProperties@U?$PvdPropertyFilter@UPvdClassInfoDefine@Vd@physx@@@Vd@physx@@@PxTriangleMeshGeometryGeneratedInfo@physx@@QBEIU?$PvdPropertyFilter@UPvdClassInfoDefine@Vd@physx@@@Vd@1@I@Z 100bfda0 f i PvdMetaDataPvdBinding.obj
 0001:000beec0       ??$visitInstanceProperties@U?$PvdPropertyFilter@UPvdClassInfoDefine@Vd@physx@@@Vd@physx@@@PxgDynamicsMemoryConfigGeneratedInfo@physx@@QBEIU?$PvdPropertyFilter@UPvdClassInfoDefine@Vd@physx@@@Vd@1@I@Z 100bfec0 f i PvdMetaDataPvdBinding.obj
 0001:000bf210       ??$visitInstanceProperties@U?$PvdPropertyFilter@UPvdClassInfoValueStructDefine@Vd@physx@@@Vd@physx@@@PxActorGeneratedInfo@physx@@QBEIU?$PvdPropertyFilter@UPvdClassInfoValueStructDefine@Vd@physx@@@Vd@1@I@Z 100c0210 f i PvdMetaDataPvdBinding.obj
 0001:000bf420       ??$visitInstanceProperties@U?$PvdPropertyFilter@UPvdClassInfoValueStructDefine@Vd@physx@@@Vd@physx@@@PxAggregateGeneratedInfo@physx@@QBEIU?$PvdPropertyFilter@UPvdClassInfoValueStructDefine@Vd@physx@@@Vd@1@I@Z 100c0420 f i PvdMetaDataPvdBinding.obj
 0001:000bf560       ??$visitInstanceProperties@U?$PvdPropertyFilter@UPvdClassInfoValueStructDefine@Vd@physx@@@Vd@physx@@@PxArticulationGeneratedInfo@physx@@QBEIU?$PvdPropertyFilter@UPvdClassInfoValueStructDefine@Vd@physx@@@Vd@1@I@Z 100c0560 f i PvdMetaDataPvdBinding.obj
 0001:000bf980       ??$visitInstanceProperties@U?$PvdPropertyFilter@UPvdClassInfoValueStructDefine@Vd@physx@@@Vd@physx@@@PxArticulationJointGeneratedInfo@physx@@QBEIU?$PvdPropertyFilter@UPvdClassInfoValueStructDefine@Vd@physx@@@Vd@1@I@Z 100c0980 f i PvdMetaDataPvdBinding.obj
 0001:000c0020       ??$visitInstanceProperties@U?$PvdPropertyFilter@UPvdClassInfoValueStructDefine@Vd@physx@@@Vd@physx@@@PxArticulationLinkGeneratedInfo@physx@@QBEIU?$PvdPropertyFilter@UPvdClassInfoValueStructDefine@Vd@physx@@@Vd@1@I@Z 100c1020 f i PvdMetaDataPvdBinding.obj
 0001:000c00b0       ??$visitInstanceProperties@U?$PvdPropertyFilter@UPvdClassInfoValueStructDefine@Vd@physx@@@Vd@physx@@@PxCapsuleGeometryGeneratedInfo@physx@@QBEIU?$PvdPropertyFilter@UPvdClassInfoValueStructDefine@Vd@physx@@@Vd@1@I@Z 100c10b0 f i PvdMetaDataPvdBinding.obj
 0001:000c0190       ??$visitInstanceProperties@U?$PvdPropertyFilter@UPvdClassInfoValueStructDefine@Vd@physx@@@Vd@physx@@@PxClothFabricGeneratedInfo@physx@@QBEIU?$PvdPropertyFilter@UPvdClassInfoValueStructDefine@Vd@physx@@@Vd@1@I@Z 100c1190 f i PvdMetaDataPvdBinding.obj
 0001:000c02d0       ??$visitInstanceProperties@U?$PvdPropertyFilter@UPvdClassInfoValueStructDefine@Vd@physx@@@Vd@physx@@@PxClothGeneratedInfo@physx@@QBEIU?$PvdPropertyFilter@UPvdClassInfoValueStructDefine@Vd@physx@@@Vd@1@I@Z 100c12d0 f i PvdMetaDataPvdBinding.obj
 0001:000c0d00       ??$visitInstanceProperties@U?$PvdPropertyFilter@UPvdClassInfoValueStructDefine@Vd@physx@@@Vd@physx@@@PxClothMotionConstraintConfigGeneratedInfo@physx@@QBEIU?$PvdPropertyFilter@UPvdClassInfoValueStructDefine@Vd@physx@@@Vd@1@I@Z 100c1d00 f i PvdMetaDataPvdBinding.obj
 0001:000c0e40       ??$visitInstanceProperties@U?$PvdPropertyFilter@UPvdClassInfoValueStructDefine@Vd@physx@@@Vd@physx@@@PxClothStretchConfigGeneratedInfo@physx@@QBEIU?$PvdPropertyFilter@UPvdClassInfoValueStructDefine@Vd@physx@@@Vd@1@I@Z 100c1e40 f i PvdMetaDataPvdBinding.obj
 0001:000c0fe0       ??$visitInstanceProperties@U?$PvdPropertyFilter@UPvdClassInfoValueStructDefine@Vd@physx@@@Vd@physx@@@PxClothTetherConfigGeneratedInfo@physx@@QBEIU?$PvdPropertyFilter@UPvdClassInfoValueStructDefine@Vd@physx@@@Vd@1@I@Z 100c1fe0 f i PvdMetaDataPvdBinding.obj
 0001:000c10c0       ??$visitInstanceProperties@U?$PvdPropertyFilter@UPvdClassInfoValueStructDefine@Vd@physx@@@Vd@physx@@@PxConstraintGeneratedInfo@physx@@QBEIU?$PvdPropertyFilter@UPvdClassInfoValueStructDefine@Vd@physx@@@Vd@1@I@Z 100c20c0 f i PvdMetaDataPvdBinding.obj
 0001:000c12a0       ??$visitInstanceProperties@U?$PvdPropertyFilter@UPvdClassInfoValueStructDefine@Vd@physx@@@Vd@physx@@@PxConvexMeshGeometryGeneratedInfo@physx@@QBEIU?$PvdPropertyFilter@UPvdClassInfoValueStructDefine@Vd@physx@@@Vd@1@I@Z 100c22a0 f i PvdMetaDataPvdBinding.obj
 0001:000c1430       ??$visitInstanceProperties@U?$PvdPropertyFilter@UPvdClassInfoValueStructDefine@Vd@physx@@@Vd@physx@@@PxHeightFieldDescGeneratedInfo@physx@@QBEIU?$PvdPropertyFilter@UPvdClassInfoValueStructDefine@Vd@physx@@@Vd@1@I@Z 100c2430 f i PvdMetaDataPvdBinding.obj
 0001:000c16c0       ??$visitInstanceProperties@U?$PvdPropertyFilter@UPvdClassInfoValueStructDefine@Vd@physx@@@Vd@physx@@@PxHeightFieldGeometryGeneratedInfo@physx@@QBEIU?$PvdPropertyFilter@UPvdClassInfoValueStructDefine@Vd@physx@@@Vd@1@I@Z 100c26c0 f i PvdMetaDataPvdBinding.obj
 0001:000c18c0       ??$visitInstanceProperties@U?$PvdPropertyFilter@UPvdClassInfoValueStructDefine@Vd@physx@@@Vd@physx@@@PxMaterialGeneratedInfo@physx@@QBEIU?$PvdPropertyFilter@UPvdClassInfoValueStructDefine@Vd@physx@@@Vd@1@I@Z 100c28c0 f i PvdMetaDataPvdBinding.obj
 0001:000c1bf0       ??$visitInstanceProperties@U?$PvdPropertyFilter@UPvdClassInfoValueStructDefine@Vd@physx@@@Vd@physx@@@PxMeshScaleGeneratedInfo@physx@@QBEIU?$PvdPropertyFilter@UPvdClassInfoValueStructDefine@Vd@physx@@@Vd@1@I@Z 100c2bf0 f i PvdMetaDataPvdBinding.obj
 0001:000c1cd0       ??$visitInstanceProperties@U?$PvdPropertyFilter@UPvdClassInfoValueStructDefine@Vd@physx@@@Vd@physx@@@PxParticleBaseGeneratedInfo@physx@@QBEIU?$PvdPropertyFilter@UPvdClassInfoValueStructDefine@Vd@physx@@@Vd@1@I@Z 100c2cd0 f i PvdMetaDataPvdBinding.obj
 0001:000c22f0       ??$visitInstanceProperties@U?$PvdPropertyFilter@UPvdClassInfoValueStructDefine@Vd@physx@@@Vd@physx@@@PxParticleFluidGeneratedInfo@physx@@QBEIU?$PvdPropertyFilter@UPvdClassInfoValueStructDefine@Vd@physx@@@Vd@1@I@Z 100c32f0 f i PvdMetaDataPvdBinding.obj
 0001:000c24b0       ??$visitInstanceProperties@U?$PvdPropertyFilter@UPvdClassInfoValueStructDefine@Vd@physx@@@Vd@physx@@@PxRigidBodyGeneratedInfo@physx@@QBEIU?$PvdPropertyFilter@UPvdClassInfoValueStructDefine@Vd@physx@@@Vd@1@I@Z 100c34b0 f i PvdMetaDataPvdBinding.obj
 0001:000c2950       ??$visitInstanceProperties@U?$PvdPropertyFilter@UPvdClassInfoValueStructDefine@Vd@physx@@@Vd@physx@@@PxRigidDynamicGeneratedInfo@physx@@QBEIU?$PvdPropertyFilter@UPvdClassInfoValueStructDefine@Vd@physx@@@Vd@1@I@Z 100c3950 f i PvdMetaDataPvdBinding.obj
 0001:000c2db0       ??$visitInstanceProperties@U?$PvdPropertyFilter@UPvdClassInfoValueStructDefine@Vd@physx@@@Vd@physx@@@PxSceneDescGeneratedInfo@physx@@QBEIU?$PvdPropertyFilter@UPvdClassInfoValueStructDefine@Vd@physx@@@Vd@1@I@Z 100c3db0 f i PvdMetaDataPvdBinding.obj
 0001:000c3540       ??$visitInstanceProperties@U?$PvdPropertyFilter@UPvdClassInfoValueStructDefine@Vd@physx@@@Vd@physx@@@PxSceneLimitsGeneratedInfo@physx@@QBEIU?$PvdPropertyFilter@UPvdClassInfoValueStructDefine@Vd@physx@@@Vd@1@I@Z 100c4540 f i PvdMetaDataPvdBinding.obj
 0001:000c38d0       ??$visitInstanceProperties@U?$PvdPropertyFilter@UPvdClassInfoValueStructDefine@Vd@physx@@@Vd@physx@@@PxShapeGeneratedInfo@physx@@QBEIU?$PvdPropertyFilter@UPvdClassInfoValueStructDefine@Vd@physx@@@Vd@1@I@Z 100c48d0 f i PvdMetaDataPvdBinding.obj
 0001:000c3cd0       ??$visitInstanceProperties@U?$PvdPropertyFilter@UPvdClassInfoValueStructDefine@Vd@physx@@@Vd@physx@@@PxSimulationStatisticsGeneratedInfo@physx@@QBEIU?$PvdPropertyFilter@UPvdClassInfoValueStructDefine@Vd@physx@@@Vd@1@I@Z 100c4cd0 f i PvdMetaDataPvdBinding.obj
 0001:000c4690       ??$visitInstanceProperties@U?$PvdPropertyFilter@UPvdClassInfoValueStructDefine@Vd@physx@@@Vd@physx@@@PxTolerancesScaleGeneratedInfo@physx@@QBEIU?$PvdPropertyFilter@UPvdClassInfoValueStructDefine@Vd@physx@@@Vd@1@I@Z 100c5690 f i PvdMetaDataPvdBinding.obj
 0001:000c4830       ??$visitInstanceProperties@U?$PvdPropertyFilter@UPvdClassInfoValueStructDefine@Vd@physx@@@Vd@physx@@@PxTriangleMeshGeometryGeneratedInfo@physx@@QBEIU?$PvdPropertyFilter@UPvdClassInfoValueStructDefine@Vd@physx@@@Vd@1@I@Z 100c5830 f i PvdMetaDataPvdBinding.obj
 0001:000c4960       ??$visitInstanceProperties@U?$PvdPropertyFilter@UPvdClassInfoValueStructDefine@Vd@physx@@@Vd@physx@@@PxgDynamicsMemoryConfigGeneratedInfo@physx@@QBEIU?$PvdPropertyFilter@UPvdClassInfoValueStructDefine@Vd@physx@@@Vd@1@I@Z 100c5960 f i PvdMetaDataPvdBinding.obj
 0001:000c4c90       ??$visitInstanceProperties@VPxBoxGeometry@physx@@U?$PvdPropertyFilter@UPvdClassInfoDefine@Vd@physx@@@Vd@2@@physx@@YAXU?$PvdPropertyFilter@UPvdClassInfoDefine@Vd@physx@@@Vd@0@@Z 100c5c90 f i PvdMetaDataPvdBinding.obj
 0001:000c4d30       ??$visitInstanceProperties@VPxClothFabric@physx@@U?$PvdPropertyFilter@UPxClothFabricCollectionOperator@Vd@physx@@@Vd@2@@physx@@YAXU?$PvdPropertyFilter@UPxClothFabricCollectionOperator@Vd@physx@@@Vd@0@@Z 100c5d30 f i PvdMetaDataPvdBinding.obj
 0001:000c4dc0       ??$visitInstanceProperties@VPxParticleSystem@physx@@U?$PvdPropertyFilter@UPvdClassInfoDefine@Vd@physx@@@Vd@2@@physx@@YAXU?$PvdPropertyFilter@UPvdClassInfoDefine@Vd@physx@@@Vd@0@@Z 100c5dc0 f i PvdMetaDataPvdBinding.obj
 0001:000c4e70       ??$visitInstanceProperties@VPxRigidActor@physx@@U?$PvdPropertyFilter@UPvdClassInfoDefine@Vd@physx@@@Vd@2@@physx@@YAXU?$PvdPropertyFilter@UPvdClassInfoDefine@Vd@physx@@@Vd@0@@Z 100c5e70 f i PvdMetaDataPvdBinding.obj
 0001:000c4f20       ??$visitInstanceProperties@VPxRigidStatic@physx@@U?$PvdPropertyFilter@UPvdClassInfoDefine@Vd@physx@@@Vd@2@@physx@@YAXU?$PvdPropertyFilter@UPvdClassInfoDefine@Vd@physx@@@Vd@0@@Z 100c5f20 f i PvdMetaDataPvdBinding.obj
 0001:000c4fd0       ??$visitInstanceProperties@VPxSphereGeometry@physx@@U?$PvdPropertyFilter@UPvdClassInfoDefine@Vd@physx@@@Vd@2@@physx@@YAXU?$PvdPropertyFilter@UPvdClassInfoDefine@Vd@physx@@@Vd@0@@Z 100c5fd0 f i PvdMetaDataPvdBinding.obj
 0001:000c5070       ??$visitParticleFluidBufferProperties@U?$PvdPropertyFilter@UPvdClassInfoDefine@Vd@physx@@@Vd@physx@@@Vd@physx@@YAXU?$PvdPropertyFilter@UPvdClassInfoDefine@Vd@physx@@@01@@Z 100c6070 f i PvdMetaDataPvdBinding.obj
 0001:000c50d0       ??$visitParticleSystemBufferProperties@U?$PvdPropertyFilter@U?$ParticleFluidUpdater@VPxParticleFluidReadData@physx@@@Vd@physx@@@Vd@physx@@@Vd@physx@@YAXU?$PvdPropertyFilter@U?$ParticleFluidUpdater@VPxParticleFluidReadData@physx@@@Vd@physx@@@01@@Z 100c60d0 f i PvdMetaDataPvdBinding.obj
 0001:000c51f0       ??$visitParticleSystemBufferProperties@U?$PvdPropertyFilter@U?$ParticleFluidUpdater@VPxParticleReadData@physx@@@Vd@physx@@@Vd@physx@@@Vd@physx@@YAXU?$PvdPropertyFilter@U?$ParticleFluidUpdater@VPxParticleReadData@physx@@@Vd@physx@@@01@@Z 100c61f0 f i PvdMetaDataPvdBinding.obj
 0001:000c5310       ??$visitParticleSystemBufferProperties@U?$PvdPropertyFilter@UPvdClassInfoDefine@Vd@physx@@@Vd@physx@@@Vd@physx@@YAXU?$PvdPropertyFilter@UPvdClassInfoDefine@Vd@physx@@@01@@Z 100c6310 f i PvdMetaDataPvdBinding.obj
 0001:000c5490       ??0?$InlineArray@PAVPxShape@physx@@$04VNamedAllocator@shdfnd@2@@shdfnd@physx@@QAE@ABVNamedAllocator@12@@Z 100c6490 f i PvdMetaDataPvdBinding.obj
 0001:000c5550       ??0?$ScopedPropertyValueSender@UPvdOverlap@Vd@physx@@$0CA@U123@U?$NullConverter@UPvdOverlap@Vd@physx@@@23@@Vd@physx@@QAE@AAVPvdDataStream@pvdsdk@2@PBXPBD@Z 100c6550 f i PvdMetaDataPvdBinding.obj
 0001:000c55e0       ??0?$ScopedPropertyValueSender@UPvdRaycast@Vd@physx@@$0CA@U123@U?$NullConverter@UPvdRaycast@Vd@physx@@@23@@Vd@physx@@QAE@AAVPvdDataStream@pvdsdk@2@PBXPBD@Z 100c65e0 f i PvdMetaDataPvdBinding.obj
 0001:000c5670       ??0?$ScopedPropertyValueSender@UPvdSqHit@Vd@physx@@$0CA@U123@U?$NullConverter@UPvdSqHit@Vd@physx@@@23@@Vd@physx@@QAE@AAVPvdDataStream@pvdsdk@2@PBXPBD@Z 100c6670 f i PvdMetaDataPvdBinding.obj
 0001:000c5750       ??0?$ScopedPropertyValueSender@UPxFilterData@physx@@$0CA@U12@U?$NullConverter@UPxFilterData@physx@@@Vd@2@@Vd@physx@@QAE@AAVPvdDataStream@pvdsdk@2@PBXPBD@Z 100c6750 f i PvdMetaDataPvdBinding.obj
 0001:000c58e0       ??0Iter@?$HashBase@V?$Pair@QBVPxShape@physx@@PAV?$HashSet@PBVPxRigidActor@physx@@U?$Hash@PBVPxRigidActor@physx@@@shdfnd@2@VNonTrackingAllocator@42@@shdfnd@2@@shdfnd@physx@@PBVPxShape@3@U?$Hash@PBVPxShape@physx@@@23@UGetKey@?$HashMapBase@PBVPxShape@physx@@PAV?$HashSet@PBVPxRigidActor@physx@@U?$Hash@PBVPxRigidActor@physx@@@shdfnd@2@VNonTrackingAllocator@42@@shdfnd@2@U?$Hash@PBVPxShape@physx@@@42@VNonTrackingAllocator@42@@internal@23@VNonTrackingAllocator@23@$00@internal@shdfnd@physx@@QAE@AAV1234@@Z 100c68e0 f i PvdMetaDataPvdBinding.obj
 0001:000c5950       ??0PvdContact@Vd@physx@@QAE@XZ 100c6950 f i PvdMetaDataPvdBinding.obj
 0001:000c5960       ??0PvdMetaDataBindingData@Vd@physx@@QAE@XZ 100c6960 f i PvdMetaDataPvdBinding.obj
 0001:000c5b50       ??0PvdOverlap@Vd@physx@@QAE@XZ 100c6b50 f i PvdMetaDataPvdBinding.obj
 0001:000c5b80       ??0PvdRaycast@Vd@physx@@QAE@XZ 100c6b80 f i PvdMetaDataPvdBinding.obj
 0001:000c5bb0       ??0PvdSqHit@Vd@physx@@QAE@XZ 100c6bb0 f i PvdMetaDataPvdBinding.obj
 0001:000c5c30       ??0PvdSweep@Vd@physx@@QAE@XZ 100c6c30 f i PvdMetaDataPvdBinding.obj
 0001:000c5c40       ??0PxConvexMeshGeometry@physx@@QAE@XZ 100c6c40 f i PvdMetaDataPvdBinding.obj
 0001:000c5cb0       ??0PxFilterData@physx@@QAE@XZ 100c6cb0 f i PvdMetaDataPvdBinding.obj
 0001:000c5ce0       ??0PxHeightFieldGeometry@physx@@QAE@XZ 100c6ce0 f i PvdMetaDataPvdBinding.obj
 0001:000c5d20       ??0PxSceneDesc@physx@@QAE@ABVPxTolerancesScale@1@@Z 100c6d20 f i PvdMetaDataPvdBinding.obj
 0001:000c5fc0       ??0PxSimulationStatistics@physx@@QAE@XZ 100c6fc0 f i PvdMetaDataPvdBinding.obj
 0001:000c6200       ??1PvdCommand@PvdInstanceDataStream@pvdsdk@physx@@UAE@XZ 100c7200 f i PvdMetaDataPvdBinding.obj
 0001:000c6210       ??1PvdMetaDataBindingData@Vd@physx@@QAE@XZ 100c7210 f i PvdMetaDataPvdBinding.obj
 0001:000c62f0       ??_GChangeOjectRefCmd@Vd@physx@@UAEPAXI@Z 100c72f0 f i PvdMetaDataPvdBinding.obj
 0001:000c62f0       ??_EChangeOjectRefCmd@Vd@physx@@UAEPAXI@Z 100c72f0 f i PvdMetaDataPvdBinding.obj
 0001:000c6320       ??_GPvdCommand@PvdInstanceDataStream@pvdsdk@physx@@UAEPAXI@Z 100c7320 f i PvdMetaDataPvdBinding.obj
 0001:000c6320       ??_EPvdCommand@PvdInstanceDataStream@pvdsdk@physx@@UAEPAXI@Z 100c7320 f i PvdMetaDataPvdBinding.obj
 0001:000c6740       ?append@?$ScopedPropertyValueSender@UPvdContact@Vd@physx@@$0CA@UContact@Sc@3@UPvdContactConverter@23@@Vd@physx@@QAEXABUContact@Sc@3@@Z 100c7740 f i PvdMetaDataPvdBinding.obj
 0001:000c6810       ?append@?$ScopedPropertyValueSender@UPvdRaycast@Vd@physx@@$0CA@U123@U?$NullConverter@UPvdRaycast@Vd@physx@@@23@@Vd@physx@@QAEXABUPvdRaycast@23@@Z 100c7810 f i PvdMetaDataPvdBinding.obj
 0001:000c68e0       ?append@?$ScopedPropertyValueSender@UPvdSqHit@Vd@physx@@$0CA@U123@U?$NullConverter@UPvdSqHit@Vd@physx@@@23@@Vd@physx@@QAEXABUPvdSqHit@23@@Z 100c78e0 f i PvdMetaDataPvdBinding.obj
 0001:000c69b0       ?canRun@ChangeOjectRefCmd@Vd@physx@@UAE_NAAVPvdInstanceDataStream@pvdsdk@3@@Z 100c79b0 f i PvdMetaDataPvdBinding.obj
 0001:000c69d0       ?canRun@PvdCommand@PvdInstanceDataStream@pvdsdk@physx@@UAE_NAAV234@@Z 100c79d0 f i PvdMetaDataPvdBinding.obj
 0001:000c6aa0       ?copy@?$Array@VPxVec4@physx@@VNamedAllocator@shdfnd@2@@shdfnd@physx@@KAXPAVPxVec4@3@0PBV43@@Z 100c7aa0 f i PvdMetaDataPvdBinding.obj
 0001:000c6b10       ?create@?$HashBase@PBVPxRigidActor@physx@@PBV12@U?$Hash@PBVPxRigidActor@physx@@@shdfnd@2@UGetKey@?$HashSetBase@PBVPxRigidActor@physx@@U?$Hash@PBVPxRigidActor@physx@@@shdfnd@2@VNonTrackingAllocator@42@$0A@@internal@42@VNonTrackingAllocator@42@$0A@@internal@shdfnd@physx@@QAEPAPBVPxRigidActor@4@ABQBV54@AA_N@Z 100c7b10 f i PvdMetaDataPvdBinding.obj
 0001:000c6c90       ?create@?$HashBase@V?$Pair@QBVPxShape@physx@@PAV?$HashSet@PBVPxRigidActor@physx@@U?$Hash@PBVPxRigidActor@physx@@@shdfnd@2@VNonTrackingAllocator@42@@shdfnd@2@@shdfnd@physx@@PBVPxShape@3@U?$Hash@PBVPxShape@physx@@@23@UGetKey@?$HashMapBase@PBVPxShape@physx@@PAV?$HashSet@PBVPxRigidActor@physx@@U?$Hash@PBVPxRigidActor@physx@@@shdfnd@2@VNonTrackingAllocator@42@@shdfnd@2@U?$Hash@PBVPxShape@physx@@@42@VNonTrackingAllocator@42@@internal@23@VNonTrackingAllocator@23@$00@internal@shdfnd@physx@@QAEPAV?$Pair@QBVPxShape@physx@@PAV?$HashSet@PBVPxRigidActor@physx@@U?$Hash@PBVPxRigidActor@physx@@@shdfnd@2@VNonTrackingAllocator@42@@shdfnd@2@@34@ABQBVPxShape@4@AA_N@Z 100c7c90 f i PvdMetaDataPvdBinding.obj
 0001:000c7010       ?erase@?$HashBase@PBVPxRigidActor@physx@@PBV12@U?$Hash@PBVPxRigidActor@physx@@@shdfnd@2@UGetKey@?$HashSetBase@PBVPxRigidActor@physx@@U?$Hash@PBVPxRigidActor@physx@@@shdfnd@2@VNonTrackingAllocator@42@$0A@@internal@42@VNonTrackingAllocator@42@$0A@@internal@shdfnd@physx@@QAE_NABQBVPxRigidActor@4@@Z 100c8010 f i PvdMetaDataPvdBinding.obj
 0001:000c70e0       ?erase@?$HashBase@V?$Pair@QBVPxShape@physx@@PAV?$HashSet@PBVPxRigidActor@physx@@U?$Hash@PBVPxRigidActor@physx@@@shdfnd@2@VNonTrackingAllocator@42@@shdfnd@2@@shdfnd@physx@@PBVPxShape@3@U?$Hash@PBVPxShape@physx@@@23@UGetKey@?$HashMapBase@PBVPxShape@physx@@PAV?$HashSet@PBVPxRigidActor@physx@@U?$Hash@PBVPxRigidActor@physx@@@shdfnd@2@VNonTrackingAllocator@42@@shdfnd@2@U?$Hash@PBVPxShape@physx@@@42@VNonTrackingAllocator@42@@internal@23@VNonTrackingAllocator@23@$00@internal@shdfnd@physx@@QAE_NABQBVPxShape@4@@Z 100c80e0 f i PvdMetaDataPvdBinding.obj
 0001:000c71c0       ?find@?$HashBase@PAVPxActor@physx@@PAV12@U?$Hash@PAVPxActor@physx@@@shdfnd@2@UGetKey@?$HashSetBase@PAVPxActor@physx@@U?$Hash@PAVPxActor@physx@@@shdfnd@2@VNonTrackingAllocator@42@$0A@@internal@42@VNonTrackingAllocator@42@$0A@@internal@shdfnd@physx@@QBEPBQAVPxActor@4@ABQAV54@@Z 100c81c0 f i PvdMetaDataPvdBinding.obj
 0001:000c7270       ?find@?$HashBase@PBVPxRigidActor@physx@@PBV12@U?$Hash@PBVPxRigidActor@physx@@@shdfnd@2@UGetKey@?$HashSetBase@PBVPxRigidActor@physx@@U?$Hash@PBVPxRigidActor@physx@@@shdfnd@2@VNonTrackingAllocator@42@$0A@@internal@42@VNonTrackingAllocator@42@$0A@@internal@shdfnd@physx@@QBEPBQBVPxRigidActor@4@ABQBV54@@Z 100c8270 f i PvdMetaDataPvdBinding.obj
 0001:000c7320       ?find@?$HashBase@V?$Pair@QBVPxShape@physx@@PAV?$HashSet@PBVPxRigidActor@physx@@U?$Hash@PBVPxRigidActor@physx@@@shdfnd@2@VNonTrackingAllocator@42@@shdfnd@2@@shdfnd@physx@@PBVPxShape@3@U?$Hash@PBVPxShape@physx@@@23@UGetKey@?$HashMapBase@PBVPxShape@physx@@PAV?$HashSet@PBVPxRigidActor@physx@@U?$Hash@PBVPxRigidActor@physx@@@shdfnd@2@VNonTrackingAllocator@42@@shdfnd@2@U?$Hash@PBVPxShape@physx@@@42@VNonTrackingAllocator@42@@internal@23@VNonTrackingAllocator@23@$00@internal@shdfnd@physx@@QBEPBV?$Pair@QBVPxShape@physx@@PAV?$HashSet@PBVPxRigidActor@physx@@U?$Hash@PBVPxRigidActor@physx@@@shdfnd@2@VNonTrackingAllocator@42@@shdfnd@2@@34@ABQBVPxShape@4@@Z 100c8320 f i PvdMetaDataPvdBinding.obj
 0001:000c73d0       ?freeListAdd@?$HashBase@PBVPxRigidActor@physx@@PBV12@U?$Hash@PBVPxRigidActor@physx@@@shdfnd@2@UGetKey@?$HashSetBase@PBVPxRigidActor@physx@@U?$Hash@PBVPxRigidActor@physx@@@shdfnd@2@VNonTrackingAllocator@42@$0A@@internal@42@VNonTrackingAllocator@42@$0A@@internal@shdfnd@physx@@AAEXII@Z 100c83d0 f i PvdMetaDataPvdBinding.obj
 0001:000c74d0       ?getCollisionNormals@Vd@physx@@YA?AV?$PxStrideIterator@$$CBVPxVec3@physx@@@2@PBVPxParticleReadData@2@@Z 100c84d0 f i PvdMetaDataPvdBinding.obj
 0001:000c74f0       ?getDensities@Vd@physx@@YA?AV?$PxStrideIterator@$$CBM@2@PBVPxParticleFluidReadData@2@@Z 100c84f0 f i PvdMetaDataPvdBinding.obj
 0001:000c7510       ?getFlags@Vd@physx@@YA?AV?$PxStrideIterator@$$CBV?$PxFlags@W4Enum@PxParticleFlag@physx@@G@physx@@@2@PBVPxParticleReadData@2@@Z 100c8510 f i PvdMetaDataPvdBinding.obj
 0001:000c7530       ?getPositions@Vd@physx@@YA?AV?$PxStrideIterator@$$CBVPxVec3@physx@@@2@PBVPxParticleReadData@2@@Z 100c8530 f i PvdMetaDataPvdBinding.obj
 0001:000c7550       ?getRestOffsets@Vd@physx@@YA?AV?$PxStrideIterator@$$CBM@2@PBVPxParticleReadData@2@@Z 100c8550 f i PvdMetaDataPvdBinding.obj
 0001:000c7570       ?getVelocities@Vd@physx@@YA?AV?$PxStrideIterator@$$CBVPxVec3@physx@@@2@PBVPxParticleReadData@2@@Z 100c8570 f i PvdMetaDataPvdBinding.obj
 0001:000c7590       ?growAndPushBack@?$Array@GVNamedAllocator@shdfnd@physx@@@shdfnd@physx@@IAEAAGABG@Z 100c8590 f i PvdMetaDataPvdBinding.obj
 0001:000c7690       ?growAndPushBack@?$Array@UHalfedge@HalfedgeMesh@?A0x64ebb6ee@Vd@physx@@VNamedAllocator@shdfnd@5@@shdfnd@physx@@IAEAAUHalfedge@HalfedgeMesh@?A0x64ebb6ee@Vd@3@ABU45673@@Z 100c8690 f i PvdMetaDataPvdBinding.obj
 0001:000c7790       ?growAndPushBack@?$Array@VPxVec3@physx@@VNamedAllocator@shdfnd@2@@shdfnd@physx@@IAEAAVPxVec3@3@ABV43@@Z 100c8790 f i PvdMetaDataPvdBinding.obj
 0001:000c7890       ?growAndPushBack@?$Array@VPxVec4@physx@@VNamedAllocator@shdfnd@2@@shdfnd@physx@@IAEAAVPxVec4@3@ABV43@@Z 100c8890 f i PvdMetaDataPvdBinding.obj
 0001:000c7990       ?recreate@?$Array@PAVPxArticulationLink@physx@@VNamedAllocator@shdfnd@2@@shdfnd@physx@@IAEXI@Z 100c8990 f i PvdMetaDataPvdBinding.obj
 0001:000c7a50       ?recreate@?$Array@PAVPxShape@physx@@V?$InlineAllocator@$0BE@VNamedAllocator@shdfnd@physx@@@shdfnd@2@@shdfnd@physx@@IAEXI@Z 100c8a50 f i PvdMetaDataPvdBinding.obj
 0001:000c7b50       ?recreate@?$Array@VPxVec4@physx@@VNamedAllocator@shdfnd@2@@shdfnd@physx@@IAEXI@Z 100c8b50 f i PvdMetaDataPvdBinding.obj
 0001:000c7e90       ?replaceWithLast@?$HashBase@V?$Pair@QBVPxShape@physx@@PAV?$HashSet@PBVPxRigidActor@physx@@U?$Hash@PBVPxRigidActor@physx@@@shdfnd@2@VNonTrackingAllocator@42@@shdfnd@2@@shdfnd@physx@@PBVPxShape@3@U?$Hash@PBVPxShape@physx@@@23@UGetKey@?$HashMapBase@PBVPxShape@physx@@PAV?$HashSet@PBVPxRigidActor@physx@@U?$Hash@PBVPxRigidActor@physx@@@shdfnd@2@VNonTrackingAllocator@42@@shdfnd@2@U?$Hash@PBVPxShape@physx@@@42@VNonTrackingAllocator@42@@internal@23@VNonTrackingAllocator@23@$00@internal@shdfnd@physx@@AAEXI@Z 100c8e90 f i PvdMetaDataPvdBinding.obj
 0001:000c7f50       ?reserveInternal@?$HashBase@PBVPxRigidActor@physx@@PBV12@U?$Hash@PBVPxRigidActor@physx@@@shdfnd@2@UGetKey@?$HashSetBase@PBVPxRigidActor@physx@@U?$Hash@PBVPxRigidActor@physx@@@shdfnd@2@VNonTrackingAllocator@42@$0A@@internal@42@VNonTrackingAllocator@42@$0A@@internal@shdfnd@physx@@AAEXI@Z 100c8f50 f i PvdMetaDataPvdBinding.obj
 0001:000c8240       ?reserveInternal@?$HashBase@V?$Pair@QBVPxShape@physx@@PAV?$HashSet@PBVPxRigidActor@physx@@U?$Hash@PBVPxRigidActor@physx@@@shdfnd@2@VNonTrackingAllocator@42@@shdfnd@2@@shdfnd@physx@@PBVPxShape@3@U?$Hash@PBVPxShape@physx@@@23@UGetKey@?$HashMapBase@PBVPxShape@physx@@PAV?$HashSet@PBVPxRigidActor@physx@@U?$Hash@PBVPxRigidActor@physx@@@shdfnd@2@VNonTrackingAllocator@42@@shdfnd@2@U?$Hash@PBVPxShape@physx@@@42@VNonTrackingAllocator@42@@internal@23@VNonTrackingAllocator@23@$00@internal@shdfnd@physx@@AAEXI@Z 100c9240 f i PvdMetaDataPvdBinding.obj
 0001:000c8450       ?resize@?$Array@PAVPxArticulationLink@physx@@VNamedAllocator@shdfnd@2@@shdfnd@physx@@QAEXIABQAVPxArticulationLink@3@@Z 100c9450 f i PvdMetaDataPvdBinding.obj
 0001:000c84b0       ?resize@?$Array@PAVPxShape@physx@@V?$InlineAllocator@$0BE@VNamedAllocator@shdfnd@physx@@@shdfnd@2@@shdfnd@physx@@QAEXIABQAVPxShape@3@@Z 100c94b0 f i PvdMetaDataPvdBinding.obj
 0001:000c8510       ?run@ChangeOjectRefCmd@Vd@physx@@UAEXAAVPvdInstanceDataStream@pvdsdk@3@@Z 100c9510 f i PvdMetaDataPvdBinding.obj
 0001:000c8580       ?run@PvdCommand@PvdInstanceDataStream@pvdsdk@physx@@UAEXAAV234@@Z 100c9580 f i PvdMetaDataPvdBinding.obj
 0001:000c8cc0       ??0PvdPhysicsClient@Vd@physx@@QAE@PAVPsPvd@pvdsdk@2@@Z 100c9cc0 f   PvdPhysicsClient.obj
 0001:000c8d10       ??1PvdPhysicsClient@Vd@physx@@UAE@XZ 100c9d10 f   PvdPhysicsClient.obj
 0001:000c8d50       ?isConnected@PvdPhysicsClient@Vd@physx@@UBE_NXZ 100c9d50 f   PvdPhysicsClient.obj
 0001:000c8d60       ?onPvdConnected@PvdPhysicsClient@Vd@physx@@UAEXXZ 100c9d60 f   PvdPhysicsClient.obj
 0001:000c8d90       ?onPvdDisconnected@PvdPhysicsClient@Vd@physx@@UAEXXZ 100c9d90 f   PvdPhysicsClient.obj
 0001:000c8db0       ?flush@PvdPhysicsClient@Vd@physx@@UAEXXZ 100c9db0 f   PvdPhysicsClient.obj
 0001:000c8dc0       ?getDataStream@PvdPhysicsClient@Vd@physx@@UAEPAVPvdDataStream@pvdsdk@3@XZ 100c9dc0 f   PvdPhysicsClient.obj
 0001:000c8dd0       ?getMetaDataBinding@PvdPhysicsClient@Vd@physx@@QAEPAVPvdMetaDataBinding@23@XZ 100c9dd0 f   PvdPhysicsClient.obj
 0001:000c8de0       ?getUserRender@PvdPhysicsClient@Vd@physx@@UAEPAVPvdUserRenderer@pvdsdk@3@XZ 100c9de0 f   PvdPhysicsClient.obj
 0001:000c8df0       ?sendEntireSDK@PvdPhysicsClient@Vd@physx@@QAEXXZ 100c9df0 f   PvdPhysicsClient.obj
 0001:000c9210       ?destroyPvdInstance@PvdPhysicsClient@Vd@physx@@QAEXPBVPxPhysics@3@@Z 100ca210 f   PvdPhysicsClient.obj
 0001:000c9230       ?onGuMeshFactoryBufferRelease@PvdPhysicsClient@Vd@physx@@UAEXPBVPxBase@3@G@Z 100ca230 f   PvdPhysicsClient.obj
 0001:000c92b0       ?onNpFactoryBufferRelease@PvdPhysicsClient@Vd@physx@@UAEXAAVPxClothFabric@3@@Z 100ca2b0 f   PvdPhysicsClient.obj
 0001:000c92f0       ?reportError@PvdPhysicsClient@Vd@physx@@UAEXW4Enum@PxErrorCode@3@PBD1H@Z 100ca2f0 f   PvdPhysicsClient.obj
 0001:000c9310       ?createPvdInstance@PvdPhysicsClient@Vd@physx@@AAEXPBVPxTriangleMesh@3@@Z 100ca310 f   PvdPhysicsClient.obj
 0001:000c9330       ?destroyPvdInstance@PvdPhysicsClient@Vd@physx@@AAEXPBVPxTriangleMesh@3@@Z 100ca330 f   PvdPhysicsClient.obj
 0001:000c9350       ?createPvdInstance@PvdPhysicsClient@Vd@physx@@AAEXPBVPxConvexMesh@3@@Z 100ca350 f   PvdPhysicsClient.obj
 0001:000c9370       ?destroyPvdInstance@PvdPhysicsClient@Vd@physx@@AAEXPBVPxConvexMesh@3@@Z 100ca370 f   PvdPhysicsClient.obj
 0001:000c9390       ?createPvdInstance@PvdPhysicsClient@Vd@physx@@AAEXPBVPxHeightField@3@@Z 100ca390 f   PvdPhysicsClient.obj
 0001:000c93b0       ?destroyPvdInstance@PvdPhysicsClient@Vd@physx@@AAEXPBVPxHeightField@3@@Z 100ca3b0 f   PvdPhysicsClient.obj
 0001:000c93d0       ?createPvdInstance@PvdPhysicsClient@Vd@physx@@AAEXPBVPxMaterial@3@@Z 100ca3d0 f   PvdPhysicsClient.obj
 0001:000c93f0       ?destroyPvdInstance@PvdPhysicsClient@Vd@physx@@AAEXPBVPxMaterial@3@@Z 100ca3f0 f   PvdPhysicsClient.obj
 0001:000c9410       ?updatePvdProperties@PvdPhysicsClient@Vd@physx@@AAEXPBVPxMaterial@3@@Z 100ca410 f   PvdPhysicsClient.obj
 0001:000c9430       ?createPvdInstance@PvdPhysicsClient@Vd@physx@@AAEXPBVPxClothFabric@3@@Z 100ca430 f   PvdPhysicsClient.obj
 0001:000c9450       ?destroyPvdInstance@PvdPhysicsClient@Vd@physx@@AAEXPBVPxClothFabric@3@@Z 100ca450 f   PvdPhysicsClient.obj
 0001:000c9660       ??1NpFactoryListener@physx@@MAE@XZ 100ca660 f i PvdPhysicsClient.obj
 0001:000c9670       ??1PxErrorCallback@physx@@UAE@XZ 100ca670 f i PvdPhysicsClient.obj
 0001:000c9677       ??_EPvdPhysicsClient@Vd@physx@@W3AEPAXI@Z 100ca677 f i PvdPhysicsClient.obj
 0001:000c9681       ??_EPvdPhysicsClient@Vd@physx@@W7AEPAXI@Z 100ca681 f i PvdPhysicsClient.obj
 0001:000c9690       ??_ENpFactoryListener@physx@@MAEPAXI@Z 100ca690 f i PvdPhysicsClient.obj
 0001:000c9690       ??_GNpFactoryListener@physx@@MAEPAXI@Z 100ca690 f i PvdPhysicsClient.obj
 0001:000c96c0       ??_GPvdPhysicsClient@Vd@physx@@UAEPAXI@Z 100ca6c0 f i PvdPhysicsClient.obj
 0001:000c96c0       ??_EPvdPhysicsClient@Vd@physx@@UAEPAXI@Z 100ca6c0 f i PvdPhysicsClient.obj
 0001:000c9750       ??_GPxErrorCallback@physx@@UAEPAXI@Z 100ca750 f i PvdPhysicsClient.obj
 0001:000c9750       ??_EPxErrorCallback@physx@@UAEPAXI@Z 100ca750 f i PvdPhysicsClient.obj
 0001:000c9780       ?recreate@?$Array@PAVPxClothFabric@physx@@VNamedAllocator@shdfnd@2@@shdfnd@physx@@IAEXI@Z 100ca780 f i PvdPhysicsClient.obj
 0001:000c9840       ?recreate@?$Array@PAVPxConvexMesh@physx@@VNamedAllocator@shdfnd@2@@shdfnd@physx@@IAEXI@Z 100ca840 f i PvdPhysicsClient.obj
 0001:000c9900       ?recreate@?$Array@PAVPxHeightField@physx@@VNamedAllocator@shdfnd@2@@shdfnd@physx@@IAEXI@Z 100ca900 f i PvdPhysicsClient.obj
 0001:000c99c0       ?recreate@?$Array@PAVPxMaterial@physx@@VNamedAllocator@shdfnd@2@@shdfnd@physx@@IAEXI@Z 100ca9c0 f i PvdPhysicsClient.obj
 0001:000c9a80       ?recreate@?$Array@PAVPxTriangleMesh@physx@@VNamedAllocator@shdfnd@2@@shdfnd@physx@@IAEXI@Z 100caa80 f i PvdPhysicsClient.obj
 0001:000c9b40       ?resize@?$Array@PAVPxClothFabric@physx@@VNamedAllocator@shdfnd@2@@shdfnd@physx@@QAEXIABQAVPxClothFabric@3@@Z 100cab40 f i PvdPhysicsClient.obj
 0001:000c9ba0       ?resize@?$Array@PAVPxConvexMesh@physx@@VNamedAllocator@shdfnd@2@@shdfnd@physx@@QAEXIABQAVPxConvexMesh@3@@Z 100caba0 f i PvdPhysicsClient.obj
 0001:000c9c00       ?resize@?$Array@PAVPxHeightField@physx@@VNamedAllocator@shdfnd@2@@shdfnd@physx@@QAEXIABQAVPxHeightField@3@@Z 100cac00 f i PvdPhysicsClient.obj
 0001:000c9c60       ?resize@?$Array@PAVPxMaterial@physx@@VNamedAllocator@shdfnd@2@@shdfnd@physx@@QAEXIABQAVPxMaterial@3@@Z 100cac60 f i PvdPhysicsClient.obj
 0001:000c9cc0       ?resize@?$Array@PAVPxTriangleMesh@physx@@VNamedAllocator@shdfnd@2@@shdfnd@physx@@QAEXIABQAVPxTriangleMesh@3@@Z 100cacc0 f i PvdPhysicsClient.obj
 0001:000c9d20       ??0PxPhysicsGeneratedValues@physx@@QAE@PBVPxPhysics@1@@Z 100cad20 f   PxAutoGeneratedMetaDataObjects.obj
 0001:000c9d50       ??0PxPhysicsGeneratedInfo@physx@@QAE@XZ 100cad50 f   PxAutoGeneratedMetaDataObjects.obj
 0001:000c9e50       ??0PxMaterialGeneratedValues@physx@@QAE@PBVPxMaterial@1@@Z 100cae50 f   PxAutoGeneratedMetaDataObjects.obj
 0001:000c9ec0       ??0PxMaterialGeneratedInfo@physx@@QAE@XZ 100caec0 f   PxAutoGeneratedMetaDataObjects.obj
 0001:000c9fc0       ??0PxActorGeneratedValues@physx@@QAE@PBVPxActor@1@@Z 100cafc0 f   PxAutoGeneratedMetaDataObjects.obj
 0001:000ca030       ??0PxActorGeneratedInfo@physx@@QAE@XZ 100cb030 f   PxAutoGeneratedMetaDataObjects.obj
 0001:000ca110       ??0PxRigidActorGeneratedValues@physx@@QAE@PBVPxRigidActor@1@@Z 100cb110 f   PxAutoGeneratedMetaDataObjects.obj
 0001:000ca180       ??0PxRigidActorGeneratedInfo@physx@@QAE@XZ 100cb180 f   PxAutoGeneratedMetaDataObjects.obj
 0001:000ca200       ??0PxRigidBodyGeneratedValues@physx@@QAE@PBVPxRigidBody@1@@Z 100cb200 f   PxAutoGeneratedMetaDataObjects.obj
 0001:000ca2c0       ??0PxRigidBodyGeneratedInfo@physx@@QAE@XZ 100cb2c0 f   PxAutoGeneratedMetaDataObjects.obj
 0001:000ca470       ??0PxRigidDynamicGeneratedValues@physx@@QAE@PBVPxRigidDynamic@1@@Z 100cb470 f   PxAutoGeneratedMetaDataObjects.obj
 0001:000ca550       ??0PxRigidDynamicGeneratedInfo@physx@@QAE@XZ 100cb550 f   PxAutoGeneratedMetaDataObjects.obj
 0001:000ca720       ??0PxRigidStaticGeneratedValues@physx@@QAE@PBVPxRigidStatic@1@@Z 100cb720 f   PxAutoGeneratedMetaDataObjects.obj
 0001:000ca750       ??0PxRigidStaticGeneratedInfo@physx@@QAE@XZ 100cb750 f   PxAutoGeneratedMetaDataObjects.obj
 0001:000ca780       ??0PxArticulationLinkGeneratedValues@physx@@QAE@PBVPxArticulationLink@1@@Z 100cb780 f   PxAutoGeneratedMetaDataObjects.obj
 0001:000ca7c0       ??0PxArticulationLinkGeneratedInfo@physx@@QAE@XZ 100cb7c0 f   PxAutoGeneratedMetaDataObjects.obj
 0001:000ca830       ??0PxArticulationJointGeneratedValues@physx@@QAE@PBVPxArticulationJoint@1@@Z 100cb830 f   PxAutoGeneratedMetaDataObjects.obj
 0001:000ca930       ??0PxArticulationJointGeneratedInfo@physx@@QAE@XZ 100cb930 f   PxAutoGeneratedMetaDataObjects.obj
 0001:000cabc0       ??0PxArticulationGeneratedValues@physx@@QAE@PBVPxArticulation@1@@Z 100cbbc0 f   PxAutoGeneratedMetaDataObjects.obj
 0001:000cac70       ??0PxArticulationGeneratedInfo@physx@@QAE@XZ 100cbc70 f   PxAutoGeneratedMetaDataObjects.obj
 0001:000cae60       ??0PxAggregateGeneratedValues@physx@@QAE@PBVPxAggregate@1@@Z 100cbe60 f   PxAutoGeneratedMetaDataObjects.obj
 0001:000caea0       ??0PxAggregateGeneratedInfo@physx@@QAE@XZ 100cbea0 f   PxAutoGeneratedMetaDataObjects.obj
 0001:000caf00       ??0PxConstraintGeneratedValues@physx@@QAE@PBVPxConstraint@1@@Z 100cbf00 f   PxAutoGeneratedMetaDataObjects.obj
 0001:000caf70       ??0PxConstraintGeneratedInfo@physx@@QAE@XZ 100cbf70 f   PxAutoGeneratedMetaDataObjects.obj
 0001:000cb040       ??0PxShapeGeneratedValues@physx@@QAE@PBVPxShape@1@@Z 100cc040 f   PxAutoGeneratedMetaDataObjects.obj
 0001:000cb0e0       ??0PxShapeGeneratedInfo@physx@@QAE@XZ 100cc0e0 f   PxAutoGeneratedMetaDataObjects.obj
 0001:000cb270       ??0PxClothFabricGeneratedValues@physx@@QAE@PBVPxClothFabric@1@@Z 100cc270 f   PxAutoGeneratedMetaDataObjects.obj
 0001:000cb2a0       ??0PxClothFabricGeneratedInfo@physx@@QAE@XZ 100cc2a0 f   PxAutoGeneratedMetaDataObjects.obj
 0001:000cb360       ??0PxClothGeneratedValues@physx@@QAE@PBVPxCloth@1@@Z 100cc360 f   PxAutoGeneratedMetaDataObjects.obj
 0001:000cb650       ??0PxClothGeneratedInfo@physx@@QAE@XZ 100cc650 f   PxAutoGeneratedMetaDataObjects.obj
 0001:000cbb40       ??0PxParticleBaseGeneratedValues@physx@@QAE@PBVPxParticleBase@1@@Z 100ccb40 f   PxAutoGeneratedMetaDataObjects.obj
 0001:000cbca0       ??0PxParticleBaseGeneratedInfo@physx@@QAE@XZ 100ccca0 f   PxAutoGeneratedMetaDataObjects.obj
 0001:000cbed0       ??0PxParticleFluidGeneratedValues@physx@@QAE@PBVPxParticleFluid@1@@Z 100cced0 f   PxAutoGeneratedMetaDataObjects.obj
 0001:000cbf20       ??0PxParticleFluidGeneratedInfo@physx@@QAE@XZ 100ccf20 f   PxAutoGeneratedMetaDataObjects.obj
 0001:000cbfd0       ??0PxParticleSystemGeneratedValues@physx@@QAE@PBVPxParticleSystem@1@@Z 100ccfd0 f   PxAutoGeneratedMetaDataObjects.obj
 0001:000cc000       ??0PxParticleSystemGeneratedInfo@physx@@QAE@XZ 100cd000 f   PxAutoGeneratedMetaDataObjects.obj
 0001:000cc030       ??0PxPruningStructureGeneratedValues@physx@@QAE@PBVPxPruningStructure@1@@Z 100cd030 f   PxAutoGeneratedMetaDataObjects.obj
 0001:000cc050       ??0PxPruningStructureGeneratedInfo@physx@@QAE@XZ 100cd050 f   PxAutoGeneratedMetaDataObjects.obj
 0001:000cc090       ??0PxTolerancesScaleGeneratedValues@physx@@QAE@PBVPxTolerancesScale@1@@Z 100cd090 f   PxAutoGeneratedMetaDataObjects.obj
 0001:000cc0d0       ??0PxTolerancesScaleGeneratedInfo@physx@@QAE@XZ 100cd0d0 f   PxAutoGeneratedMetaDataObjects.obj
 0001:000cc140       ??0PxGeometryGeneratedValues@physx@@QAE@PBVPxGeometry@1@@Z 100cd140 f   PxAutoGeneratedMetaDataObjects.obj
 0001:000cc150       ??0PxGeometryGeneratedInfo@physx@@QAE@XZ 100cd150 f   PxAutoGeneratedMetaDataObjects.obj
 0001:000cc160       ??0PxBoxGeometryGeneratedValues@physx@@QAE@PBVPxBoxGeometry@1@@Z 100cd160 f   PxAutoGeneratedMetaDataObjects.obj
 0001:000cc180       ??0PxBoxGeometryGeneratedInfo@physx@@QAE@XZ 100cd180 f   PxAutoGeneratedMetaDataObjects.obj
 0001:000cc1a0       ??0PxCapsuleGeometryGeneratedValues@physx@@QAE@PBVPxCapsuleGeometry@1@@Z 100cd1a0 f   PxAutoGeneratedMetaDataObjects.obj
 0001:000cc1c0       ??0PxCapsuleGeometryGeneratedInfo@physx@@QAE@XZ 100cd1c0 f   PxAutoGeneratedMetaDataObjects.obj
 0001:000cc200       ??0PxMeshScaleGeneratedValues@physx@@QAE@PBVPxMeshScale@1@@Z 100cd200 f   PxAutoGeneratedMetaDataObjects.obj
 0001:000cc240       ??0PxMeshScaleGeneratedInfo@physx@@QAE@XZ 100cd240 f   PxAutoGeneratedMetaDataObjects.obj
 0001:000cc280       ??0PxConvexMeshGeometryGeneratedValues@physx@@QAE@PBVPxConvexMeshGeometry@1@@Z 100cd280 f   PxAutoGeneratedMetaDataObjects.obj
 0001:000cc2d0       ??0PxConvexMeshGeometryGeneratedInfo@physx@@QAE@XZ 100cd2d0 f   PxAutoGeneratedMetaDataObjects.obj
 0001:000cc350       ??0PxSphereGeometryGeneratedValues@physx@@QAE@PBVPxSphereGeometry@1@@Z 100cd350 f   PxAutoGeneratedMetaDataObjects.obj
 0001:000cc370       ??0PxSphereGeometryGeneratedInfo@physx@@QAE@XZ 100cd370 f   PxAutoGeneratedMetaDataObjects.obj
 0001:000cc390       ??0PxPlaneGeometryGeneratedValues@physx@@QAE@PBVPxPlaneGeometry@1@@Z 100cd390 f   PxAutoGeneratedMetaDataObjects.obj
 0001:000cc3a0       ??0PxPlaneGeometryGeneratedInfo@physx@@QAE@XZ 100cd3a0 f   PxAutoGeneratedMetaDataObjects.obj
 0001:000cc3b0       ??0PxTriangleMeshGeometryGeneratedValues@physx@@QAE@PBVPxTriangleMeshGeometry@1@@Z 100cd3b0 f   PxAutoGeneratedMetaDataObjects.obj
 0001:000cc400       ??0PxTriangleMeshGeometryGeneratedInfo@physx@@QAE@XZ 100cd400 f   PxAutoGeneratedMetaDataObjects.obj
 0001:000cc460       ??0PxHeightFieldGeometryGeneratedValues@physx@@QAE@PBVPxHeightFieldGeometry@1@@Z 100cd460 f   PxAutoGeneratedMetaDataObjects.obj
 0001:000cc490       ??0PxHeightFieldGeometryGeneratedInfo@physx@@QAE@XZ 100cd490 f   PxAutoGeneratedMetaDataObjects.obj
 0001:000cc520       ??0PxHeightFieldDescGeneratedValues@physx@@QAE@PBVPxHeightFieldDesc@1@@Z 100cd520 f   PxAutoGeneratedMetaDataObjects.obj
 0001:000cc560       ??0PxHeightFieldDescGeneratedInfo@physx@@QAE@XZ 100cd560 f   PxAutoGeneratedMetaDataObjects.obj
 0001:000cc630       ??0PxSceneGeneratedValues@physx@@QAE@PBVPxScene@1@@Z 100cd630 f   PxAutoGeneratedMetaDataObjects.obj
 0001:000cc810       ??0PxSceneGeneratedInfo@physx@@QAE@XZ 100cd810 f   PxAutoGeneratedMetaDataObjects.obj
 0001:000ccce0       ??0PxClothParticleGeneratedValues@physx@@QAE@PBUPxClothParticle@1@@Z 100cdce0 f   PxAutoGeneratedMetaDataObjects.obj
 0001:000ccd10       ??0PxClothParticleGeneratedInfo@physx@@QAE@XZ 100cdd10 f   PxAutoGeneratedMetaDataObjects.obj
 0001:000ccd50       ??0PxClothFabricPhaseGeneratedValues@physx@@QAE@PBUPxClothFabricPhase@1@@Z 100cdd50 f   PxAutoGeneratedMetaDataObjects.obj
 0001:000ccd70       ??0PxClothFabricPhaseGeneratedInfo@physx@@QAE@XZ 100cdd70 f   PxAutoGeneratedMetaDataObjects.obj
 0001:000ccdb0       ??0PxSceneLimitsGeneratedValues@physx@@QAE@PBVPxSceneLimits@1@@Z 100cddb0 f   PxAutoGeneratedMetaDataObjects.obj
 0001:000ccdf0       ??0PxSceneLimitsGeneratedInfo@physx@@QAE@XZ 100cddf0 f   PxAutoGeneratedMetaDataObjects.obj
 0001:000ccf00       ??0PxgDynamicsMemoryConfigGeneratedValues@physx@@QAE@PBUPxgDynamicsMemoryConfig@1@@Z 100cdf00 f   PxAutoGeneratedMetaDataObjects.obj
 0001:000ccf40       ??0PxgDynamicsMemoryConfigGeneratedInfo@physx@@QAE@XZ 100cdf40 f   PxAutoGeneratedMetaDataObjects.obj
 0001:000cd030       ??0PxSceneDescGeneratedValues@physx@@QAE@PBVPxSceneDesc@1@@Z 100ce030 f   PxAutoGeneratedMetaDataObjects.obj
 0001:000cd1d0       ??0PxSceneDescGeneratedInfo@physx@@QAE@XZ 100ce1d0 f   PxAutoGeneratedMetaDataObjects.obj
 0001:000cd710       ??0PxSimulationStatisticsGeneratedValues@physx@@QAE@PBVPxSimulationStatistics@1@@Z 100ce710 f   PxAutoGeneratedMetaDataObjects.obj
 0001:000cd850       ??0PxSimulationStatisticsGeneratedInfo@physx@@QAE@XZ 100ce850 f   PxAutoGeneratedMetaDataObjects.obj
 0001:000cdbc0       ??0PxLockedDataGeneratedValues@physx@@QAE@PBVPxLockedData@1@@Z 100cebc0 f   PxAutoGeneratedMetaDataObjects.obj
 0001:000cdbd0       ??0PxLockedDataGeneratedInfo@physx@@QAE@XZ 100cebd0 f   PxAutoGeneratedMetaDataObjects.obj
 0001:000cdbe0       ??0PxParticleReadDataGeneratedValues@physx@@QAE@PBVPxParticleReadData@1@@Z 100cebe0 f   PxAutoGeneratedMetaDataObjects.obj
 0001:000cdc50       ??0PxParticleReadDataGeneratedInfo@physx@@QAE@XZ 100cec50 f   PxAutoGeneratedMetaDataObjects.obj
 0001:000cdd60       ??0PxClothStretchConfigGeneratedValues@physx@@QAE@PBUPxClothStretchConfig@1@@Z 100ced60 f   PxAutoGeneratedMetaDataObjects.obj
 0001:000cdd90       ??0PxClothStretchConfigGeneratedInfo@physx@@QAE@XZ 100ced90 f   PxAutoGeneratedMetaDataObjects.obj
 0001:000cde10       ??0PxClothTetherConfigGeneratedValues@physx@@QAE@PBUPxClothTetherConfig@1@@Z 100cee10 f   PxAutoGeneratedMetaDataObjects.obj
 0001:000cde30       ??0PxClothTetherConfigGeneratedInfo@physx@@QAE@XZ 100cee30 f   PxAutoGeneratedMetaDataObjects.obj
 0001:000cde70       ??0PxClothMotionConstraintConfigGeneratedValues@physx@@QAE@PBUPxClothMotionConstraintConfig@1@@Z 100cee70 f   PxAutoGeneratedMetaDataObjects.obj
 0001:000cde90       ??0PxClothMotionConstraintConfigGeneratedInfo@physx@@QAE@XZ 100cee90 f   PxAutoGeneratedMetaDataObjects.obj
 0001:000cdef0       ??0PxClothParticleDataGeneratedValues@physx@@QAE@PBVPxClothParticleData@1@@Z 100ceef0 f   PxAutoGeneratedMetaDataObjects.obj
 0001:000cdf10       ??0PxClothParticleDataGeneratedInfo@physx@@QAE@XZ 100cef10 f   PxAutoGeneratedMetaDataObjects.obj
 0001:000cdf50       ?getPxPhysics_TolerancesScale@@YA?BVPxTolerancesScale@physx@@PBVPxPhysics@2@@Z 100cef50 f   PxAutoGeneratedMetaDataObjects.obj
 0001:000cdf70       ?getPxPhysics_TriangleMeshes@@YAIPBVPxPhysics@physx@@PAPAVPxTriangleMesh@2@I@Z 100cef70 f   PxAutoGeneratedMetaDataObjects.obj
 0001:000cdf90       ?getNbPxPhysics_TriangleMeshes@@YAIPBVPxPhysics@physx@@@Z 100cef90 f   PxAutoGeneratedMetaDataObjects.obj
 0001:000cdfa0       ?createPxPhysics_TriangleMeshes@@YAPAVPxTriangleMesh@physx@@PAVPxPhysics@2@AAVPxInputStream@2@@Z 100cefa0 f   PxAutoGeneratedMetaDataObjects.obj
 0001:000cdfb0       ?getPxPhysics_HeightFields@@YAIPBVPxPhysics@physx@@PAPAVPxHeightField@2@I@Z 100cefb0 f   PxAutoGeneratedMetaDataObjects.obj
 0001:000cdfd0       ?getNbPxPhysics_HeightFields@@YAIPBVPxPhysics@physx@@@Z 100cefd0 f   PxAutoGeneratedMetaDataObjects.obj
 0001:000cdfe0       ?createPxPhysics_HeightFields@@YAPAVPxHeightField@physx@@PAVPxPhysics@2@AAVPxInputStream@2@@Z 100cefe0 f   PxAutoGeneratedMetaDataObjects.obj
 0001:000cdff0       ?getPxPhysics_ConvexMeshes@@YAIPBVPxPhysics@physx@@PAPAVPxConvexMesh@2@I@Z 100ceff0 f   PxAutoGeneratedMetaDataObjects.obj
 0001:000ce010       ?getNbPxPhysics_ConvexMeshes@@YAIPBVPxPhysics@physx@@@Z 100cf010 f   PxAutoGeneratedMetaDataObjects.obj
 0001:000ce020       ?createPxPhysics_ConvexMeshes@@YAPAVPxConvexMesh@physx@@PAVPxPhysics@2@AAVPxInputStream@2@@Z 100cf020 f   PxAutoGeneratedMetaDataObjects.obj
 0001:000ce030       ?getPxPhysics_ClothFabrics@@YAIPBVPxPhysics@physx@@PAPAVPxClothFabric@2@I@Z 100cf030 f   PxAutoGeneratedMetaDataObjects.obj
 0001:000ce050       ?getNbPxPhysics_ClothFabrics@@YAIPBVPxPhysics@physx@@@Z 100cf050 f   PxAutoGeneratedMetaDataObjects.obj
 0001:000ce060       ?getPxPhysics_Scenes@@YAIPBVPxPhysics@physx@@PAPAVPxScene@2@I@Z 100cf060 f   PxAutoGeneratedMetaDataObjects.obj
 0001:000ce080       ?getNbPxPhysics_Scenes@@YAIPBVPxPhysics@physx@@@Z 100cf080 f   PxAutoGeneratedMetaDataObjects.obj
 0001:000ce090       ?createPxPhysics_Scenes@@YAPAVPxScene@physx@@PAVPxPhysics@2@ABVPxSceneDesc@2@@Z 100cf090 f   PxAutoGeneratedMetaDataObjects.obj
 0001:000ce0a0       ?getPxPhysics_Shapes@@YAIPBVPxPhysics@physx@@PAPAVPxShape@2@I@Z 100cf0a0 f   PxAutoGeneratedMetaDataObjects.obj
 0001:000ce0c0       ?getNbPxPhysics_Shapes@@YAIPBVPxPhysics@physx@@@Z 100cf0c0 f   PxAutoGeneratedMetaDataObjects.obj
 0001:000ce0d0       ?getPxPhysics_Materials@@YAIPBVPxPhysics@physx@@PAPAVPxMaterial@2@I@Z 100cf0d0 f   PxAutoGeneratedMetaDataObjects.obj
 0001:000ce0f0       ?getNbPxPhysics_Materials@@YAIPBVPxPhysics@physx@@@Z 100cf0f0 f   PxAutoGeneratedMetaDataObjects.obj
 0001:000ce100       ?getPxMaterial_ReferenceCount@@YAIPBVPxMaterial@physx@@@Z 100cf100 f   PxAutoGeneratedMetaDataObjects.obj
 0001:000ce110       ?setPxMaterial_DynamicFriction@@YAXPAVPxMaterial@physx@@M@Z 100cf110 f   PxAutoGeneratedMetaDataObjects.obj
 0001:000ce130       ?getPxMaterial_DynamicFriction@@YAMPBVPxMaterial@physx@@@Z 100cf130 f   PxAutoGeneratedMetaDataObjects.obj
 0001:000ce140       ?setPxMaterial_StaticFriction@@YAXPAVPxMaterial@physx@@M@Z 100cf140 f   PxAutoGeneratedMetaDataObjects.obj
 0001:000ce160       ?getPxMaterial_StaticFriction@@YAMPBVPxMaterial@physx@@@Z 100cf160 f   PxAutoGeneratedMetaDataObjects.obj
 0001:000ce170       ?setPxMaterial_Restitution@@YAXPAVPxMaterial@physx@@M@Z 100cf170 f   PxAutoGeneratedMetaDataObjects.obj
 0001:000ce190       ?getPxMaterial_Restitution@@YAMPBVPxMaterial@physx@@@Z 100cf190 f   PxAutoGeneratedMetaDataObjects.obj
 0001:000ce1a0       ?setPxMaterial_Flags@@YAXPAVPxMaterial@physx@@V?$PxFlags@W4Enum@PxMaterialFlag@physx@@G@2@@Z 100cf1a0 f   PxAutoGeneratedMetaDataObjects.obj
 0001:000ce1c0       ?getPxMaterial_Flags@@YA?AV?$PxFlags@W4Enum@PxMaterialFlag@physx@@G@physx@@PBVPxMaterial@2@@Z 100cf1c0 f   PxAutoGeneratedMetaDataObjects.obj
 0001:000ce1e0       ?setPxMaterial_FrictionCombineMode@@YAXPAVPxMaterial@physx@@W4Enum@PxCombineMode@2@@Z 100cf1e0 f   PxAutoGeneratedMetaDataObjects.obj
 0001:000ce1f0       ?getPxMaterial_FrictionCombineMode@@YA?AW4Enum@PxCombineMode@physx@@PBVPxMaterial@3@@Z 100cf1f0 f   PxAutoGeneratedMetaDataObjects.obj
 0001:000ce200       ?setPxMaterial_RestitutionCombineMode@@YAXPAVPxMaterial@physx@@W4Enum@PxCombineMode@2@@Z 100cf200 f   PxAutoGeneratedMetaDataObjects.obj
 0001:000ce210       ?getPxMaterial_RestitutionCombineMode@@YA?AW4Enum@PxCombineMode@physx@@PBVPxMaterial@3@@Z 100cf210 f   PxAutoGeneratedMetaDataObjects.obj
 0001:000ce220       ?getPxMaterial_ConcreteTypeName@@YAPBDPBVPxMaterial@physx@@@Z 100cf220 f   PxAutoGeneratedMetaDataObjects.obj
 0001:000ce230       ?getPxActor_Scene@@YAPAVPxScene@physx@@PBVPxActor@2@@Z 100cf230 f   PxAutoGeneratedMetaDataObjects.obj
 0001:000ce240       ?setPxActor_Name@@YAXPAVPxActor@physx@@PBD@Z 100cf240 f   PxAutoGeneratedMetaDataObjects.obj
 0001:000ce250       ?getPxActor_Name@@YAPBDPBVPxActor@physx@@@Z 100cf250 f   PxAutoGeneratedMetaDataObjects.obj
 0001:000ce260       ?setPxActor_ActorFlags@@YAXPAVPxActor@physx@@V?$PxFlags@W4Enum@PxActorFlag@physx@@E@2@@Z 100cf260 f   PxAutoGeneratedMetaDataObjects.obj
 0001:000ce280       ?getPxActor_ActorFlags@@YA?AV?$PxFlags@W4Enum@PxActorFlag@physx@@E@physx@@PBVPxActor@2@@Z 100cf280 f   PxAutoGeneratedMetaDataObjects.obj
 0001:000ce2a0       ?setPxActor_DominanceGroup@@YAXPAVPxActor@physx@@E@Z 100cf2a0 f   PxAutoGeneratedMetaDataObjects.obj
 0001:000ce2b0       ?getPxActor_DominanceGroup@@YAEPBVPxActor@physx@@@Z 100cf2b0 f   PxAutoGeneratedMetaDataObjects.obj
 0001:000ce2c0       ?setPxActor_OwnerClient@@YAXPAVPxActor@physx@@E@Z 100cf2c0 f   PxAutoGeneratedMetaDataObjects.obj
 0001:000ce2d0       ?getPxActor_OwnerClient@@YAEPBVPxActor@physx@@@Z 100cf2d0 f   PxAutoGeneratedMetaDataObjects.obj
 0001:000ce2e0       ?setPxActor_ClientBehaviorFlags@@YAXPAVPxActor@physx@@V?$PxFlags@W4Enum@PxActorClientBehaviorFlag@physx@@E@2@@Z 100cf2e0 f   PxAutoGeneratedMetaDataObjects.obj
 0001:000ce300       ?getPxActor_ClientBehaviorFlags@@YA?AV?$PxFlags@W4Enum@PxActorClientBehaviorFlag@physx@@E@physx@@PBVPxActor@2@@Z 100cf300 f   PxAutoGeneratedMetaDataObjects.obj
 0001:000ce320       ?getPxActor_Aggregate@@YAPAVPxAggregate@physx@@PBVPxActor@2@@Z 100cf320 f   PxAutoGeneratedMetaDataObjects.obj
 0001:000ce330       ?setPxRigidActor_GlobalPose@@YAXPAVPxRigidActor@physx@@ABVPxTransform@2@@Z 100cf330 f   PxAutoGeneratedMetaDataObjects.obj
 0001:000ce350       ?getPxRigidActor_GlobalPose@@YA?AVPxTransform@physx@@PBVPxRigidActor@2@@Z 100cf350 f   PxAutoGeneratedMetaDataObjects.obj
 0001:000ce370       ?getPxRigidActor_Shapes@@YAIPBVPxRigidActor@physx@@PAPAVPxShape@2@I@Z 100cf370 f   PxAutoGeneratedMetaDataObjects.obj
 0001:000ce390       ?getNbPxRigidActor_Shapes@@YAIPBVPxRigidActor@physx@@@Z 100cf390 f   PxAutoGeneratedMetaDataObjects.obj
 0001:000ce3a0       ?getPxRigidActor_Constraints@@YAIPBVPxRigidActor@physx@@PAPAVPxConstraint@2@I@Z 100cf3a0 f   PxAutoGeneratedMetaDataObjects.obj
 0001:000ce3c0       ?getNbPxRigidActor_Constraints@@YAIPBVPxRigidActor@physx@@@Z 100cf3c0 f   PxAutoGeneratedMetaDataObjects.obj
 0001:000ce3d0       ?setPxRigidBody_CMassLocalPose@@YAXPAVPxRigidBody@physx@@ABVPxTransform@2@@Z 100cf3d0 f   PxAutoGeneratedMetaDataObjects.obj
 0001:000ce3e0       ?getPxRigidBody_CMassLocalPose@@YA?AVPxTransform@physx@@PBVPxRigidBody@2@@Z 100cf3e0 f   PxAutoGeneratedMetaDataObjects.obj
 0001:000ce400       ?setPxRigidBody_Mass@@YAXPAVPxRigidBody@physx@@M@Z 100cf400 f   PxAutoGeneratedMetaDataObjects.obj
 0001:000ce420       ?getPxRigidBody_Mass@@YAMPBVPxRigidBody@physx@@@Z 100cf420 f   PxAutoGeneratedMetaDataObjects.obj
 0001:000ce440       ?getPxRigidBody_InvMass@@YAMPBVPxRigidBody@physx@@@Z 100cf440 f   PxAutoGeneratedMetaDataObjects.obj
 0001:000ce460       ?setPxRigidBody_MassSpaceInertiaTensor@@YAXPAVPxRigidBody@physx@@ABVPxVec3@2@@Z 100cf460 f   PxAutoGeneratedMetaDataObjects.obj
 0001:000ce480       ?getPxRigidBody_MassSpaceInertiaTensor@@YA?AVPxVec3@physx@@PBVPxRigidBody@2@@Z 100cf480 f   PxAutoGeneratedMetaDataObjects.obj
 0001:000ce4a0       ?getPxRigidBody_MassSpaceInvInertiaTensor@@YA?AVPxVec3@physx@@PBVPxRigidBody@2@@Z 100cf4a0 f   PxAutoGeneratedMetaDataObjects.obj
 0001:000ce4c0       ?setPxRigidBody_LinearVelocity@@YAXPAVPxRigidBody@physx@@ABVPxVec3@2@@Z 100cf4c0 f   PxAutoGeneratedMetaDataObjects.obj
 0001:000ce4e0       ?getPxRigidBody_LinearVelocity@@YA?AVPxVec3@physx@@PBVPxRigidBody@2@@Z 100cf4e0 f   PxAutoGeneratedMetaDataObjects.obj
 0001:000ce500       ?setPxRigidBody_AngularVelocity@@YAXPAVPxRigidBody@physx@@ABVPxVec3@2@@Z 100cf500 f   PxAutoGeneratedMetaDataObjects.obj
 0001:000ce520       ?getPxRigidBody_AngularVelocity@@YA?AVPxVec3@physx@@PBVPxRigidBody@2@@Z 100cf520 f   PxAutoGeneratedMetaDataObjects.obj
 0001:000ce540       ?setPxRigidBody_RigidBodyFlags@@YAXPAVPxRigidBody@physx@@V?$PxFlags@W4Enum@PxRigidBodyFlag@physx@@E@2@@Z 100cf540 f   PxAutoGeneratedMetaDataObjects.obj
 0001:000ce560       ?getPxRigidBody_RigidBodyFlags@@YA?AV?$PxFlags@W4Enum@PxRigidBodyFlag@physx@@E@physx@@PBVPxRigidBody@2@@Z 100cf560 f   PxAutoGeneratedMetaDataObjects.obj
 0001:000ce580       ?setPxRigidBody_MinCCDAdvanceCoefficient@@YAXPAVPxRigidBody@physx@@M@Z 100cf580 f   PxAutoGeneratedMetaDataObjects.obj
 0001:000ce5a0       ?getPxRigidBody_MinCCDAdvanceCoefficient@@YAMPBVPxRigidBody@physx@@@Z 100cf5a0 f   PxAutoGeneratedMetaDataObjects.obj
 0001:000ce5c0       ?setPxRigidBody_MaxDepenetrationVelocity@@YAXPAVPxRigidBody@physx@@M@Z 100cf5c0 f   PxAutoGeneratedMetaDataObjects.obj
 0001:000ce5e0       ?getPxRigidBody_MaxDepenetrationVelocity@@YAMPBVPxRigidBody@physx@@@Z 100cf5e0 f   PxAutoGeneratedMetaDataObjects.obj
 0001:000ce600       ?setPxRigidBody_MaxContactImpulse@@YAXPAVPxRigidBody@physx@@M@Z 100cf600 f   PxAutoGeneratedMetaDataObjects.obj
 0001:000ce620       ?getPxRigidBody_MaxContactImpulse@@YAMPBVPxRigidBody@physx@@@Z 100cf620 f   PxAutoGeneratedMetaDataObjects.obj
 0001:000ce640       ?setPxRigidDynamic_LinearDamping@@YAXPAVPxRigidDynamic@physx@@M@Z 100cf640 f   PxAutoGeneratedMetaDataObjects.obj
 0001:000ce660       ?getPxRigidDynamic_LinearDamping@@YAMPBVPxRigidDynamic@physx@@@Z 100cf660 f   PxAutoGeneratedMetaDataObjects.obj
 0001:000ce680       ?setPxRigidDynamic_AngularDamping@@YAXPAVPxRigidDynamic@physx@@M@Z 100cf680 f   PxAutoGeneratedMetaDataObjects.obj
 0001:000ce6a0       ?getPxRigidDynamic_AngularDamping@@YAMPBVPxRigidDynamic@physx@@@Z 100cf6a0 f   PxAutoGeneratedMetaDataObjects.obj
 0001:000ce6c0       ?setPxRigidDynamic_MaxAngularVelocity@@YAXPAVPxRigidDynamic@physx@@M@Z 100cf6c0 f   PxAutoGeneratedMetaDataObjects.obj
 0001:000ce6e0       ?getPxRigidDynamic_MaxAngularVelocity@@YAMPBVPxRigidDynamic@physx@@@Z 100cf6e0 f   PxAutoGeneratedMetaDataObjects.obj
 0001:000ce700       ?getPxRigidDynamic_IsSleeping@@YA_NPBVPxRigidDynamic@physx@@@Z 100cf700 f   PxAutoGeneratedMetaDataObjects.obj
 0001:000ce720       ?setPxRigidDynamic_SleepThreshold@@YAXPAVPxRigidDynamic@physx@@M@Z 100cf720 f   PxAutoGeneratedMetaDataObjects.obj
 0001:000ce740       ?getPxRigidDynamic_SleepThreshold@@YAMPBVPxRigidDynamic@physx@@@Z 100cf740 f   PxAutoGeneratedMetaDataObjects.obj
 0001:000ce760       ?setPxRigidDynamic_StabilizationThreshold@@YAXPAVPxRigidDynamic@physx@@M@Z 100cf760 f   PxAutoGeneratedMetaDataObjects.obj
 0001:000ce780       ?getPxRigidDynamic_StabilizationThreshold@@YAMPBVPxRigidDynamic@physx@@@Z 100cf780 f   PxAutoGeneratedMetaDataObjects.obj
 0001:000ce7a0       ?setPxRigidDynamic_RigidDynamicLockFlags@@YAXPAVPxRigidDynamic@physx@@V?$PxFlags@W4Enum@PxRigidDynamicLockFlag@physx@@G@2@@Z 100cf7a0 f   PxAutoGeneratedMetaDataObjects.obj
 0001:000ce7c0       ?getPxRigidDynamic_RigidDynamicLockFlags@@YA?AV?$PxFlags@W4Enum@PxRigidDynamicLockFlag@physx@@G@physx@@PBVPxRigidDynamic@2@@Z 100cf7c0 f   PxAutoGeneratedMetaDataObjects.obj
 0001:000ce7e0       ?setPxRigidDynamic_WakeCounter@@YAXPAVPxRigidDynamic@physx@@M@Z 100cf7e0 f   PxAutoGeneratedMetaDataObjects.obj
 0001:000ce800       ?getPxRigidDynamic_WakeCounter@@YAMPBVPxRigidDynamic@physx@@@Z 100cf800 f   PxAutoGeneratedMetaDataObjects.obj
 0001:000ce820       ?setPxRigidDynamic_SolverIterationCounts@@YAXPAVPxRigidDynamic@physx@@II@Z 100cf820 f   PxAutoGeneratedMetaDataObjects.obj
 0001:000ce840       ?getPxRigidDynamic_SolverIterationCounts@@YAXPBVPxRigidDynamic@physx@@AAI1@Z 100cf840 f   PxAutoGeneratedMetaDataObjects.obj
 0001:000ce860       ?setPxRigidDynamic_ContactReportThreshold@@YAXPAVPxRigidDynamic@physx@@M@Z 100cf860 f   PxAutoGeneratedMetaDataObjects.obj
 0001:000ce880       ?getPxRigidDynamic_ContactReportThreshold@@YAMPBVPxRigidDynamic@physx@@@Z 100cf880 f   PxAutoGeneratedMetaDataObjects.obj
 0001:000ce8a0       ?getPxRigidDynamic_ConcreteTypeName@@YAPBDPBVPxRigidDynamic@physx@@@Z 100cf8a0 f   PxAutoGeneratedMetaDataObjects.obj
 0001:000ce8b0       ?getPxRigidStatic_ConcreteTypeName@@YAPBDPBVPxRigidStatic@physx@@@Z 100cf8b0 f   PxAutoGeneratedMetaDataObjects.obj
 0001:000ce8c0       ?getPxArticulationLink_InboundJoint@@YAPAVPxArticulationJoint@physx@@PBVPxArticulationLink@2@@Z 100cf8c0 f   PxAutoGeneratedMetaDataObjects.obj
 0001:000ce8d0       ?getPxArticulationLink_Children@@YAIPBVPxArticulationLink@physx@@PAPAV12@I@Z 100cf8d0 f   PxAutoGeneratedMetaDataObjects.obj
 0001:000ce8f0       ?getNbPxArticulationLink_Children@@YAIPBVPxArticulationLink@physx@@@Z 100cf8f0 f   PxAutoGeneratedMetaDataObjects.obj
 0001:000ce900       ?getPxArticulationLink_ConcreteTypeName@@YAPBDPBVPxArticulationLink@physx@@@Z 100cf900 f   PxAutoGeneratedMetaDataObjects.obj
 0001:000ce910       ?setPxArticulationJoint_ParentPose@@YAXPAVPxArticulationJoint@physx@@ABVPxTransform@2@@Z 100cf910 f   PxAutoGeneratedMetaDataObjects.obj
 0001:000ce920       ?getPxArticulationJoint_ParentPose@@YA?AVPxTransform@physx@@PBVPxArticulationJoint@2@@Z 100cf920 f   PxAutoGeneratedMetaDataObjects.obj
 0001:000ce940       ?setPxArticulationJoint_ChildPose@@YAXPAVPxArticulationJoint@physx@@ABVPxTransform@2@@Z 100cf940 f   PxAutoGeneratedMetaDataObjects.obj
 0001:000ce950       ?getPxArticulationJoint_ChildPose@@YA?AVPxTransform@physx@@PBVPxArticulationJoint@2@@Z 100cf950 f   PxAutoGeneratedMetaDataObjects.obj
 0001:000ce970       ?setPxArticulationJoint_TargetOrientation@@YAXPAVPxArticulationJoint@physx@@ABVPxQuat@2@@Z 100cf970 f   PxAutoGeneratedMetaDataObjects.obj
 0001:000ce980       ?getPxArticulationJoint_TargetOrientation@@YA?AVPxQuat@physx@@PBVPxArticulationJoint@2@@Z 100cf980 f   PxAutoGeneratedMetaDataObjects.obj
 0001:000ce9a0       ?setPxArticulationJoint_TargetVelocity@@YAXPAVPxArticulationJoint@physx@@ABVPxVec3@2@@Z 100cf9a0 f   PxAutoGeneratedMetaDataObjects.obj
 0001:000ce9b0       ?getPxArticulationJoint_TargetVelocity@@YA?AVPxVec3@physx@@PBVPxArticulationJoint@2@@Z 100cf9b0 f   PxAutoGeneratedMetaDataObjects.obj
 0001:000ce9d0       ?setPxArticulationJoint_DriveType@@YAXPAVPxArticulationJoint@physx@@W4Enum@PxArticulationJointDriveType@2@@Z 100cf9d0 f   PxAutoGeneratedMetaDataObjects.obj
 0001:000ce9e0       ?getPxArticulationJoint_DriveType@@YA?AW4Enum@PxArticulationJointDriveType@physx@@PBVPxArticulationJoint@3@@Z 100cf9e0 f   PxAutoGeneratedMetaDataObjects.obj
 0001:000ce9f0       ?setPxArticulationJoint_Stiffness@@YAXPAVPxArticulationJoint@physx@@M@Z 100cf9f0 f   PxAutoGeneratedMetaDataObjects.obj
 0001:000cea10       ?getPxArticulationJoint_Stiffness@@YAMPBVPxArticulationJoint@physx@@@Z 100cfa10 f   PxAutoGeneratedMetaDataObjects.obj
 0001:000cea20       ?setPxArticulationJoint_Damping@@YAXPAVPxArticulationJoint@physx@@M@Z 100cfa20 f   PxAutoGeneratedMetaDataObjects.obj
 0001:000cea40       ?getPxArticulationJoint_Damping@@YAMPBVPxArticulationJoint@physx@@@Z 100cfa40 f   PxAutoGeneratedMetaDataObjects.obj
 0001:000cea50       ?setPxArticulationJoint_InternalCompliance@@YAXPAVPxArticulationJoint@physx@@M@Z 100cfa50 f   PxAutoGeneratedMetaDataObjects.obj
 0001:000cea70       ?getPxArticulationJoint_InternalCompliance@@YAMPBVPxArticulationJoint@physx@@@Z 100cfa70 f   PxAutoGeneratedMetaDataObjects.obj
 0001:000cea80       ?setPxArticulationJoint_ExternalCompliance@@YAXPAVPxArticulationJoint@physx@@M@Z 100cfa80 f   PxAutoGeneratedMetaDataObjects.obj
 0001:000ceaa0       ?getPxArticulationJoint_ExternalCompliance@@YAMPBVPxArticulationJoint@physx@@@Z 100cfaa0 f   PxAutoGeneratedMetaDataObjects.obj
 0001:000ceab0       ?setPxArticulationJoint_SwingLimit@@YAXPAVPxArticulationJoint@physx@@MM@Z 100cfab0 f   PxAutoGeneratedMetaDataObjects.obj
 0001:000ceae0       ?getPxArticulationJoint_SwingLimit@@YAXPBVPxArticulationJoint@physx@@AAM1@Z 100cfae0 f   PxAutoGeneratedMetaDataObjects.obj
 0001:000ceb00       ?setPxArticulationJoint_TangentialStiffness@@YAXPAVPxArticulationJoint@physx@@M@Z 100cfb00 f   PxAutoGeneratedMetaDataObjects.obj
 0001:000ceb20       ?getPxArticulationJoint_TangentialStiffness@@YAMPBVPxArticulationJoint@physx@@@Z 100cfb20 f   PxAutoGeneratedMetaDataObjects.obj
 0001:000ceb30       ?setPxArticulationJoint_TangentialDamping@@YAXPAVPxArticulationJoint@physx@@M@Z 100cfb30 f   PxAutoGeneratedMetaDataObjects.obj
 0001:000ceb50       ?getPxArticulationJoint_TangentialDamping@@YAMPBVPxArticulationJoint@physx@@@Z 100cfb50 f   PxAutoGeneratedMetaDataObjects.obj
 0001:000ceb60       ?setPxArticulationJoint_SwingLimitContactDistance@@YAXPAVPxArticulationJoint@physx@@M@Z 100cfb60 f   PxAutoGeneratedMetaDataObjects.obj
 0001:000ceb80       ?getPxArticulationJoint_SwingLimitContactDistance@@YAMPBVPxArticulationJoint@physx@@@Z 100cfb80 f   PxAutoGeneratedMetaDataObjects.obj
 0001:000ceb90       ?setPxArticulationJoint_SwingLimitEnabled@@YAXPAVPxArticulationJoint@physx@@_N@Z 100cfb90 f   PxAutoGeneratedMetaDataObjects.obj
 0001:000ceba0       ?getPxArticulationJoint_SwingLimitEnabled@@YA_NPBVPxArticulationJoint@physx@@@Z 100cfba0 f   PxAutoGeneratedMetaDataObjects.obj
 0001:000cebc0       ?setPxArticulationJoint_TwistLimit@@YAXPAVPxArticulationJoint@physx@@MM@Z 100cfbc0 f   PxAutoGeneratedMetaDataObjects.obj
 0001:000cebf0       ?getPxArticulationJoint_TwistLimit@@YAXPBVPxArticulationJoint@physx@@AAM1@Z 100cfbf0 f   PxAutoGeneratedMetaDataObjects.obj
 0001:000cec10       ?setPxArticulationJoint_TwistLimitEnabled@@YAXPAVPxArticulationJoint@physx@@_N@Z 100cfc10 f   PxAutoGeneratedMetaDataObjects.obj
 0001:000cec30       ?getPxArticulationJoint_TwistLimitEnabled@@YA_NPBVPxArticulationJoint@physx@@@Z 100cfc30 f   PxAutoGeneratedMetaDataObjects.obj
 0001:000cec50       ?setPxArticulationJoint_TwistLimitContactDistance@@YAXPAVPxArticulationJoint@physx@@M@Z 100cfc50 f   PxAutoGeneratedMetaDataObjects.obj
 0001:000cec70       ?getPxArticulationJoint_TwistLimitContactDistance@@YAMPBVPxArticulationJoint@physx@@@Z 100cfc70 f   PxAutoGeneratedMetaDataObjects.obj
 0001:000cec90       ?getPxArticulationJoint_ConcreteTypeName@@YAPBDPBVPxArticulationJoint@physx@@@Z 100cfc90 f   PxAutoGeneratedMetaDataObjects.obj
 0001:000ceca0       ?getPxArticulation_Scene@@YAPAVPxScene@physx@@PBVPxArticulation@2@@Z 100cfca0 f   PxAutoGeneratedMetaDataObjects.obj
 0001:000cecb0       ?setPxArticulation_MaxProjectionIterations@@YAXPAVPxArticulation@physx@@I@Z 100cfcb0 f   PxAutoGeneratedMetaDataObjects.obj
 0001:000cecc0       ?getPxArticulation_MaxProjectionIterations@@YAIPBVPxArticulation@physx@@@Z 100cfcc0 f   PxAutoGeneratedMetaDataObjects.obj
 0001:000cecd0       ?setPxArticulation_SeparationTolerance@@YAXPAVPxArticulation@physx@@M@Z 100cfcd0 f   PxAutoGeneratedMetaDataObjects.obj
 0001:000cecf0       ?getPxArticulation_SeparationTolerance@@YAMPBVPxArticulation@physx@@@Z 100cfcf0 f   PxAutoGeneratedMetaDataObjects.obj
 0001:000ced00       ?setPxArticulation_InternalDriveIterations@@YAXPAVPxArticulation@physx@@I@Z 100cfd00 f   PxAutoGeneratedMetaDataObjects.obj
 0001:000ced10       ?getPxArticulation_InternalDriveIterations@@YAIPBVPxArticulation@physx@@@Z 100cfd10 f   PxAutoGeneratedMetaDataObjects.obj
 0001:000ced20       ?setPxArticulation_ExternalDriveIterations@@YAXPAVPxArticulation@physx@@I@Z 100cfd20 f   PxAutoGeneratedMetaDataObjects.obj
 0001:000ced30       ?getPxArticulation_ExternalDriveIterations@@YAIPBVPxArticulation@physx@@@Z 100cfd30 f   PxAutoGeneratedMetaDataObjects.obj
 0001:000ced40       ?setPxArticulation_SolverIterationCounts@@YAXPAVPxArticulation@physx@@II@Z 100cfd40 f   PxAutoGeneratedMetaDataObjects.obj
 0001:000ced60       ?getPxArticulation_SolverIterationCounts@@YAXPBVPxArticulation@physx@@AAI1@Z 100cfd60 f   PxAutoGeneratedMetaDataObjects.obj
 0001:000ced80       ?getPxArticulation_IsSleeping@@YA_NPBVPxArticulation@physx@@@Z 100cfd80 f   PxAutoGeneratedMetaDataObjects.obj
 0001:000ced90       ?setPxArticulation_SleepThreshold@@YAXPAVPxArticulation@physx@@M@Z 100cfd90 f   PxAutoGeneratedMetaDataObjects.obj
 0001:000cedb0       ?getPxArticulation_SleepThreshold@@YAMPBVPxArticulation@physx@@@Z 100cfdb0 f   PxAutoGeneratedMetaDataObjects.obj
 0001:000cedc0       ?setPxArticulation_StabilizationThreshold@@YAXPAVPxArticulation@physx@@M@Z 100cfdc0 f   PxAutoGeneratedMetaDataObjects.obj
 0001:000cede0       ?getPxArticulation_StabilizationThreshold@@YAMPBVPxArticulation@physx@@@Z 100cfde0 f   PxAutoGeneratedMetaDataObjects.obj
 0001:000cedf0       ?setPxArticulation_WakeCounter@@YAXPAVPxArticulation@physx@@M@Z 100cfdf0 f   PxAutoGeneratedMetaDataObjects.obj
 0001:000cee10       ?getPxArticulation_WakeCounter@@YAMPBVPxArticulation@physx@@@Z 100cfe10 f   PxAutoGeneratedMetaDataObjects.obj
 0001:000cee20       ?getPxArticulation_Links@@YAIPBVPxArticulation@physx@@PAPAVPxArticulationLink@2@I@Z 100cfe20 f   PxAutoGeneratedMetaDataObjects.obj
 0001:000cee40       ?getNbPxArticulation_Links@@YAIPBVPxArticulation@physx@@@Z 100cfe40 f   PxAutoGeneratedMetaDataObjects.obj
 0001:000cee50       ?setPxArticulation_Name@@YAXPAVPxArticulation@physx@@PBD@Z 100cfe50 f   PxAutoGeneratedMetaDataObjects.obj
 0001:000cee60       ?getPxArticulation_Name@@YAPBDPBVPxArticulation@physx@@@Z 100cfe60 f   PxAutoGeneratedMetaDataObjects.obj
 0001:000cee70       ?getPxArticulation_Aggregate@@YAPAVPxAggregate@physx@@PBVPxArticulation@2@@Z 100cfe70 f   PxAutoGeneratedMetaDataObjects.obj
 0001:000cee80       ?getPxArticulation_ConcreteTypeName@@YAPBDPBVPxArticulation@physx@@@Z 100cfe80 f   PxAutoGeneratedMetaDataObjects.obj
 0001:000cee90       ?getPxAggregate_MaxNbActors@@YAIPBVPxAggregate@physx@@@Z 100cfe90 f   PxAutoGeneratedMetaDataObjects.obj
 0001:000ceea0       ?getPxAggregate_Actors@@YAIPBVPxAggregate@physx@@PAPAVPxActor@2@I@Z 100cfea0 f   PxAutoGeneratedMetaDataObjects.obj
 0001:000ceec0       ?getNbPxAggregate_Actors@@YAIPBVPxAggregate@physx@@@Z 100cfec0 f   PxAutoGeneratedMetaDataObjects.obj
 0001:000ceed0       ?getPxAggregate_SelfCollision@@YA_NPBVPxAggregate@physx@@@Z 100cfed0 f   PxAutoGeneratedMetaDataObjects.obj
 0001:000ceee0       ?getPxAggregate_ConcreteTypeName@@YAPBDPBVPxAggregate@physx@@@Z 100cfee0 f   PxAutoGeneratedMetaDataObjects.obj
 0001:000ceef0       ?getPxConstraint_Scene@@YAPAVPxScene@physx@@PBVPxConstraint@2@@Z 100cfef0 f   PxAutoGeneratedMetaDataObjects.obj
 0001:000cef00       ?setPxConstraint_Actors@@YAXPAVPxConstraint@physx@@PAVPxRigidActor@2@1@Z 100cff00 f   PxAutoGeneratedMetaDataObjects.obj
 0001:000cef20       ?getPxConstraint_Actors@@YAXPBVPxConstraint@physx@@AAPAVPxRigidActor@2@1@Z 100cff20 f   PxAutoGeneratedMetaDataObjects.obj
 0001:000cef40       ?setPxConstraint_Flags@@YAXPAVPxConstraint@physx@@V?$PxFlags@W4Enum@PxConstraintFlag@physx@@G@2@@Z 100cff40 f   PxAutoGeneratedMetaDataObjects.obj
 0001:000cef60       ?getPxConstraint_Flags@@YA?AV?$PxFlags@W4Enum@PxConstraintFlag@physx@@G@physx@@PBVPxConstraint@2@@Z 100cff60 f   PxAutoGeneratedMetaDataObjects.obj
 0001:000cef80       ?getPxConstraint_IsValid@@YA_NPBVPxConstraint@physx@@@Z 100cff80 f   PxAutoGeneratedMetaDataObjects.obj
 0001:000cef90       ?setPxConstraint_BreakForce@@YAXPAVPxConstraint@physx@@MM@Z 100cff90 f   PxAutoGeneratedMetaDataObjects.obj
 0001:000cefc0       ?getPxConstraint_BreakForce@@YAXPBVPxConstraint@physx@@AAM1@Z 100cffc0 f   PxAutoGeneratedMetaDataObjects.obj
 0001:000cefe0       ?setPxConstraint_MinResponseThreshold@@YAXPAVPxConstraint@physx@@M@Z 100cffe0 f   PxAutoGeneratedMetaDataObjects.obj
 0001:000cf000       ?getPxConstraint_MinResponseThreshold@@YAMPBVPxConstraint@physx@@@Z 100d0000 f   PxAutoGeneratedMetaDataObjects.obj
 0001:000cf010       ?getPxConstraint_ConcreteTypeName@@YAPBDPBVPxConstraint@physx@@@Z 100d0010 f   PxAutoGeneratedMetaDataObjects.obj
 0001:000cf020       ?getPxShape_GeometryType@@YA?AW4Enum@PxGeometryType@physx@@PBVPxShape@3@@Z 100d0020 f   PxAutoGeneratedMetaDataObjects.obj
 0001:000cf030       ?setPxShape_Geometry@@YAXPAVPxShape@physx@@ABVPxGeometry@2@@Z 100d0030 f   PxAutoGeneratedMetaDataObjects.obj
 0001:000cf040       ?getPxShape_Geometry@@YA?AVPxGeometryHolder@physx@@PBVPxShape@2@@Z 100d0040 f   PxAutoGeneratedMetaDataObjects.obj
 0001:000cf060       ?setPxShape_LocalPose@@YAXPAVPxShape@physx@@ABVPxTransform@2@@Z 100d0060 f   PxAutoGeneratedMetaDataObjects.obj
 0001:000cf070       ?getPxShape_LocalPose@@YA?AVPxTransform@physx@@PBVPxShape@2@@Z 100d0070 f   PxAutoGeneratedMetaDataObjects.obj
 0001:000cf090       ?setPxShape_SimulationFilterData@@YAXPAVPxShape@physx@@ABUPxFilterData@2@@Z 100d0090 f   PxAutoGeneratedMetaDataObjects.obj
 0001:000cf0a0       ?getPxShape_SimulationFilterData@@YA?AUPxFilterData@physx@@PBVPxShape@2@@Z 100d00a0 f   PxAutoGeneratedMetaDataObjects.obj
 0001:000cf0c0       ?setPxShape_QueryFilterData@@YAXPAVPxShape@physx@@ABUPxFilterData@2@@Z 100d00c0 f   PxAutoGeneratedMetaDataObjects.obj
 0001:000cf0d0       ?getPxShape_QueryFilterData@@YA?AUPxFilterData@physx@@PBVPxShape@2@@Z 100d00d0 f   PxAutoGeneratedMetaDataObjects.obj
 0001:000cf0f0       ?getPxShape_Materials@@YAIPBVPxShape@physx@@PAPAVPxMaterial@2@I@Z 100d00f0 f   PxAutoGeneratedMetaDataObjects.obj
 0001:000cf110       ?getNbPxShape_Materials@@YAIPBVPxShape@physx@@@Z 100d0110 f   PxAutoGeneratedMetaDataObjects.obj
 0001:000cf120       ?setPxShape_ContactOffset@@YAXPAVPxShape@physx@@M@Z 100d0120 f   PxAutoGeneratedMetaDataObjects.obj
 0001:000cf140       ?getPxShape_ContactOffset@@YAMPBVPxShape@physx@@@Z 100d0140 f   PxAutoGeneratedMetaDataObjects.obj
 0001:000cf150       ?setPxShape_RestOffset@@YAXPAVPxShape@physx@@M@Z 100d0150 f   PxAutoGeneratedMetaDataObjects.obj
 0001:000cf170       ?getPxShape_RestOffset@@YAMPBVPxShape@physx@@@Z 100d0170 f   PxAutoGeneratedMetaDataObjects.obj
 0001:000cf180       ?setPxShape_Flags@@YAXPAVPxShape@physx@@V?$PxFlags@W4Enum@PxShapeFlag@physx@@E@2@@Z 100d0180 f   PxAutoGeneratedMetaDataObjects.obj
 0001:000cf1a0       ?getPxShape_Flags@@YA?AV?$PxFlags@W4Enum@PxShapeFlag@physx@@E@physx@@PBVPxShape@2@@Z 100d01a0 f   PxAutoGeneratedMetaDataObjects.obj
 0001:000cf1c0       ?getPxShape_IsExclusive@@YA_NPBVPxShape@physx@@@Z 100d01c0 f   PxAutoGeneratedMetaDataObjects.obj
 0001:000cf1e0       ?setPxShape_Name@@YAXPAVPxShape@physx@@PBD@Z 100d01e0 f   PxAutoGeneratedMetaDataObjects.obj
 0001:000cf200       ?getPxShape_Name@@YAPBDPBVPxShape@physx@@@Z 100d0200 f   PxAutoGeneratedMetaDataObjects.obj
 0001:000cf210       ?getPxShape_ConcreteTypeName@@YAPBDPBVPxShape@physx@@@Z 100d0210 f   PxAutoGeneratedMetaDataObjects.obj
 0001:000cf220       ?getPxClothFabric_NbParticles@@YAIPBVPxClothFabric@physx@@@Z 100d0220 f   PxAutoGeneratedMetaDataObjects.obj
 0001:000cf230       ?getPxClothFabric_Phases@@YAIPBVPxClothFabric@physx@@PAUPxClothFabricPhase@2@I@Z 100d0230 f   PxAutoGeneratedMetaDataObjects.obj
 0001:000cf250       ?getNbPxClothFabric_Phases@@YAIPBVPxClothFabric@physx@@@Z 100d0250 f   PxAutoGeneratedMetaDataObjects.obj
 0001:000cf260       ?getPxClothFabric_Sets@@YAIPBVPxClothFabric@physx@@PAII@Z 100d0260 f   PxAutoGeneratedMetaDataObjects.obj
 0001:000cf280       ?getNbPxClothFabric_Sets@@YAIPBVPxClothFabric@physx@@@Z 100d0280 f   PxAutoGeneratedMetaDataObjects.obj
 0001:000cf290       ?getPxClothFabric_ParticleIndices@@YAIPBVPxClothFabric@physx@@PAII@Z 100d0290 f   PxAutoGeneratedMetaDataObjects.obj
 0001:000cf2b0       ?getNbPxClothFabric_ParticleIndices@@YAIPBVPxClothFabric@physx@@@Z 100d02b0 f   PxAutoGeneratedMetaDataObjects.obj
 0001:000cf2c0       ?getPxClothFabric_Restvalues@@YAIPBVPxClothFabric@physx@@PAMI@Z 100d02c0 f   PxAutoGeneratedMetaDataObjects.obj
 0001:000cf2e0       ?getNbPxClothFabric_Restvalues@@YAIPBVPxClothFabric@physx@@@Z 100d02e0 f   PxAutoGeneratedMetaDataObjects.obj
 0001:000cf2f0       ?getPxClothFabric_ReferenceCount@@YAIPBVPxClothFabric@physx@@@Z 100d02f0 f   PxAutoGeneratedMetaDataObjects.obj
 0001:000cf300       ?getPxClothFabric_ConcreteTypeName@@YAPBDPBVPxClothFabric@physx@@@Z 100d0300 f   PxAutoGeneratedMetaDataObjects.obj
 0001:000cf310       ?getPxCloth_NbParticles@@YAIPBVPxCloth@physx@@@Z 100d0310 f   PxAutoGeneratedMetaDataObjects.obj
 0001:000cf320       ?setPxCloth_ClothFlags@@YAXPAVPxCloth@physx@@V?$PxFlags@W4Enum@PxClothFlag@physx@@G@2@@Z 100d0320 f   PxAutoGeneratedMetaDataObjects.obj
 0001:000cf340       ?getPxCloth_ClothFlags@@YA?AV?$PxFlags@W4Enum@PxClothFlag@physx@@G@physx@@PBVPxCloth@2@@Z 100d0340 f   PxAutoGeneratedMetaDataObjects.obj
 0001:000cf360       ?setPxCloth_TargetPose@@YAXPAVPxCloth@physx@@ABVPxTransform@2@@Z 100d0360 f   PxAutoGeneratedMetaDataObjects.obj
 0001:000cf370       ?setPxCloth_GlobalPose@@YAXPAVPxCloth@physx@@ABVPxTransform@2@@Z 100d0370 f   PxAutoGeneratedMetaDataObjects.obj
 0001:000cf380       ?getPxCloth_GlobalPose@@YA?AVPxTransform@physx@@PBVPxCloth@2@@Z 100d0380 f   PxAutoGeneratedMetaDataObjects.obj
 0001:000cf3a0       ?setPxCloth_SolverFrequency@@YAXPAVPxCloth@physx@@M@Z 100d03a0 f   PxAutoGeneratedMetaDataObjects.obj
 0001:000cf3c0       ?getPxCloth_SolverFrequency@@YAMPBVPxCloth@physx@@@Z 100d03c0 f   PxAutoGeneratedMetaDataObjects.obj
 0001:000cf3e0       ?getPxCloth_PreviousTimeStep@@YAMPBVPxCloth@physx@@@Z 100d03e0 f   PxAutoGeneratedMetaDataObjects.obj
 0001:000cf400       ?setPxCloth_StiffnessFrequency@@YAXPAVPxCloth@physx@@M@Z 100d0400 f   PxAutoGeneratedMetaDataObjects.obj
 0001:000cf420       ?getPxCloth_StiffnessFrequency@@YAMPBVPxCloth@physx@@@Z 100d0420 f   PxAutoGeneratedMetaDataObjects.obj
 0001:000cf440       ?setPxCloth_LinearInertiaScale@@YAXPAVPxCloth@physx@@VPxVec3@2@@Z 100d0440 f   PxAutoGeneratedMetaDataObjects.obj
 0001:000cf480       ?getPxCloth_LinearInertiaScale@@YA?AVPxVec3@physx@@PBVPxCloth@2@@Z 100d0480 f   PxAutoGeneratedMetaDataObjects.obj
 0001:000cf4a0       ?setPxCloth_AngularInertiaScale@@YAXPAVPxCloth@physx@@VPxVec3@2@@Z 100d04a0 f   PxAutoGeneratedMetaDataObjects.obj
 0001:000cf4e0       ?getPxCloth_AngularInertiaScale@@YA?AVPxVec3@physx@@PBVPxCloth@2@@Z 100d04e0 f   PxAutoGeneratedMetaDataObjects.obj
 0001:000cf500       ?setPxCloth_CentrifugalInertiaScale@@YAXPAVPxCloth@physx@@VPxVec3@2@@Z 100d0500 f   PxAutoGeneratedMetaDataObjects.obj
 0001:000cf540       ?getPxCloth_CentrifugalInertiaScale@@YA?AVPxVec3@physx@@PBVPxCloth@2@@Z 100d0540 f   PxAutoGeneratedMetaDataObjects.obj
 0001:000cf560       ?setPxCloth_InertiaScale@@YAXPAVPxCloth@physx@@M@Z 100d0560 f   PxAutoGeneratedMetaDataObjects.obj
 0001:000cf580       ?setPxCloth_DampingCoefficient@@YAXPAVPxCloth@physx@@VPxVec3@2@@Z 100d0580 f   PxAutoGeneratedMetaDataObjects.obj
 0001:000cf5c0       ?getPxCloth_DampingCoefficient@@YA?AVPxVec3@physx@@PBVPxCloth@2@@Z 100d05c0 f   PxAutoGeneratedMetaDataObjects.obj
 0001:000cf5e0       ?setPxCloth_LinearDragCoefficient@@YAXPAVPxCloth@physx@@VPxVec3@2@@Z 100d05e0 f   PxAutoGeneratedMetaDataObjects.obj
 0001:000cf620       ?getPxCloth_LinearDragCoefficient@@YA?AVPxVec3@physx@@PBVPxCloth@2@@Z 100d0620 f   PxAutoGeneratedMetaDataObjects.obj
 0001:000cf640       ?setPxCloth_AngularDragCoefficient@@YAXPAVPxCloth@physx@@VPxVec3@2@@Z 100d0640 f   PxAutoGeneratedMetaDataObjects.obj
 0001:000cf680       ?getPxCloth_AngularDragCoefficient@@YA?AVPxVec3@physx@@PBVPxCloth@2@@Z 100d0680 f   PxAutoGeneratedMetaDataObjects.obj
 0001:000cf6a0       ?setPxCloth_DragCoefficient@@YAXPAVPxCloth@physx@@M@Z 100d06a0 f   PxAutoGeneratedMetaDataObjects.obj
 0001:000cf6c0       ?setPxCloth_ExternalAcceleration@@YAXPAVPxCloth@physx@@VPxVec3@2@@Z 100d06c0 f   PxAutoGeneratedMetaDataObjects.obj
 0001:000cf700       ?getPxCloth_ExternalAcceleration@@YA?AVPxVec3@physx@@PBVPxCloth@2@@Z 100d0700 f   PxAutoGeneratedMetaDataObjects.obj
 0001:000cf720       ?setPxCloth_WindVelocity@@YAXPAVPxCloth@physx@@VPxVec3@2@@Z 100d0720 f   PxAutoGeneratedMetaDataObjects.obj
 0001:000cf760       ?getPxCloth_WindVelocity@@YA?AVPxVec3@physx@@PBVPxCloth@2@@Z 100d0760 f   PxAutoGeneratedMetaDataObjects.obj
 0001:000cf780       ?setPxCloth_WindDrag@@YAXPAVPxCloth@physx@@M@Z 100d0780 f   PxAutoGeneratedMetaDataObjects.obj
 0001:000cf7a0       ?getPxCloth_WindDrag@@YAMPBVPxCloth@physx@@@Z 100d07a0 f   PxAutoGeneratedMetaDataObjects.obj
 0001:000cf7c0       ?setPxCloth_WindLift@@YAXPAVPxCloth@physx@@M@Z 100d07c0 f   PxAutoGeneratedMetaDataObjects.obj
 0001:000cf7e0       ?getPxCloth_WindLift@@YAMPBVPxCloth@physx@@@Z 100d07e0 f   PxAutoGeneratedMetaDataObjects.obj
 0001:000cf800       ?setPxCloth_MotionConstraintConfig@@YAXPAVPxCloth@physx@@ABUPxClothMotionConstraintConfig@2@@Z 100d0800 f   PxAutoGeneratedMetaDataObjects.obj
 0001:000cf820       ?getPxCloth_MotionConstraintConfig@@YA?AUPxClothMotionConstraintConfig@physx@@PBVPxCloth@2@@Z 100d0820 f   PxAutoGeneratedMetaDataObjects.obj
 0001:000cf840       ?setPxCloth_StretchConfig@@YAXPAVPxCloth@physx@@W4Enum@PxClothFabricPhaseType@2@UPxClothStretchConfig@2@@Z 100d0840 f   PxAutoGeneratedMetaDataObjects.obj
 0001:000cf860       ?getPxCloth_StretchConfig@@YA?AUPxClothStretchConfig@physx@@PBVPxCloth@2@W4Enum@PxClothFabricPhaseType@2@@Z 100d0860 f   PxAutoGeneratedMetaDataObjects.obj
